..text.b:
	.ident	"$Options: Fujitsu C/C++ Compiler 4.7.0 (Nov 10 2021 09:37:15) --preinclude /opt/FJSVstclanga/cp-1.0.21.01/bin/../lib/FCC.pre --g++ -Dunix -Dlinux -D__FUJITSU -D__FCC_major__=4 -D__FCC_minor__=7 -D__FCC_patchlevel__=0 -D__FCC_version__=\"4.7.0\" -D__aarch64__ -D__unix -D_OPENMP=201107 -D__PRAGMA_REDEFINE_EXTNAME -D__FCC_VERSION=800 -D__USER_LABEL_PREFIX__= -D__OPTIMIZE__ -D__ARM_ARCH=8 -D__ARM_FEATURE_SVE -D__FP_FAST_FMA -D__ELF__ -D__linux -Asystem(unix) -D__LIBC_6B -D_LP64 -D__LP64__ -DHPCG_CONTIGUOUS_ARRAYS -DHPCG_NO_MPI -DHPCG_MAN_OPT_SPMV_UNROLL -DSPMV_4_UNROLL -DHPCG_MAN_OPT_SCHEDULE_ON -I./src -I./src/OOKAMI_OMP_FJ -DLIKWID_PERFMON -DLIKWID_INSTRUMENTATION --K=omp -I../src --K=ocl -D_REENTRANT -D__MT__ --zmode=64 -I/lustre/software/arm/22.1/arm-linux-compiler-22.1_Generic-AArch64_RHEL-8_aarch64-linux/include -I/lustre/software/arm/22.1/gcc-11.2.0_Generic-AArch64_RHEL-8_aarch64-linux/include -I/lustre/software/likwid/5.2.2//include -I/cm/shared/apps/slurm/current/include -I/lustre/software/likwid/5.2.2//include --sys_include=/opt/FJSVstclanga/cp-1.0.21.01/bin/../include/libc++/v371 --sys_include=/opt/FJSVstclanga/cp-1.0.21.01/bin/../include --K=opt --exceptions ../src/ComputeSYMGS.cpp -- -ncmdname=FCC -nspopt=\"-c -DHPCG_CONTIGUOUS_ARRAYS -DHPCG_NO_MPI -DHPCG_MAN_OPT_SPMV_UNROLL -DSPMV_4_UNROLL -DHPCG_MAN_OPT_SCHEDULE_ON -I./src -I./src/OOKAMI_OMP_FJ -DLIKWID_PERFMON -DLIKWID_INSTRUMENTATION -Kfast -KSVE -Kopenmp -Koptmsg=2 -Nlst=t -Kocl -I../src -S -o src/ComputeSYMGS.asm.out\" -zobe=cplus -zcfc=target_sve -O3 -x- -Komitfp,mfunc,eval,fp_relaxed,fz,fast_matmul,fp_contract,ilfunc,simd_packed_promotion -KSVE -Kopenmp,threadsafe -Koptmsg=2 -Nlst=t -Kocl -zsta=am -Klargepage -zsrc=../src/ComputeSYMGS.cpp src/ComputeSYMGS.asm.out $"
	.file	"ComputeSYMGS.cpp"
	.ident	"$Compiler: Fujitsu C/C++ Compiler 4.7.0 (Nov 10 2021 09:37:15) ../src/ComputeSYMGS.cpp _Z22ComputeFusedSYMGS_SPMVRK19SparseMatrix_STRUCTRK13Vector_STRUCTRS2_S5_ $"
	.text
	.align	2
	.global	_Z22ComputeFusedSYMGS_SPMVRK19SparseMatrix_STRUCTRK13Vector_STRUCTRS2_S5_
	.type	_Z22ComputeFusedSYMGS_SPMVRK19SparseMatrix_STRUCTRK13Vector_STRUCTRS2_S5_, %function
_Z22ComputeFusedSYMGS_SPMVRK19SparseMatrix_STRUCTRK13Vector_STRUCTRS2_S5_:
	.file 1 "/usr/include/bits/byteswap.h"
	.file 2 "/usr/include/bits/types.h"
	.file 3 "/usr/include/bits/uintn-identity.h"
	.file 4 "/opt/FJSVstclanga/cp-1.0.21.01/bin/../include/libc++/v371/__config_fujitsu"
	.file 5 "/opt/FJSVstclanga/cp-1.0.21.01/bin/../include/libc++/v371/type_traits"
	.file 6 "/usr/include/string.h"
	.file 7 "/opt/FJSVstclanga/cp-1.0.21.01/bin/../include/stddef.h"
	.file 8 "/usr/include/strings.h"
	.file 9 "/usr/include/stdlib.h"
	.file 10 "/usr/include/bits/stdlib-bsearch.h"
	.file 11 "/usr/include/bits/stdlib-float.h"
	.file 12 "/opt/FJSVstclanga/cp-1.0.21.01/bin/../include/libc++/v371/cstdlib"
	.file 13 "/opt/FJSVstclanga/cp-1.0.21.01/bin/../include/libc++/v371/exception"
	.file 14 "/opt/FJSVstclanga/cp-1.0.21.01/bin/../include/libc++/v371/cstddef"
	.file 15 "/opt/FJSVstclanga/cp-1.0.21.01/bin/../include/libc++/v371/typeinfo"
	.file 16 "/opt/FJSVstclanga/cp-1.0.21.01/bin/../include/libc++/v371/new"
	.file 17 "/usr/include/wchar.h"
	.file 18 "/usr/include/bits/types/mbstate_t.h"
	.file 19 "/usr/include/bits/types/__mbstate_t.h"
	.file 20 "/opt/FJSVstclanga/cp-1.0.21.01/bin/../include/libc++/v371/iterator"
	.file 21 "/opt/FJSVstclanga/cp-1.0.21.01/bin/../include/libc++/v371/tuple"
	.file 22 "/opt/FJSVstclanga/cp-1.0.21.01/bin/../include/libc++/v371/atomic"
	.file 23 "/opt/FJSVstclanga/cp-1.0.21.01/bin/../include/libc++/v371/memory"
	.file 24 "/opt/FJSVstclanga/cp-1.0.21.01/bin/../include/libc++/v371/algorithm"
	.file 25 "/opt/FJSVstclanga/cp-1.0.21.01/bin/../include/libc++/v371/__bit_reference"
	.file 26 "/opt/FJSVstclanga/cp-1.0.21.01/bin/../include/libc++/v371/stdexcept"
	.file 27 "/opt/FJSVstclanga/cp-1.0.21.01/bin/../include/libc++/v371/iosfwd"
	.file 28 "../src/Geometry.hpp"
	.file 29 "../src/Vector.hpp"
	.file 30 "../src/MGData.hpp"
	.file 31 "/usr/include/math.h"
	.file 32 "/opt/FJSVstclanga/cp-1.0.21.01/bin/../include/libc++/v371/cmath"
	.file 33 "/opt/FJSVstclanga/cp-1.0.21.01/bin/../include/libc++/v371/__hash_table"
	.file 34 "/opt/FJSVstclanga/cp-1.0.21.01/bin/../include/libc++/v371/functional"
	.file 35 "/opt/FJSVstclanga/cp-1.0.21.01/bin/../include/libc++/v371/unordered_map"
	.file 36 "../src/SparseMatrix.hpp"
	.file 37 "/opt/FJSVstclanga/cp-1.0.21.01/bin/../include/libc++/v371/vector"
	.file 38 "/usr/include/ctype.h"
	.file 39 "../src/ComputeSYMGS.cpp"
	.loc 39 1239 0
..LDL1:
.LFB0:
	.cfi_startproc
/*   1298 */	sub	sp, sp, 48
	.cfi_def_cfa_offset 48
/*    ??? */	str	x30, [sp, 32]	//  (*)
	.cfi_offset 30, -16
/*    ??? */	stp	x19, x20, [sp, 16]	//  (*)
	.cfi_offset 19, -32
	.cfi_offset 20, -24
/*    ??? */	stp	x21, x22, [sp]	//  (*)
	.cfi_offset 21, -48
	.cfi_offset 22, -40
/*    ??? */	sub	sp, sp, 80
	.cfi_def_cfa_offset 128
/*   1239 */	add	x19, sp, 16
/*   1239 */	str	x0, [x19, 40]
	.loc 39 1240 0
..LDL2:
/*   1240 */	ldr	w5, [x2]	//  (*)
/*   1240 */	ldr	w4, [x0, 36]	//  (*)
/*   1240 */	cmp	w5, w4
/*   1240 */	bne	.L1331
	.loc 39 1246 0
..LDL3:
/*   1246 */	ldr	x1, [x1, 8]	//  (*)
/*   1246 */	str	x1, [x19, 32]
	.loc 39 1247 0
..LDL4:
/*   1247 */	ldr	x1, [x2, 8]	//  (*)
/*   1247 */	str	x1, [x19, 24]
	.loc 39 1248 0
..LDL5:
/*   1248 */	ldr	x1, [x3, 8]	//  (*)
/*   1248 */	str	x1, [x19, 16]
	.loc 39 1249 0
..LDL6:
/*   1249 */	ldr	x1, [x0, 80]	//  (*)
/*   1249 */	str	x1, [x19, 8]
	.loc 39 1254 0
..LDL7:
/*   1254 */	str	wzr, [x19, 4]
	.loc 37 641 0
..LDL8:
/*    641 */	ldp	x0, x1, [x0, 280]	//  (*)
/*    641 */	sub	x0, x1, x0
/*    641 */	mov	x1, 24
/*    641 */	sdiv	x0, x0, x1
	.loc 39 1254 0
..LDL9:
/*   1254 */	cbz	x0, .L1325
	.loc 39 1256 0 is_stmt 0
..LDL10:
/*   1256 */	adrp	x0, _Z22ComputeFusedSYMGS_SPMVRK19SparseMatrix_STRUCTRK13Vector_STRUCTRS2_S5_._OMP_1
	.loc 37 641 0
..LDL11:
/*    641 */	mov	x20, 24
	.loc 39 1273 0
..LDL12:
/*   1273 */	add	x22, x19, 40
	.loc 39 1256 0
..LDL13:
/*   1256 */	add	x21, x0, :lo12:_Z22ComputeFusedSYMGS_SPMVRK19SparseMatrix_STRUCTRK13Vector_STRUCTRS2_S5_._OMP_1
	.p2align 5
.L1323:					// :entr:term
	.loc 39 1256 0 is_stmt 0
..LDL14:
/*   1256 */	mov	x2, 0
/*   1256 */	mov	x0, x21
/*   1256 */	mov	x1, x19
/*   1256 */	bl	__mpc_opar
	.loc 39 1273 0 is_stmt 1
..LDL15:
/*   1273 */	ldr	w0, [x22, -36]
/*   1273 */	add	w0, w0, 1
/*   1273 */	str	w0, [x22, -36]
/*   1273 */	sxtw	x1, w0
	.loc 37 641 0
..LDL16:
/*    641 */	ldr	x0, [x22]
/*    641 */	ldp	x0, x2, [x0, 280]	//  (*)
/*    641 */	sub	x0, x2, x0
/*    641 */	sdiv	x0, x0, x20
	.loc 39 1273 0
..LDL17:
/*   1273 */	cmp	x1, x0
/*   1273 */	bcc	.L1323
.L1325:
	.loc 37 641 0
..LDL18:
/*    641 */	ldr	x0, [x19, 40]
/*    641 */	ldp	x0, x1, [x0, 280]	//  (*)
/*    641 */	sub	x0, x1, x0
/*    641 */	mov	x1, 24
/*    641 */	sdiv	x0, x0, x1
	.loc 39 1278 0
..LDL19:
/*   1278 */	sub	x0, x0, 1
/*   1278 */	str	w0, [x19]
/*   1278 */	cmp	w0, 0
/*   1278 */	blt	.L1330
	.loc 39 1280 0 is_stmt 0
..LDL20:
/*   1280 */	adrp	x0, _Z22ComputeFusedSYMGS_SPMVRK19SparseMatrix_STRUCTRK13Vector_STRUCTRS2_S5_._OMP_2
/*   1280 */	add	x20, x0, :lo12:_Z22ComputeFusedSYMGS_SPMVRK19SparseMatrix_STRUCTRK13Vector_STRUCTRS2_S5_._OMP_2
	.p2align 5
.L1328:					// :entr:term
	.loc 39 1280 0 is_stmt 0
..LDL21:
/*   1280 */	mov	x2, 0
/*   1280 */	mov	x0, x20
/*   1280 */	mov	x1, x19
/*   1280 */	bl	__mpc_opar
	.loc 39 1299 0 is_stmt 1
..LDL22:
/*   1299 */	ldr	w0, [x19]
/*   1299 */	sub	w0, w0, 1
/*   1299 */	str	w0, [x19]
/*   1299 */	cmp	w0, 0
/*   1299 */	bge	.L1328
.L1330:
	.loc 39 1301 0
..LDL23:
/*   1301 */	mov	w0, 0
/*   1301 */	b	.L1332
.L1331:
	.loc 39 1240 0
..LDL24:
/*   1240 */	adrp	x0, .LR.3
/*   1240 */	adrp	x1, .LR.2
/*   1240 */	mov	w2, 1240
/*   1240 */	add	x0, x0, :lo12:.LR.3
/*   1240 */	add	x1, x1, :lo12:.LR.2
/*   1240 */	adrp	x3, .LR.6
/*   1240 */	add	x3, x3, :lo12:.LR.6
/*   1240 */	bl	__assert_fail
.L1332:					// :epi:term
	.loc 39 1302 0
..LDL25:
/*    ??? */	add	sp, sp, 80
	.cfi_def_cfa_offset 48
/*    ??? */	ldp	x19, x20, [sp, 16]	//  (*)
	.cfi_restore 19
	.cfi_restore 20
/*    ??? */	ldp	x21, x22, [sp]	//  (*)
	.cfi_restore 21
	.cfi_restore 22
/*    ??? */	ldr	x30, [sp, 32]	//  (*)
	.cfi_restore 30
/*   1302 */	add	sp, sp, 48
	.cfi_def_cfa_offset 0
/*   1302 */	ret	
..D1.pchi:
	.cfi_endproc
.LFE0:
	.size	_Z22ComputeFusedSYMGS_SPMVRK19SparseMatrix_STRUCTRK13Vector_STRUCTRS2_S5_, .-_Z22ComputeFusedSYMGS_SPMVRK19SparseMatrix_STRUCTRK13Vector_STRUCTRS2_S5_
	.ident	"$Compiler: Fujitsu C/C++ Compiler 4.7.0 (Nov 10 2021 09:37:15) ../src/ComputeSYMGS.cpp _Z22ComputeFusedSYMGS_SPMVRK19SparseMatrix_STRUCTRK13Vector_STRUCTRS2_S5_._OMP_1 $"
	.text
	.align	2
	.type	_Z22ComputeFusedSYMGS_SPMVRK19SparseMatrix_STRUCTRK13Vector_STRUCTRS2_S5_._OMP_1, %function
_Z22ComputeFusedSYMGS_SPMVRK19SparseMatrix_STRUCTRK13Vector_STRUCTRS2_S5_._OMP_1:
	.loc 39 1256 0
..LDL26:
.LFB1:
	.cfi_startproc
/*    ??? */	stp	x29, x30, [sp, -16]!	//  (*)
/*   1256 */	add	x29, sp, 0
	.cfi_def_cfa 29, 16
	.cfi_offset 29, -16
	.cfi_offset 30, -8
/*   1256 */	sub	sp, sp, 176
/*    ??? */	stp	x23, x24, [x29, -48]	//  (*)
	.cfi_offset 23, -64
	.cfi_offset 24, -56
/*    ??? */	stp	d12, d13, [x29, -104]	//  (*)
	.cfi_offset 76, -120
	.cfi_offset 77, -112
/*    ??? */	stp	x19, x20, [x29, -16]	//  (*)
	.cfi_offset 19, -32
	.cfi_offset 20, -24
/*    ??? */	stp	d8, d9, [x29, -72]	//  (*)
	.cfi_offset 72, -88
	.cfi_offset 73, -80
/*   1256 */	add	x19, sp, 0
/*    ??? */	stp	x21, x22, [x29, -32]	//  (*)
	.cfi_offset 21, -48
	.cfi_offset 22, -40
/*    ??? */	stp	d10, d11, [x29, -88]	//  (*)
	.cfi_offset 74, -104
	.cfi_offset 75, -96
/*   1256 */	mov	x21, x0
/*    ??? */	str	x25, [x29, -56]	//  (*)
	.cfi_offset 25, -72
/*    ??? */	str	d14, [x29, -112]	//  (*)
	.cfi_offset 78, -128
/*    ??? */	sub	sp, sp, 32
/*   1256 */	mov	x5, sp
/*   1256 */	and	sp, x5, -64
/*   1256 */	str	x1, [x19, 48]
/*   1256 */	str	x2, [x19, 40]
/*   1256 */	str	x3, [x19, 32]
/*   1256 */	str	x4, [x19, 24]
	.loc 39 1256 0 is_stmt 0
..LDL27:
	.loc 39 1256 0 is_stmt 0
..LDL28:
	.loc 39 1258 0 is_stmt 1
..LDL29:
/*   1258 */	mov	w1, 0
/*   1258 */	ldrsw	x2, [x21, 4]	//  "l"
	.loc 37 1506 0
..LDL30:
/*   1506 */	ldr	x0, [x21, 40]	//  "A"
/*   1506 */	add	x3, x2, x2
/*   1506 */	ldr	x0, [x0, 280]	//  (*)
/*   1506 */	add	x2, x3, x2
/*   1506 */	lsl	x3, x2, 3
	.loc 37 641 0
..LDL31:
/*    641 */	add	x2, x3, 8
/*    641 */	ldr	x2, [x0, x2]	//  (*)
/*    641 */	ldr	x0, [x0, x3]	//  (*)
/*    641 */	sub	x0, x2, x0
/*    641 */	asr	x2, x0, 1
/*    641 */	add	x0, x0, x2, lsr #62
/*    641 */	asr	x20, x0, 2
/*   1258 */	cbz	x20, .L1349
	.loc 39 1258 0
..LDL32:
/*   1258 */	add	x2, x19, 8
/*   1258 */	mov	x0, 1
	.loc 39 1271 0 is_stmt 0
..LDL33:
/*   1271 */	fmov	d12, 1.000000e+00
	.loc 39 1258 0
..LDL34:
/*   1258 */	str	x0, [x2]
/*   1258 */	add	x24, x19, 0
/*   1258 */	add	x25, x19, 16
/*   1258 */	add	x22, x24, 16
/*   1258 */	add	x23, x24, 8
.L1336:
/*   1258 */	sxtw	x0, w1
/*   1258 */	ldr	x1, [x24, 32]
/*   1258 */	mov	x7, 0
/*   1258 */	mov	x2, 1
/*   1258 */	mov	x3, x7
/*   1258 */	mov	x4, x24
/*   1258 */	mov	x5, x22
/*   1258 */	mov	x6, x7
/*   1258 */	str	x1, [sp, 8]	//  (*)
/*   1258 */	mov	x1, x20
/*   1258 */	str	x23, [sp]	//  (*)
/*   1258 */	bl	__mpc_ortd_th
/*   1258 */	ldr	x0, [x24, 8]
/*   1258 */	cmp	x0, 0
/*   1258 */	ble	.L1349
/*   1258 */	ldr	x1, [x24]
	.loc 39 1259 0
..LDL35:
/*   1259 */	ldrsw	x0, [x21, 4]	//  "l"
	.loc 39 1267 0
..LDL36:
/*   1267 */	ptrue	p1.d, ALL
	.loc 39 1268 0
..LDL37:
/*   1268 */	fmov	z27.d, 0.000000e+00
	.loc 39 1264 0
..LDL38:
/*   1264 */	ldr	x8, [x21, 32]	//  "rv"
	.loc 39 1270 0
..LDL39:
/*   1270 */	ldr	x9, [x21, 24]	//  "xv"
	.loc 37 1506 0
..LDL40:
/*   1506 */	add	x2, x0, x0
/*   1506 */	add	x0, x2, x0
	.loc 39 1259 0
..LDL41:
/*   1259 */	sxtw	x6, w1
	.loc 37 1506 0
..LDL42:
/*   1506 */	lsl	x14, x0, 3
.L1338:					// :entr
	.loc 37 1506 0 is_stmt 1
..LDL43:
/*   1506 */	ldr	x2, [x21, 40]	//  "A"
	.loc 39 1263 0
..LDL44:
/*   1263 */	ldr	x5, [x21, 8]	//  "matrixDiagonal"
	.loc 37 1506 0
..LDL45:
/*   1506 */	ldr	x3, [x2, 280]	//  (*)
	.loc 39 1262 0
..LDL46:
/*   1262 */	ldr	x0, [x2, 48]	//  (*)
	.loc 39 1260 0
..LDL47:
/*   1260 */	ldp	x2, x4, [x2, 64]	//  (*)
	.loc 37 1506 0
..LDL48:
/*   1506 */	ldr	x3, [x3, x14]	//  (*)
	.loc 39 1259 0
..LDL49:
/*   1259 */	ldrsw	x7, [x3, x6, lsl #2]	//  (*)
	.loc 39 1262 0
..LDL50:
/*   1262 */	ldrb	w3, [x0, x7]	//  (*)
	.loc 39 1263 0
..LDL51:
/*   1263 */	ldr	x0, [x5, x7, lsl #3]	//  (*)
	.loc 39 1264 0
..LDL52:
/*   1264 */	ldr	d26, [x8, x7, lsl #3]	//  (*)
	.loc 39 1261 0
..LDL53:
/*   1261 */	ldr	x12, [x2, x7, lsl #3]	//  (*)
	.loc 39 1260 0
..LDL54:
/*   1260 */	ldr	x10, [x4, x7, lsl #3]	//  (*)
	.loc 39 1262 0
..LDL55:
/*   1262 */	uxtb	w2, w3
	.loc 39 1263 0
..LDL56:
/*   1263 */	ldr	d28, [x0]	//  (*)
	.loc 39 1266 0
..LDL57:
/*   1266 */	uxtb	w3, w3
/*   1266 */	cmp	w2, 0
/*   1266 */	csel	w0, w2, wzr, ge
/*   1266 */	cbz	w3, .L1346
/*   1266 */	asr	w2, w0, 2
/*   1266 */	mov	x4, 0
/*   1266 */	add	w2, w0, w2, lsr #29
/*   1266 */	asr	w11, w2, 3
/*   1266 */	sub	w5, w0, w11, lsl #3
/*   1266 */	cbz	w11, .L1343
/*   1266 */	sub	w2, w11, 8
/*   1266 */	mov	z0.d, z27.d
/*   1266 */	cmp	w2, 0
/*   1266 */	blt	.L1352
	.loc 39 1268 0 is_stmt 0
..LDL58:
/*   1268 */	ldr	x13, [x21, 24]	//  "xv"
	.loc 39 1267 0
..LDL59:
/*   1267 */	add	x3, x12, 224
	.loc 39 1268 0
..LDL60:
/*   1268 */	mov	z19.d, z27.d
/*   1268 */	mov	z18.d, z27.d
/*   1268 */	add	x0, x10, 448
/*   1268 */	mov	z16.d, z27.d
/*   1268 */	mov	z6.d, z27.d
	.loc 39 1266 0
..LDL61:
/*   1266 */	cmp	w2, 16
	.loc 39 1268 0
..LDL62:
/*   1268 */	mov	z5.d, z27.d
/*   1268 */	mov	z3.d, z27.d
/*   1268 */	mov	z2.d, z27.d
/*   1268 */	mov	z0.d, z27.d
	.loc 39 1266 0
..LDL63:
/*   1266 */	blt	.L1708
	.loc 39 1269 0
..LDL64:
/*   1269 */	mov	z1.d, z0.d
	.loc 39 1267 0
..LDL65:
/*   1267 */	ld1sw	{z31.d}, p1/z, [x3, -7, mul vl]	//  (*)
	.loc 39 1269 0
..LDL66:
/*   1269 */	mov	z22.d, z16.d
/*   1269 */	mov	z4.d, z2.d
/*   1269 */	mov	z7.d, z3.d
	.loc 39 1267 0
..LDL67:
/*   1267 */	ld1sw	{z30.d}, p1/z, [x3, -6, mul vl]	//  (*)
/*   1267 */	ld1sw	{z29.d}, p1/z, [x3, -5, mul vl]	//  (*)
	.loc 39 1269 0
..LDL68:
/*   1269 */	mov	z17.d, z5.d
/*   1269 */	mov	z20.d, z6.d
	.loc 39 1267 0
..LDL69:
/*   1267 */	ld1sw	{z8.d}, p1/z, [x3, -4, mul vl]	//  (*)
/*   1267 */	ld1sw	{z9.d}, p1/z, [x3, -3, mul vl]	//  (*)
	.loc 39 1269 0
..LDL70:
/*   1269 */	mov	z24.d, z18.d
/*   1269 */	mov	z25.d, z19.d
	.loc 39 1267 0
..LDL71:
/*   1267 */	ld1sw	{z10.d}, p1/z, [x3, -2, mul vl]	//  (*)
/*   1267 */	ld1sw	{z16.d}, p1/z, [x3, -1, mul vl]	//  (*)
	.p2align 5
.L1341:					// :entr:term:body:swpl
/*   1267 */	ld1sw	{z0.d}, p1/z, [x3, 0, mul vl]	//  (*)
	.loc 39 1268 0
..LDL72:
/*   1268 */	ld1d	{z31.d}, p1/z, [x13, z31.d, lsl #3]	//  (*)
/*   1268 */	ld1d	{z11.d}, p1/z, [x13, z30.d, lsl #3]	//  (*)
/*   1268 */	ld1d	{z23.d}, p1/z, [x13, z29.d, lsl #3]	//  (*)
/*   1268 */	ld1d	{z21.d}, p1/z, [x13, z8.d, lsl #3]	//  (*)
/*   1268 */	ld1d	{z18.d}, p1/z, [x13, z9.d, lsl #3]	//  (*)
/*   1268 */	ld1d	{z6.d}, p1/z, [x13, z10.d, lsl #3]	//  (*)
/*   1268 */	ld1d	{z3.d}, p1/z, [x13, z16.d, lsl #3]	//  (*)
/*   1268 */	ld1d	{z0.d}, p1/z, [x13, z0.d, lsl #3]	//  (*)
/*   1268 */	ld1d	{z14.d}, p1/z, [x0, -7, mul vl]	//  (*)
/*   1268 */	ld1d	{z13.d}, p1/z, [x0, -6, mul vl]	//  (*)
/*   1268 */	ld1d	{z9.d}, p1/z, [x0, -5, mul vl]	//  (*)
/*   1268 */	ld1d	{z10.d}, p1/z, [x0, -4, mul vl]	//  (*)
/*   1268 */	ld1d	{z19.d}, p1/z, [x0, -3, mul vl]	//  (*)
/*   1268 */	ld1d	{z16.d}, p1/z, [x0, -2, mul vl]	//  (*)
/*   1268 */	ld1d	{z5.d}, p1/z, [x0, -1, mul vl]	//  (*)
/*   1268 */	ld1d	{z2.d}, p1/z, [x0, 0, mul vl]	//  (*)
	.loc 39 1269 0
..LDL73:
/*   1269 */	add	x15, x3, 256
	.loc 39 1267 0
..LDL74:
/*   1267 */	ld1sw	{z29.d}, p1/z, [x3, 1, mul vl]	//  (*)
/*   1267 */	ld1sw	{z8.d}, p1/z, [x3, 2, mul vl]	//  (*)
/*   1267 */	ld1sw	{z30.d}, p1/z, [x3, 3, mul vl]	//  (*)
	.loc 39 1268 0
..LDL75:
/*   1268 */	fmls	z25.d, p1/m, z14.d, z31.d
/*   1268 */	fmls	z24.d, p1/m, z13.d, z11.d
	.loc 39 1267 0
..LDL76:
/*   1267 */	ld1sw	{z31.d}, p1/z, [x3, 4, mul vl]	//  (*)
	.loc 39 1268 0
..LDL77:
/*   1268 */	fmls	z22.d, p1/m, z9.d, z23.d
	.loc 39 1267 0
..LDL78:
/*   1267 */	ld1sw	{z9.d}, p1/z, [x3, 5, mul vl]	//  (*)
	.loc 39 1268 0
..LDL79:
/*   1268 */	fmls	z20.d, p1/m, z10.d, z21.d
	.loc 39 1267 0
..LDL80:
/*   1267 */	ld1sw	{z10.d}, p1/z, [x3, 6, mul vl]	//  (*)
	.loc 39 1268 0
..LDL81:
/*   1268 */	fmsb	z19.d, p1/m, z18.d, z17.d
/*   1268 */	fmsb	z16.d, p1/m, z6.d, z7.d
	.loc 39 1267 0
..LDL82:
/*   1267 */	ld1sw	{z7.d}, p1/z, [x3, 7, mul vl]	//  (*)
	.loc 39 1269 0
..LDL83:
/*   1269 */	add	x16, x0, 512
	.loc 39 1268 0
..LDL84:
/*   1268 */	fmls	z4.d, p1/m, z5.d, z3.d
/*   1268 */	fmls	z1.d, p1/m, z2.d, z0.d
	.loc 39 1267 0
..LDL85:
/*   1267 */	ld1sw	{z0.d}, p1/z, [x15, 0, mul vl]	//  (*)
	.loc 39 1268 0
..LDL86:
/*   1268 */	ld1d	{z11.d}, p1/z, [x13, z29.d, lsl #3]	//  (*)
/*   1268 */	ld1d	{z8.d}, p1/z, [x13, z8.d, lsl #3]	//  (*)
/*   1268 */	ld1d	{z23.d}, p1/z, [x13, z30.d, lsl #3]	//  (*)
/*   1268 */	ld1d	{z21.d}, p1/z, [x13, z31.d, lsl #3]	//  (*)
/*   1268 */	ld1d	{z18.d}, p1/z, [x13, z9.d, lsl #3]	//  (*)
/*   1268 */	ld1d	{z6.d}, p1/z, [x13, z10.d, lsl #3]	//  (*)
/*   1268 */	ld1d	{z3.d}, p1/z, [x13, z7.d, lsl #3]	//  (*)
/*   1268 */	ld1d	{z0.d}, p1/z, [x13, z0.d, lsl #3]	//  (*)
/*   1268 */	ld1d	{z14.d}, p1/z, [x0, 1, mul vl]	//  (*)
/*   1268 */	ld1d	{z13.d}, p1/z, [x0, 2, mul vl]	//  (*)
/*   1268 */	ld1d	{z9.d}, p1/z, [x0, 3, mul vl]	//  (*)
/*   1268 */	ld1d	{z10.d}, p1/z, [x0, 4, mul vl]	//  (*)
/*   1268 */	ld1d	{z17.d}, p1/z, [x0, 5, mul vl]	//  (*)
/*   1268 */	ld1d	{z7.d}, p1/z, [x0, 6, mul vl]	//  (*)
/*   1268 */	ld1d	{z5.d}, p1/z, [x0, 7, mul vl]	//  (*)
/*   1268 */	ld1d	{z2.d}, p1/z, [x16, 0, mul vl]	//  (*)
	.loc 39 1269 0
..LDL87:
/*   1269 */	add	x3, x15, 256
	.loc 39 1267 0
..LDL88:
/*   1267 */	ld1sw	{z31.d}, p1/z, [x15, 1, mul vl]	//  (*)
/*   1267 */	ld1sw	{z30.d}, p1/z, [x15, 2, mul vl]	//  (*)
/*   1267 */	ld1sw	{z29.d}, p1/z, [x15, 3, mul vl]	//  (*)
	.loc 39 1268 0
..LDL89:
/*   1268 */	fmls	z25.d, p1/m, z14.d, z11.d
/*   1268 */	fmls	z24.d, p1/m, z13.d, z8.d
	.loc 39 1267 0
..LDL90:
/*   1267 */	ld1sw	{z8.d}, p1/z, [x15, 4, mul vl]	//  (*)
	.loc 39 1268 0
..LDL91:
/*   1268 */	fmls	z22.d, p1/m, z9.d, z23.d
	.loc 39 1267 0
..LDL92:
/*   1267 */	ld1sw	{z9.d}, p1/z, [x15, 5, mul vl]	//  (*)
	.loc 39 1268 0
..LDL93:
/*   1268 */	fmls	z20.d, p1/m, z10.d, z21.d
	.loc 39 1267 0
..LDL94:
/*   1267 */	ld1sw	{z10.d}, p1/z, [x15, 6, mul vl]	//  (*)
	.loc 39 1268 0
..LDL95:
/*   1268 */	fmsb	z17.d, p1/m, z18.d, z19.d
/*   1268 */	fmsb	z7.d, p1/m, z6.d, z16.d
	.loc 39 1267 0
..LDL96:
/*   1267 */	ld1sw	{z16.d}, p1/z, [x15, 7, mul vl]	//  (*)
/*   1267 */	add	x4, x4, 128
	.loc 39 1269 0
..LDL97:
/*   1269 */	add	x0, x16, 512
	.loc 39 1268 0
..LDL98:
/*   1268 */	fmls	z4.d, p1/m, z5.d, z3.d
/*   1268 */	fmls	z1.d, p1/m, z2.d, z0.d
	.loc 39 1269 0
..LDL99:
/*   1269 */	sub	w2, w2, 16
	.loc 39 1267 0
..LDL100:
/*   1267 */	cmp	w2, 16
/*   1267 */	bge	.L1341
/*   1267 */	ld1sw	{z0.d}, p1/z, [x3, 0, mul vl]	//  (*)
	.loc 39 1268 0
..LDL101:
/*   1268 */	ld1d	{z11.d}, p1/z, [x13, z31.d, lsl #3]	//  (*)
	.loc 39 1269 0
..LDL102:
/*   1269 */	add	x3, x3, 256
/*   1269 */	sub	w2, w2, 8
	.loc 39 1268 0
..LDL103:
/*   1268 */	ld1d	{z13.d}, p1/z, [x13, z30.d, lsl #3]	//  (*)
/*   1268 */	ld1d	{z19.d}, p1/z, [x0, -7, mul vl]	//  (*)
	.loc 39 1267 0
..LDL104:
/*   1267 */	add	x4, x4, 64
	.loc 39 1269 0
..LDL105:
/*   1269 */	cmp	w2, 0
	.loc 39 1268 0
..LDL106:
/*   1268 */	ld1d	{z14.d}, p1/z, [x13, z29.d, lsl #3]	//  (*)
/*   1268 */	ld1d	{z18.d}, p1/z, [x0, -6, mul vl]	//  (*)
/*   1268 */	ld1d	{z23.d}, p1/z, [x13, z16.d, lsl #3]	//  (*)
/*   1268 */	ld1d	{z16.d}, p1/z, [x0, -5, mul vl]	//  (*)
/*   1268 */	ld1d	{z31.d}, p1/z, [x13, z8.d, lsl #3]	//  (*)
/*   1268 */	ld1d	{z6.d}, p1/z, [x0, -4, mul vl]	//  (*)
/*   1268 */	ld1d	{z30.d}, p1/z, [x13, z9.d, lsl #3]	//  (*)
/*   1268 */	ld1d	{z5.d}, p1/z, [x0, -3, mul vl]	//  (*)
/*   1268 */	ld1d	{z29.d}, p1/z, [x13, z10.d, lsl #3]	//  (*)
/*   1268 */	ld1d	{z3.d}, p1/z, [x0, -2, mul vl]	//  (*)
/*   1268 */	ld1d	{z2.d}, p1/z, [x0, -1, mul vl]	//  (*)
/*   1268 */	ld1d	{z21.d}, p1/z, [x13, z0.d, lsl #3]	//  (*)
/*   1268 */	ld1d	{z0.d}, p1/z, [x0, 0, mul vl]	//  (*)
	.loc 39 1269 0
..LDL107:
/*   1269 */	add	x0, x0, 512
	.loc 39 1268 0
..LDL108:
/*   1268 */	fmsb	z19.d, p1/m, z11.d, z25.d
/*   1268 */	fmsb	z18.d, p1/m, z13.d, z24.d
/*   1268 */	fmsb	z16.d, p1/m, z14.d, z22.d
/*   1268 */	fmsb	z2.d, p1/m, z23.d, z4.d
/*   1268 */	fmsb	z6.d, p1/m, z31.d, z20.d
/*   1268 */	fmsb	z5.d, p1/m, z30.d, z17.d
/*   1268 */	fmsb	z3.d, p1/m, z29.d, z7.d
/*   1268 */	fmsb	z0.d, p1/m, z21.d, z1.d
	.loc 39 1269 0
..LDL109:
/*   1269 */	blt	.L1705
.L1708:
	.p2align 5
.L1711:					// :entr:term:mod:swpl
	.loc 39 1267 0 is_stmt 1
..LDL110:
/*   1267 */	ld1sw	{z25.d}, p1/z, [x3, -7, mul vl]	//  (*)
/*   1267 */	ld1sw	{z30.d}, p1/z, [x3, -6, mul vl]	//  (*)
/*   1267 */	add	x4, x4, 64
	.loc 39 1269 0 is_stmt 0
..LDL111:
/*   1269 */	subs	w2, w2, 8
	.loc 39 1267 0
..LDL112:
/*   1267 */	ld1sw	{z21.d}, p1/z, [x3, -5, mul vl]	//  (*)
/*   1267 */	ld1sw	{z24.d}, p1/z, [x3, -4, mul vl]	//  (*)
/*   1267 */	ld1sw	{z10.d}, p1/z, [x3, -3, mul vl]	//  (*)
/*   1267 */	ld1sw	{z23.d}, p1/z, [x3, -2, mul vl]	//  (*)
/*   1267 */	ld1sw	{z17.d}, p1/z, [x3, -1, mul vl]	//  (*)
/*   1267 */	ld1sw	{z29.d}, p1/z, [x3, 0, mul vl]	//  (*)
	.loc 39 1269 0
..LDL113:
/*   1269 */	add	x3, x3, 256
	.loc 39 1268 0 is_stmt 1
..LDL114:
/*   1268 */	ld1d	{z20.d}, p1/z, [x0, -7, mul vl]	//  (*)
/*   1268 */	ld1d	{z22.d}, p1/z, [x0, -6, mul vl]	//  (*)
/*   1268 */	ld1d	{z1.d}, p1/z, [x0, -5, mul vl]	//  (*)
/*   1268 */	ld1d	{z4.d}, p1/z, [x0, -4, mul vl]	//  (*)
/*   1268 */	ld1d	{z7.d}, p1/z, [x0, -3, mul vl]	//  (*)
/*   1268 */	ld1d	{z9.d}, p1/z, [x0, -2, mul vl]	//  (*)
/*   1268 */	ld1d	{z8.d}, p1/z, [x0, -1, mul vl]	//  (*)
/*   1268 */	ld1d	{z31.d}, p1/z, [x0, 0, mul vl]	//  (*)
	.loc 39 1269 0 is_stmt 0
..LDL115:
/*   1269 */	add	x0, x0, 512
	.loc 39 1268 0
..LDL116:
/*   1268 */	ld1d	{z25.d}, p1/z, [x13, z25.d, lsl #3]	//  (*)
/*   1268 */	ld1d	{z30.d}, p1/z, [x13, z30.d, lsl #3]	//  (*)
/*   1268 */	ld1d	{z21.d}, p1/z, [x13, z21.d, lsl #3]	//  (*)
/*   1268 */	ld1d	{z24.d}, p1/z, [x13, z24.d, lsl #3]	//  (*)
/*   1268 */	ld1d	{z10.d}, p1/z, [x13, z10.d, lsl #3]	//  (*)
/*   1268 */	ld1d	{z23.d}, p1/z, [x13, z23.d, lsl #3]	//  (*)
/*   1268 */	ld1d	{z17.d}, p1/z, [x13, z17.d, lsl #3]	//  (*)
/*   1268 */	ld1d	{z29.d}, p1/z, [x13, z29.d, lsl #3]	//  (*)
/*   1268 */	fmls	z19.d, p1/m, z20.d, z25.d
/*   1268 */	fmls	z18.d, p1/m, z22.d, z30.d
/*   1268 */	fmls	z16.d, p1/m, z1.d, z21.d
/*   1268 */	fmls	z6.d, p1/m, z4.d, z24.d
/*   1268 */	fmls	z5.d, p1/m, z7.d, z10.d
/*   1268 */	fmls	z3.d, p1/m, z9.d, z23.d
/*   1268 */	fmls	z2.d, p1/m, z8.d, z17.d
/*   1268 */	fmls	z0.d, p1/m, z31.d, z29.d
	.loc 39 1269 0
..LDL117:
/*   1269 */	bpl	.L1711
.L1705:
	.loc 39 1268 0
..LDL118:
/*   1268 */	fadd	z0.d, z0.d, z2.d
/*   1268 */	fadd	z1.d, z3.d, z5.d
/*   1268 */	fadd	z2.d, z6.d, z16.d
/*   1268 */	fadd	z3.d, z19.d, z18.d
/*   1268 */	fadd	z0.d, z1.d, z0.d
/*   1268 */	fadd	z1.d, z3.d, z2.d
/*   1268 */	fadd	z0.d, z1.d, z0.d
.L1352:
	.loc 39 1266 0 is_stmt 1
..LDL119:
/*   1266 */	adds	w0, w2, 7
/*   1266 */	bmi	.L1342
	.loc 39 1268 0 is_stmt 0
..LDL120:
/*   1268 */	ldr	x2, [x21, 24]	//  "xv"
	.p2align 5
.L1364:					// :entr:term:mod
	.loc 39 1267 0 is_stmt 1
..LDL121:
/*   1267 */	ld1sw	{z1.d}, p1/z, [x12, x4, lsl #2]	//  (*)
	.loc 39 1269 0 is_stmt 0
..LDL122:
/*   1269 */	subs	w0, w0, 1
	.loc 39 1268 0 is_stmt 1
..LDL123:
/*   1268 */	ld1d	{z2.d}, p1/z, [x2, z1.d, lsl #3]	//  (*)
/*   1268 */	ld1d	{z1.d}, p1/z, [x10, x4, lsl #3]	//  (*)
	.loc 39 1267 0 is_stmt 0
..LDL124:
/*   1267 */	add	x4, x4, 8
	.loc 39 1268 0
..LDL125:
/*   1268 */	fmls	z0.d, p1/m, z1.d, z2.d
	.loc 39 1267 0
..LDL126:
/*   1267 */	bpl	.L1364
.L1342:
	.loc 39 1268 0
..LDL127:
/*   1268 */	movprfx	z1, z0
/*   1268 */	ext	z1.b, z1.b, z0.b, 32
/*   1268 */	fadd	z1.d, z1.d, z0.d
/*   1268 */	movprfx	z0, z1
/*   1268 */	ext	z0.b, z0.b, z1.b, 16
/*   1268 */	fadd	z1.d, z1.d, z0.d
/*   1268 */	movprfx	z0, z1
/*   1268 */	ext	z0.b, z0.b, z1.b, 8
/*   1268 */	fadd	z0.d, z1.d, z0.d
/*   1268 */	fadd	d26, d26, d0
.L1343:
	.loc 39 1266 0 is_stmt 1
..LDL128:
/*   1266 */	sbfiz	x0, x11, 3, 32
/*   1266 */	cbz	w5, .L1346
	.loc 39 1267 0 is_stmt 0
..LDL129:
/*   1267 */	whilelt	p0.d, wzr, w5
	.loc 39 1268 0 is_stmt 1
..LDL130:
/*   1268 */	ldr	x2, [x21, 24]	//  "xv"
	.loc 39 1267 0
..LDL131:
/*   1267 */	ld1sw	{z0.d}, p0/z, [x12, x0, lsl #2]	//  (*)
	.loc 39 1268 0
..LDL132:
/*   1268 */	ld1d	{z1.d}, p0/z, [x10, x0, lsl #3]	//  (*)
/*   1268 */	ld1d	{z0.d}, p0/z, [x2, z0.d, lsl #3]	//  (*)
/*   1268 */	fmsb	z1.d, p0/m, z0.d, z27.d
/*   1268 */	sel	z1.d, p0, z1.d, z27.d
/*   1268 */	movprfx	z0, z1
/*   1268 */	ext	z0.b, z0.b, z1.b, 32
/*   1268 */	fadd	z1.d, z1.d, z0.d
/*   1268 */	movprfx	z0, z1
/*   1268 */	ext	z0.b, z0.b, z1.b, 16
/*   1268 */	fadd	z1.d, z1.d, z0.d
/*   1268 */	movprfx	z0, z1
/*   1268 */	ext	z0.b, z0.b, z1.b, 8
/*   1268 */	fadd	z0.d, z1.d, z0.d
/*   1268 */	fadd	d26, d26, d0
.L1346:					// :term
	.loc 39 1271 0
..LDL133:
	.loc 39 1270 0 is_stmt 0
..LDL134:
/*   1270 */	ldr	d1, [x9, x7, lsl #3]	//  (*)
	.loc 39 1271 0
..LDL135:
/*   1271 */	frecpe	d0, d28
	.loc 39 1272 0 is_stmt 1
..LDL136:
/*   1272 */	add	w1, w1, 1
/*   1272 */	add	x6, x6, 1
	.loc 39 1271 0
..LDL137:
/*   1271 */	fmsub	d2, d28, d0, d12
/*   1271 */	fmadd	d4, d1, d28, d26
/*   1271 */	fmadd	d1, d2, d2, d2
/*   1271 */	fmul	d3, d2, d2
/*   1271 */	fmul	d0, d4, d0
/*   1271 */	fmadd	d2, d3, d3, d2
/*   1271 */	fmadd	d1, d1, d0, d0
/*   1271 */	fmadd	d0, d2, d1, d0
/*   1271 */	str	d0, [x9, x7, lsl #3]	//  (*)
	.loc 39 1272 0
..LDL138:
/*   1272 */	ldr	x0, [x25]
/*   1272 */	cmp	x6, x0
/*   1272 */	bls	.L1338
/*   1272 */	b	.L1336
.L1349:
/*   1272 */	add	x20, x19, 8
/*   1272 */	ldr	x0, [x20, 24]
/*   1272 */	bl	__mpc_obar
/*   1272 */	ldr	x0, [x20, 24]
/*   1272 */	bl	__mpc_obar
/*    ??? */	ldp	x19, x20, [x29, -16]	//  (*)
	.cfi_restore 19
	.cfi_restore 20
/*    ??? */	ldr	d14, [x29, -112]	//  (*)
	.cfi_restore 78
/*    ??? */	ldp	x21, x22, [x29, -32]	//  (*)
	.cfi_restore 21
	.cfi_restore 22
/*    ??? */	ldp	x23, x24, [x29, -48]	//  (*)
	.cfi_restore 23
	.cfi_restore 24
/*    ??? */	ldr	x25, [x29, -56]	//  (*)
	.cfi_restore 25
/*    ??? */	ldp	d8, d9, [x29, -72]	//  (*)
	.cfi_restore 72
	.cfi_restore 73
/*    ??? */	ldp	d10, d11, [x29, -88]	//  (*)
	.cfi_restore 74
	.cfi_restore 75
/*    ??? */	ldp	d12, d13, [x29, -104]	//  (*)
	.cfi_restore 76
	.cfi_restore 77
/*    ??? */	add	sp, x29, 0
/*    ??? */	ldp	x29, x30, [sp], 16	//  (*)
	.cfi_restore 29
	.cfi_restore 30
	.cfi_def_cfa_offset 0
/*   1272 */	ret	
..D2.pchi:
	.cfi_endproc
.LFE1:
	.size	_Z22ComputeFusedSYMGS_SPMVRK19SparseMatrix_STRUCTRK13Vector_STRUCTRS2_S5_._OMP_1, .-_Z22ComputeFusedSYMGS_SPMVRK19SparseMatrix_STRUCTRK13Vector_STRUCTRS2_S5_._OMP_1
	.ident	"$Compiler: Fujitsu C/C++ Compiler 4.7.0 (Nov 10 2021 09:37:15) ../src/ComputeSYMGS.cpp _Z22ComputeFusedSYMGS_SPMVRK19SparseMatrix_STRUCTRK13Vector_STRUCTRS2_S5_._OMP_2 $"
	.text
	.align	2
	.type	_Z22ComputeFusedSYMGS_SPMVRK19SparseMatrix_STRUCTRK13Vector_STRUCTRS2_S5_._OMP_2, %function
_Z22ComputeFusedSYMGS_SPMVRK19SparseMatrix_STRUCTRK13Vector_STRUCTRS2_S5_._OMP_2:
	.loc 39 1280 0
..LDL139:
.LFB2:
	.cfi_startproc
/*    ??? */	stp	x29, x30, [sp, -16]!	//  (*)
/*   1272 */	add	x29, sp, 0
	.cfi_def_cfa 29, 16
	.cfi_offset 29, -16
	.cfi_offset 30, -8
/*   1272 */	sub	sp, sp, 192
/*    ??? */	stp	x19, x20, [x29, -16]	//  (*)
	.cfi_offset 19, -32
	.cfi_offset 20, -24
/*    ??? */	stp	d8, d9, [x29, -96]	//  (*)
	.cfi_offset 72, -112
	.cfi_offset 73, -104
/*   1272 */	add	x19, sp, 0
/*   1272 */	mov	x20, x0
/*    ??? */	stp	x21, x22, [x29, -32]	//  (*)
	.cfi_offset 21, -48
	.cfi_offset 22, -40
/*    ??? */	stp	d10, d11, [x29, -112]	//  (*)
	.cfi_offset 74, -128
	.cfi_offset 75, -120
/*    ??? */	stp	x23, x24, [x29, -48]	//  (*)
	.cfi_offset 23, -64
	.cfi_offset 24, -56
/*    ??? */	stp	d12, d13, [x29, -128]	//  (*)
	.cfi_offset 76, -144
	.cfi_offset 77, -136
/*    ??? */	stp	x25, x26, [x29, -64]	//  (*)
	.cfi_offset 25, -80
	.cfi_offset 26, -72
/*    ??? */	stp	x27, x28, [x29, -80]	//  (*)
	.cfi_offset 27, -96
	.cfi_offset 28, -88
/*    ??? */	sub	sp, sp, 32
/*   1272 */	mov	x5, sp
/*   1272 */	and	sp, x5, -64
/*   1272 */	str	x1, [x19, 48]
/*   1272 */	str	x2, [x19, 40]
/*   1272 */	str	x3, [x19, 32]
/*   1272 */	str	x4, [x19, 24]
	.loc 39 1280 0 is_stmt 0
..LDL140:
	.loc 39 1280 0 is_stmt 0
..LDL141:
	.loc 39 1282 0 is_stmt 1
..LDL142:
/*   1282 */	ldrsw	x2, [x20]	//  "l"
	.loc 37 1506 0
..LDL143:
/*   1506 */	ldr	x0, [x20, 40]	//  "A"
/*   1506 */	add	x1, x2, x2
/*   1506 */	ldr	x0, [x0, 280]	//  (*)
/*   1506 */	add	x1, x1, x2
/*   1506 */	lsl	x1, x1, 3
	.loc 37 641 0
..LDL144:
/*    641 */	add	x2, x1, 8
/*    641 */	ldr	x2, [x0, x2]	//  (*)
/*    641 */	ldr	x0, [x0, x1]	//  (*)
/*    641 */	sub	x0, x2, x0
/*    641 */	asr	x1, x0, 1
/*    641 */	add	x0, x0, x1, lsr #62
/*    641 */	asr	x0, x0, 2
	.loc 39 1282 0
..LDL145:
/*   1282 */	sub	x17, x0, 1
/*   1282 */	cmp	w17, 0
/*   1282 */	blt	.L1382
/*   1282 */	add	x1, x19, 8
/*   1282 */	mov	x0, 1
	.loc 39 1295 0 is_stmt 0
..LDL146:
/*   1295 */	fmov	d13, 1.000000e+00
	.loc 39 1282 0
..LDL147:
/*   1282 */	str	x0, [x1]
/*   1282 */	add	x25, x19, 0
	.loc 39 1290 0
..LDL148:
/*   1290 */	mov	x24, 0
	.loc 39 1282 0
..LDL149:
/*   1282 */	add	x26, x25, 16
/*   1282 */	add	x27, x25, 8
.L1369:
/*   1282 */	sxtw	x0, w17
/*   1282 */	ldr	x1, [x25, 32]
/*   1282 */	mov	x7, 0
/*   1282 */	mov	x2, -1
/*   1282 */	mov	x3, x7
/*   1282 */	mov	x4, x25
/*   1282 */	mov	x5, x26
/*   1282 */	mov	x6, x7
/*   1282 */	str	x1, [sp, 8]	//  (*)
/*   1282 */	mov	x1, x7
/*   1282 */	str	x27, [sp]	//  (*)
/*   1282 */	bl	__mpc_ortd
/*   1282 */	ldr	x0, [x25, 8]
/*   1282 */	cmp	x0, 0
/*   1282 */	ble	.L1382
/*   1282 */	ldr	x17, [x25]
/*   1282 */	ldr	x0, [x25, 16]
	.loc 39 1290 0
..LDL150:
/*   1290 */	ptrue	p0.d, ALL
	.loc 39 1291 0
..LDL151:
/*   1291 */	index	z11.d, 0, -1
	.loc 39 1283 0
..LDL152:
/*   1283 */	ldrsw	x1, [x20]	//  "l"
	.loc 39 1295 0
..LDL153:
/*   1295 */	ldr	x21, [x20, 32]	//  "rv"
	.loc 39 1297 0
..LDL154:
/*   1297 */	ldr	x22, [x20, 16]	//  "yv"
	.loc 39 1294 0
..LDL155:
/*   1294 */	ldr	x18, [x20, 24]	//  "xv"
	.loc 39 1282 0
..LDL156:
/*   1282 */	sub	w2, w17, w0
	.loc 37 1506 0
..LDL157:
/*   1506 */	add	x3, x1, x1
	.loc 39 1282 0
..LDL158:
/*   1282 */	add	w2, w2, 1
/*   1282 */	cmp	w17, w0
/*   1282 */	csinc	w30, w2, wzr, ge
	.loc 37 1506 0
..LDL159:
/*   1506 */	add	x0, x3, x1
/*   1506 */	lsl	x23, x0, 3
	.loc 39 1283 0
..LDL160:
/*   1283 */	sxtw	x15, w17
.L1371:					// :entr
	.loc 37 1506 0 is_stmt 1
..LDL161:
/*   1506 */	ldr	x0, [x20, 40]	//  "A"
	.loc 39 1287 0
..LDL162:
/*   1287 */	ldr	x4, [x20, 8]	//  "matrixDiagonal"
	.loc 39 1288 0
..LDL163:
/*   1288 */	eor	v1.8b, v1.8b, v1.8b
	.loc 37 1506 0
..LDL164:
/*   1506 */	ldr	x3, [x0, 280]	//  (*)
	.loc 39 1286 0
..LDL165:
/*   1286 */	ldr	x2, [x0, 48]	//  (*)
	.loc 39 1284 0
..LDL166:
/*   1284 */	ldp	x0, x1, [x0, 64]	//  (*)
	.loc 37 1506 0
..LDL167:
/*   1506 */	ldr	x3, [x3, x23]	//  (*)
	.loc 39 1283 0
..LDL168:
/*   1283 */	ldrsw	x12, [x3, x15, lsl #2]	//  (*)
	.loc 39 1286 0
..LDL169:
/*   1286 */	ldrb	w2, [x2, x12]	//  (*)
	.loc 39 1287 0
..LDL170:
/*   1287 */	ldr	x3, [x4, x12, lsl #3]	//  (*)
	.loc 39 1284 0
..LDL171:
/*   1284 */	ldr	x10, [x1, x12, lsl #3]	//  (*)
	.loc 39 1285 0
..LDL172:
/*   1285 */	ldr	x11, [x0, x12, lsl #3]	//  (*)
	.loc 39 1287 0
..LDL173:
/*   1287 */	ldr	d12, [x3]	//  (*)
	.loc 39 1290 0
..LDL174:
/*   1290 */	sub	w1, w2, 1
/*   1290 */	cmp	w2, 0
/*   1290 */	csel	w0, w2, wzr, ge
/*   1290 */	cmp	w1, 0
/*   1290 */	blt	.L1379
	.loc 39 1291 0 is_stmt 0
..LDL175:
/*   1291 */	sxtw	x13, w1
	.loc 39 1290 0
..LDL176:
/*   1290 */	asr	w1, w0, 2
	.loc 39 1292 0
..LDL177:
/*   1292 */	fmov	z0.d, 0.000000e+00
	.loc 39 1290 0
..LDL178:
/*   1290 */	add	w1, w0, w1, lsr #29
/*   1290 */	asr	w14, w1, 3
/*   1290 */	sub	w16, w0, w14, lsl #3
/*   1290 */	cbz	w14, .L1376
/*   1290 */	sub	w4, w14, 8
/*   1290 */	mov	x0, x13
/*   1290 */	cmp	w4, 0
/*   1290 */	blt	.L1385
	.loc 39 1292 0
..LDL179:
/*   1292 */	ldr	x9, [x20, 24]	//  "xv"
/*   1292 */	lsl	x3, x13, 3
/*   1292 */	mov	z21.d, z0.d
/*   1292 */	mov	z20.d, z0.d
	.loc 39 1291 0
..LDL180:
/*   1291 */	lsl	x1, x13, 2
	.loc 39 1292 0
..LDL181:
/*   1292 */	sub	x2, x3, 192
/*   1292 */	mov	z19.d, z0.d
/*   1292 */	mov	z18.d, z0.d
/*   1292 */	mov	z16.d, z0.d
/*   1292 */	mov	z17.d, z0.d
	.loc 39 1291 0
..LDL182:
/*   1291 */	add	x1, x1, x11
	.loc 39 1292 0
..LDL183:
/*   1292 */	mov	z7.d, z0.d
/*   1292 */	add	x3, x3, x10
/*   1292 */	add	x2, x2, x10
	.loc 39 1290 0
..LDL184:
/*   1290 */	cmp	w4, 16
/*   1290 */	blt	.L1719
	.loc 39 1291 0
..LDL185:
/*   1291 */	ld1sw	{z24.d}, p0/z, [x1, z11.d, lsl #2]	//  (*)
/*   1291 */	sub	x6, x1, 32
/*   1291 */	sub	x5, x1, 64
	.loc 39 1293 0
..LDL186:
/*   1293 */	mov	z23.d, z0.d
	.loc 39 1291 0
..LDL187:
/*   1291 */	ld1sw	{z29.d}, p0/z, [x6, z11.d, lsl #2]	//  (*)
/*   1291 */	sub	x7, x1, 96
/*   1291 */	sub	x6, x1, 128
	.loc 39 1293 0
..LDL188:
/*   1293 */	mov	z1.d, z7.d
	.loc 39 1291 0
..LDL189:
/*   1291 */	ld1sw	{z28.d}, p0/z, [x5, z11.d, lsl #2]	//  (*)
/*   1291 */	sub	x5, x1, 160
	.loc 39 1293 0
..LDL190:
/*   1293 */	mov	z2.d, z17.d
	.loc 39 1291 0
..LDL191:
/*   1291 */	ld1sw	{z27.d}, p0/z, [x7, z11.d, lsl #2]	//  (*)
	.loc 39 1293 0
..LDL192:
/*   1293 */	mov	z3.d, z16.d
	.loc 39 1291 0
..LDL193:
/*   1291 */	ld1sw	{z26.d}, p0/z, [x6, z11.d, lsl #2]	//  (*)
	.loc 39 1293 0
..LDL194:
/*   1293 */	mov	z4.d, z18.d
	.loc 39 1291 0
..LDL195:
/*   1291 */	ld1sw	{z25.d}, p0/z, [x5, z11.d, lsl #2]	//  (*)
	.loc 39 1293 0
..LDL196:
/*   1293 */	mov	z5.d, z19.d
/*   1293 */	mov	z6.d, z20.d
/*   1293 */	mov	z22.d, z21.d
	.p2align 5
.L1374:					// :entr:term:body:swpl
	.loc 39 1291 0
..LDL197:
/*   1291 */	sub	x5, x1, 192
/*   1291 */	ld1sw	{z0.d}, p0/z, [x5, z11.d, lsl #2]	//  (*)
/*   1291 */	sub	x5, x1, 224
/*   1291 */	ld1sw	{z31.d}, p0/z, [x5, z11.d, lsl #2]	//  (*)
	.loc 39 1292 0
..LDL198:
/*   1292 */	ld1d	{z10.d}, p0/z, [x9, z24.d, lsl #3]	//  (*)
/*   1292 */	ld1d	{z21.d}, p0/z, [x3, z11.d, lsl #3]	//  (*)
/*   1292 */	ld1d	{z30.d}, p0/z, [x9, z29.d, lsl #3]	//  (*)
/*   1292 */	sub	x5, x3, 64
/*   1292 */	ld1d	{z20.d}, p0/z, [x5, z11.d, lsl #3]	//  (*)
/*   1292 */	ld1d	{z29.d}, p0/z, [x9, z28.d, lsl #3]	//  (*)
/*   1292 */	sub	x5, x3, 128
/*   1292 */	ld1d	{z19.d}, p0/z, [x5, z11.d, lsl #3]	//  (*)
/*   1292 */	ld1d	{z28.d}, p0/z, [x9, z27.d, lsl #3]	//  (*)
/*   1292 */	ld1d	{z18.d}, p0/z, [x2, z11.d, lsl #3]	//  (*)
/*   1292 */	ld1d	{z27.d}, p0/z, [x9, z26.d, lsl #3]	//  (*)
/*   1292 */	sub	x5, x2, 64
/*   1292 */	ld1d	{z17.d}, p0/z, [x5, z11.d, lsl #3]	//  (*)
/*   1292 */	ld1d	{z26.d}, p0/z, [x9, z25.d, lsl #3]	//  (*)
/*   1292 */	sub	x5, x2, 128
/*   1292 */	ld1d	{z16.d}, p0/z, [x5, z11.d, lsl #3]	//  (*)
/*   1292 */	ld1d	{z25.d}, p0/z, [x9, z0.d, lsl #3]	//  (*)
/*   1292 */	sub	x5, x2, 192
/*   1292 */	ld1d	{z7.d}, p0/z, [x5, z11.d, lsl #3]	//  (*)
/*   1292 */	ld1d	{z24.d}, p0/z, [x9, z31.d, lsl #3]	//  (*)
/*   1292 */	sub	x5, x2, 256
/*   1292 */	ld1d	{z0.d}, p0/z, [x5, z11.d, lsl #3]	//  (*)
	.loc 39 1293 0
..LDL199:
/*   1293 */	sub	x5, x1, 256
	.loc 39 1291 0
..LDL200:
/*   1291 */	ld1sw	{z8.d}, p0/z, [x5, z11.d, lsl #2]	//  (*)
/*   1291 */	sub	x5, x1, 288
/*   1291 */	ld1sw	{z9.d}, p0/z, [x5, z11.d, lsl #2]	//  (*)
/*   1291 */	sub	x5, x1, 320
/*   1291 */	ld1sw	{z31.d}, p0/z, [x5, z11.d, lsl #2]	//  (*)
	.loc 39 1292 0
..LDL201:
/*   1292 */	fmad	z21.d, p0/m, z10.d, z23.d
	.loc 39 1291 0
..LDL202:
/*   1291 */	sub	x5, x1, 352
	.loc 39 1292 0
..LDL203:
/*   1292 */	fmad	z20.d, p0/m, z30.d, z22.d
	.loc 39 1291 0
..LDL204:
/*   1291 */	ld1sw	{z30.d}, p0/z, [x5, z11.d, lsl #2]	//  (*)
	.loc 39 1292 0
..LDL205:
/*   1292 */	fmad	z19.d, p0/m, z29.d, z6.d
	.loc 39 1291 0
..LDL206:
/*   1291 */	sub	x5, x1, 384
	.loc 39 1292 0
..LDL207:
/*   1292 */	fmad	z18.d, p0/m, z28.d, z5.d
	.loc 39 1291 0
..LDL208:
/*   1291 */	ld1sw	{z29.d}, p0/z, [x5, z11.d, lsl #2]	//  (*)
	.loc 39 1292 0
..LDL209:
/*   1292 */	fmad	z17.d, p0/m, z27.d, z4.d
	.loc 39 1291 0
..LDL210:
/*   1291 */	sub	x5, x1, 416
/*   1291 */	ld1sw	{z28.d}, p0/z, [x5, z11.d, lsl #2]	//  (*)
	.loc 39 1292 0
..LDL211:
/*   1292 */	fmad	z16.d, p0/m, z26.d, z3.d
	.loc 39 1293 0
..LDL212:
/*   1293 */	sub	x6, x2, 512
/*   1293 */	sub	x5, x3, 512
	.loc 39 1292 0
..LDL213:
/*   1292 */	fmad	z7.d, p0/m, z25.d, z2.d
/*   1292 */	fmad	z0.d, p0/m, z24.d, z1.d
	.loc 39 1291 0
..LDL214:
/*   1291 */	sub	x7, x1, 448
/*   1291 */	ld1sw	{z1.d}, p0/z, [x7, z11.d, lsl #2]	//  (*)
/*   1291 */	sub	x7, x1, 480
/*   1291 */	ld1sw	{z24.d}, p0/z, [x7, z11.d, lsl #2]	//  (*)
	.loc 39 1292 0
..LDL215:
/*   1292 */	ld1d	{z23.d}, p0/z, [x9, z8.d, lsl #3]	//  (*)
/*   1292 */	ld1d	{z22.d}, p0/z, [x5, z11.d, lsl #3]	//  (*)
/*   1292 */	ld1d	{z27.d}, p0/z, [x9, z9.d, lsl #3]	//  (*)
/*   1292 */	sub	x5, x3, 576
/*   1292 */	ld1d	{z10.d}, p0/z, [x5, z11.d, lsl #3]	//  (*)
/*   1292 */	ld1d	{z9.d}, p0/z, [x9, z31.d, lsl #3]	//  (*)
/*   1292 */	sub	x5, x3, 640
/*   1292 */	ld1d	{z6.d}, p0/z, [x5, z11.d, lsl #3]	//  (*)
/*   1292 */	ld1d	{z26.d}, p0/z, [x9, z30.d, lsl #3]	//  (*)
/*   1292 */	ld1d	{z5.d}, p0/z, [x6, z11.d, lsl #3]	//  (*)
/*   1292 */	ld1d	{z25.d}, p0/z, [x9, z29.d, lsl #3]	//  (*)
/*   1292 */	sub	x5, x2, 576
/*   1292 */	ld1d	{z4.d}, p0/z, [x5, z11.d, lsl #3]	//  (*)
/*   1292 */	ld1d	{z8.d}, p0/z, [x9, z28.d, lsl #3]	//  (*)
/*   1292 */	sub	x5, x2, 640
/*   1292 */	ld1d	{z3.d}, p0/z, [x5, z11.d, lsl #3]	//  (*)
/*   1292 */	ld1d	{z31.d}, p0/z, [x9, z1.d, lsl #3]	//  (*)
/*   1292 */	sub	x5, x2, 704
/*   1292 */	ld1d	{z2.d}, p0/z, [x5, z11.d, lsl #3]	//  (*)
/*   1292 */	ld1d	{z30.d}, p0/z, [x9, z24.d, lsl #3]	//  (*)
/*   1292 */	sub	x5, x2, 768
/*   1292 */	ld1d	{z1.d}, p0/z, [x5, z11.d, lsl #3]	//  (*)
	.loc 39 1293 0
..LDL216:
/*   1293 */	sub	x1, x1, 512
	.loc 39 1291 0
..LDL217:
/*   1291 */	ld1sw	{z24.d}, p0/z, [x1, z11.d, lsl #2]	//  (*)
/*   1291 */	sub	x5, x1, 32
/*   1291 */	ld1sw	{z29.d}, p0/z, [x5, z11.d, lsl #2]	//  (*)
/*   1291 */	sub	x5, x1, 64
/*   1291 */	ld1sw	{z28.d}, p0/z, [x5, z11.d, lsl #2]	//  (*)
	.loc 39 1292 0
..LDL218:
/*   1292 */	fmad	z23.d, p0/m, z22.d, z21.d
	.loc 39 1291 0
..LDL219:
/*   1291 */	sub	x5, x1, 96
	.loc 39 1292 0
..LDL220:
/*   1292 */	movprfx	z22.d, p0/z, z20.d
/*   1292 */	fmla	z22.d, p0/m, z10.d, z27.d
	.loc 39 1291 0
..LDL221:
/*   1291 */	ld1sw	{z27.d}, p0/z, [x5, z11.d, lsl #2]	//  (*)
	.loc 39 1292 0
..LDL222:
/*   1292 */	fmad	z6.d, p0/m, z9.d, z19.d
	.loc 39 1291 0
..LDL223:
/*   1291 */	sub	x5, x1, 128
	.loc 39 1292 0
..LDL224:
/*   1292 */	fmad	z5.d, p0/m, z26.d, z18.d
	.loc 39 1291 0
..LDL225:
/*   1291 */	ld1sw	{z26.d}, p0/z, [x5, z11.d, lsl #2]	//  (*)
	.loc 39 1292 0
..LDL226:
/*   1292 */	fmad	z4.d, p0/m, z25.d, z17.d
	.loc 39 1291 0
..LDL227:
/*   1291 */	sub	x5, x1, 160
	.loc 39 1290 0
..LDL228:
/*   1290 */	sub	x0, x0, 128
	.loc 39 1291 0
..LDL229:
/*   1291 */	ld1sw	{z25.d}, p0/z, [x5, z11.d, lsl #2]	//  (*)
	.loc 39 1292 0
..LDL230:
/*   1292 */	fmad	z3.d, p0/m, z8.d, z16.d
	.loc 39 1293 0
..LDL231:
/*   1293 */	sub	x2, x2, 1024
/*   1293 */	sub	x3, x3, 1024
	.loc 39 1292 0
..LDL232:
/*   1292 */	fmad	z2.d, p0/m, z31.d, z7.d
/*   1292 */	fmad	z1.d, p0/m, z30.d, z0.d
	.loc 39 1293 0
..LDL233:
/*   1293 */	sub	w4, w4, 16
	.loc 39 1290 0
..LDL234:
/*   1290 */	cmp	w4, 16
/*   1290 */	bge	.L1374
	.loc 39 1291 0
..LDL235:
/*   1291 */	sub	x5, x1, 192
	.loc 39 1292 0
..LDL236:
/*   1292 */	ld1d	{z30.d}, p0/z, [x9, z29.d, lsl #3]	//  (*)
	.loc 39 1293 0
..LDL237:
/*   1293 */	sub	w4, w4, 8
	.loc 39 1291 0
..LDL238:
/*   1291 */	ld1sw	{z7.d}, p0/z, [x5, z11.d, lsl #2]	//  (*)
/*   1291 */	sub	x5, x1, 224
	.loc 39 1293 0
..LDL239:
/*   1293 */	sub	x1, x1, 256
	.loc 39 1291 0
..LDL240:
/*   1291 */	ld1sw	{z8.d}, p0/z, [x5, z11.d, lsl #2]	//  (*)
	.loc 39 1292 0
..LDL241:
/*   1292 */	sub	x5, x3, 64
	.loc 39 1290 0
..LDL242:
/*   1290 */	sub	x0, x0, 64
	.loc 39 1292 0
..LDL243:
/*   1292 */	ld1d	{z21.d}, p0/z, [x5, z11.d, lsl #3]	//  (*)
/*   1292 */	sub	x5, x3, 128
	.loc 39 1293 0
..LDL244:
/*   1293 */	cmp	w4, 0
	.loc 39 1292 0
..LDL245:
/*   1292 */	ld1d	{z29.d}, p0/z, [x9, z28.d, lsl #3]	//  (*)
/*   1292 */	ld1d	{z20.d}, p0/z, [x5, z11.d, lsl #3]	//  (*)
/*   1292 */	sub	x5, x2, 64
/*   1292 */	ld1d	{z28.d}, p0/z, [x9, z27.d, lsl #3]	//  (*)
/*   1292 */	ld1d	{z18.d}, p0/z, [x5, z11.d, lsl #3]	//  (*)
/*   1292 */	sub	x5, x2, 128
/*   1292 */	ld1d	{z27.d}, p0/z, [x9, z26.d, lsl #3]	//  (*)
/*   1292 */	ld1d	{z16.d}, p0/z, [x5, z11.d, lsl #3]	//  (*)
/*   1292 */	sub	x5, x2, 192
/*   1292 */	ld1d	{z26.d}, p0/z, [x9, z25.d, lsl #3]	//  (*)
/*   1292 */	ld1d	{z17.d}, p0/z, [x5, z11.d, lsl #3]	//  (*)
/*   1292 */	sub	x5, x2, 256
/*   1292 */	ld1d	{z31.d}, p0/z, [x9, z24.d, lsl #3]	//  (*)
/*   1292 */	ld1d	{z0.d}, p0/z, [x3, z11.d, lsl #3]	//  (*)
	.loc 39 1293 0
..LDL246:
/*   1293 */	sub	x3, x3, 512
	.loc 39 1292 0
..LDL247:
/*   1292 */	ld1d	{z19.d}, p0/z, [x2, z11.d, lsl #3]	//  (*)
	.loc 39 1293 0
..LDL248:
/*   1293 */	sub	x2, x2, 512
	.loc 39 1292 0
..LDL249:
/*   1292 */	ld1d	{z25.d}, p0/z, [x9, z7.d, lsl #3]	//  (*)
/*   1292 */	ld1d	{z24.d}, p0/z, [x9, z8.d, lsl #3]	//  (*)
/*   1292 */	ld1d	{z7.d}, p0/z, [x5, z11.d, lsl #3]	//  (*)
/*   1292 */	fmad	z21.d, p0/m, z30.d, z22.d
/*   1292 */	fmad	z20.d, p0/m, z29.d, z6.d
/*   1292 */	fmad	z18.d, p0/m, z27.d, z4.d
/*   1292 */	fmad	z16.d, p0/m, z26.d, z3.d
/*   1292 */	fmad	z0.d, p0/m, z31.d, z23.d
/*   1292 */	fmad	z19.d, p0/m, z28.d, z5.d
/*   1292 */	fmad	z17.d, p0/m, z25.d, z2.d
/*   1292 */	fmad	z7.d, p0/m, z24.d, z1.d
	.loc 39 1293 0
..LDL250:
/*   1293 */	blt	.L1716
.L1719:
	.p2align 5
.L1722:					// :entr:term:mod:swpl
	.loc 39 1291 0 is_stmt 1
..LDL251:
/*   1291 */	sub	x7, x1, 64
/*   1291 */	sub	x28, x1, 32
/*   1291 */	ld1sw	{z1.d}, p0/z, [x1, z11.d, lsl #2]	//  (*)
/*   1291 */	sub	x6, x1, 128
	.loc 39 1292 0
..LDL252:
/*   1292 */	sub	x5, x3, 128
	.loc 39 1291 0
..LDL253:
/*   1291 */	ld1sw	{z3.d}, p0/z, [x28, z11.d, lsl #2]	//  (*)
/*   1291 */	sub	x8, x1, 96
	.loc 39 1292 0
..LDL254:
/*   1292 */	sub	x28, x3, 64
	.loc 39 1291 0
..LDL255:
/*   1291 */	ld1sw	{z22.d}, p0/z, [x6, z11.d, lsl #2]	//  (*)
	.loc 39 1290 0 is_stmt 0
..LDL256:
/*   1290 */	sub	x0, x0, 64
	.loc 39 1292 0 is_stmt 1
..LDL257:
/*   1292 */	ld1d	{z6.d}, p0/z, [x28, z11.d, lsl #3]	//  (*)
	.loc 39 1293 0 is_stmt 0
..LDL258:
/*   1293 */	subs	w4, w4, 8
	.loc 39 1292 0
..LDL259:
/*   1292 */	ld1d	{z2.d}, p0/z, [x9, z1.d, lsl #3]	//  (*)
/*   1292 */	ld1d	{z1.d}, p0/z, [x3, z11.d, lsl #3]	//  (*)
	.loc 39 1293 0
..LDL260:
/*   1293 */	sub	x3, x3, 512
	.loc 39 1292 0
..LDL261:
/*   1292 */	ld1d	{z5.d}, p0/z, [x9, z3.d, lsl #3]	//  (*)
/*   1292 */	ld1d	{z3.d}, p0/z, [x5, z11.d, lsl #3]	//  (*)
/*   1292 */	sub	x5, x2, 64
/*   1292 */	ld1d	{z22.d}, p0/z, [x9, z22.d, lsl #3]	//  (*)
/*   1292 */	fmla	z0.d, p0/m, z1.d, z2.d
	.loc 39 1291 0 is_stmt 1
..LDL262:
/*   1291 */	ld1sw	{z1.d}, p0/z, [x7, z11.d, lsl #2]	//  (*)
	.loc 39 1292 0
..LDL263:
/*   1292 */	fmla	z21.d, p0/m, z6.d, z5.d
	.loc 39 1291 0
..LDL264:
/*   1291 */	ld1sw	{z2.d}, p0/z, [x8, z11.d, lsl #2]	//  (*)
	.loc 39 1292 0
..LDL265:
/*   1292 */	ld1d	{z1.d}, p0/z, [x9, z1.d, lsl #3]	//  (*)
/*   1292 */	ld1d	{z4.d}, p0/z, [x9, z2.d, lsl #3]	//  (*)
/*   1292 */	ld1d	{z2.d}, p0/z, [x2, z11.d, lsl #3]	//  (*)
/*   1292 */	fmla	z20.d, p0/m, z3.d, z1.d
/*   1292 */	ld1d	{z1.d}, p0/z, [x5, z11.d, lsl #3]	//  (*)
	.loc 39 1291 0
..LDL266:
/*   1291 */	sub	x5, x1, 160
	.loc 39 1292 0
..LDL267:
/*   1292 */	fmla	z19.d, p0/m, z2.d, z4.d
/*   1292 */	fmla	z18.d, p0/m, z1.d, z22.d
	.loc 39 1291 0
..LDL268:
/*   1291 */	ld1sw	{z1.d}, p0/z, [x5, z11.d, lsl #2]	//  (*)
	.loc 39 1292 0
..LDL269:
/*   1292 */	sub	x5, x2, 128
/*   1292 */	ld1d	{z2.d}, p0/z, [x9, z1.d, lsl #3]	//  (*)
/*   1292 */	ld1d	{z1.d}, p0/z, [x5, z11.d, lsl #3]	//  (*)
	.loc 39 1291 0
..LDL270:
/*   1291 */	sub	x5, x1, 192
	.loc 39 1292 0
..LDL271:
/*   1292 */	fmla	z16.d, p0/m, z1.d, z2.d
	.loc 39 1291 0
..LDL272:
/*   1291 */	ld1sw	{z1.d}, p0/z, [x5, z11.d, lsl #2]	//  (*)
	.loc 39 1292 0
..LDL273:
/*   1292 */	sub	x5, x2, 192
/*   1292 */	ld1d	{z2.d}, p0/z, [x5, z11.d, lsl #3]	//  (*)
	.loc 39 1291 0
..LDL274:
/*   1291 */	sub	x5, x1, 224
	.loc 39 1293 0 is_stmt 0
..LDL275:
/*   1293 */	sub	x1, x1, 256
	.loc 39 1292 0 is_stmt 1
..LDL276:
/*   1292 */	ld1d	{z3.d}, p0/z, [x9, z1.d, lsl #3]	//  (*)
	.loc 39 1291 0
..LDL277:
/*   1291 */	ld1sw	{z1.d}, p0/z, [x5, z11.d, lsl #2]	//  (*)
	.loc 39 1292 0
..LDL278:
/*   1292 */	sub	x5, x2, 256
	.loc 39 1293 0 is_stmt 0
..LDL279:
/*   1293 */	sub	x2, x2, 512
	.loc 39 1292 0
..LDL280:
/*   1292 */	fmla	z17.d, p0/m, z2.d, z3.d
/*   1292 */	ld1d	{z2.d}, p0/z, [x9, z1.d, lsl #3]	//  (*)
/*   1292 */	ld1d	{z1.d}, p0/z, [x5, z11.d, lsl #3]	//  (*)
/*   1292 */	fmla	z7.d, p0/m, z1.d, z2.d
	.loc 39 1293 0
..LDL281:
/*   1293 */	bpl	.L1722
.L1716:
	.loc 39 1292 0
..LDL282:
/*   1292 */	fadd	z4.d, z7.d, z17.d
/*   1292 */	fadd	z3.d, z16.d, z18.d
/*   1292 */	fadd	z2.d, z19.d, z20.d
/*   1292 */	fadd	z1.d, z0.d, z21.d
/*   1292 */	fadd	z0.d, z3.d, z4.d
/*   1292 */	fadd	z1.d, z1.d, z2.d
/*   1292 */	fadd	z0.d, z1.d, z0.d
.L1385:
	.loc 39 1290 0 is_stmt 1
..LDL283:
/*   1290 */	adds	w1, w4, 7
/*   1290 */	bmi	.L1376
	.loc 39 1292 0 is_stmt 0
..LDL284:
/*   1292 */	ldr	x4, [x20, 24]	//  "xv"
	.p2align 5
.L1397:					// :entr:term:mod
	.loc 39 1291 0 is_stmt 1
..LDL285:
/*   1291 */	index	z1.d, 0, -1
/*   1291 */	mov	x2, x0
	.loc 39 1290 0 is_stmt 0
..LDL286:
/*   1290 */	sub	x0, x0, 8
	.loc 39 1291 0
..LDL287:
/*   1291 */	add	x3, x11, x2, lsl #2
	.loc 39 1293 0
..LDL288:
/*   1293 */	subs	w1, w1, 1
	.loc 39 1292 0 is_stmt 1
..LDL289:
/*   1292 */	add	x2, x10, x2, lsl #3
	.loc 39 1291 0
..LDL290:
/*   1291 */	ld1sw	{z2.d}, p0/z, [x3, z1.d, lsl #2]	//  (*)
	.loc 39 1292 0
..LDL291:
/*   1292 */	ld1d	{z1.d}, p0/z, [x2, z1.d, lsl #3]	//  (*)
/*   1292 */	ld1d	{z2.d}, p0/z, [x4, z2.d, lsl #3]	//  (*)
/*   1292 */	fmla	z0.d, p0/m, z1.d, z2.d
	.loc 39 1290 0 is_stmt 0
..LDL292:
/*   1290 */	bpl	.L1397
.L1376:
	.loc 39 1290 0 is_stmt 1
..LDL293:
/*   1290 */	sbfiz	x0, x14, 3, 32
/*   1290 */	sub	x0, x24, x0
/*   1290 */	add	x0, x0, x13
/*   1290 */	cbz	w16, .L1378
/*   1290 */	whilelt	p1.d, wzr, w16
	.loc 39 1292 0
..LDL294:
/*   1292 */	ldr	x2, [x20, 24]	//  "xv"
	.loc 39 1291 0
..LDL295:
/*   1291 */	add	x1, x11, x0, lsl #2
	.loc 39 1292 0
..LDL296:
/*   1292 */	add	x0, x10, x0, lsl #3
	.loc 39 1291 0
..LDL297:
/*   1291 */	ld1sw	{z2.d}, p1/z, [x1, z11.d, lsl #2]	//  (*)
	.loc 39 1292 0
..LDL298:
/*   1292 */	ld1d	{z1.d}, p1/z, [x0, z11.d, lsl #3]	//  (*)
/*   1292 */	ld1d	{z2.d}, p1/z, [x2, z2.d, lsl #3]	//  (*)
/*   1292 */	fmla	z0.d, p1/m, z2.d, z1.d
.L1378:
/*   1292 */	movprfx	z1, z0
/*   1292 */	ext	z1.b, z1.b, z0.b, 32
/*   1292 */	fadd	z0.d, z1.d, z0.d
/*   1292 */	movprfx	z1, z0
/*   1292 */	ext	z1.b, z1.b, z0.b, 16
/*   1292 */	fadd	z1.d, z0.d, z1.d
/*   1292 */	movprfx	z0, z1
/*   1292 */	ext	z0.b, z0.b, z1.b, 8
/*   1292 */	fadd	z1.d, z1.d, z0.d
.L1379:					// :term
	.loc 39 1294 0
..LDL299:
/*   1294 */	ldr	d2, [x18, x12, lsl #3]	//  (*)
	.loc 39 1295 0
..LDL300:
/*   1295 */	frecpe	d5, d12
	.loc 39 1298 0
..LDL301:
/*   1298 */	sub	w17, w17, 1
/*   1298 */	sub	x15, x15, 1
	.loc 39 1295 0
..LDL302:
/*   1295 */	ldr	d6, [x21, x12, lsl #3]	//  (*)
	.loc 39 1298 0
..LDL303:
/*   1298 */	subs	w30, w30, 1
	.loc 39 1295 0
..LDL304:
/*   1295 */	fmsub	d0, d12, d5, d13
	.loc 39 1294 0
..LDL305:
/*   1294 */	fmsub	d3, d2, d12, d1
	.loc 39 1295 0
..LDL306:
/*   1295 */	fmadd	d2, d0, d0, d0
/*   1295 */	fmul	d4, d0, d0
/*   1295 */	fsub	d1, d6, d3
/*   1295 */	fmadd	d4, d4, d4, d0
/*   1295 */	fmul	d0, d1, d5
/*   1295 */	fmadd	d1, d2, d0, d0
/*   1295 */	fmadd	d1, d4, d1, d0
	.loc 39 1296 0
..LDL307:
/*   1296 */	fmadd	d0, d1, d12, d3
	.loc 39 1295 0
..LDL308:
/*   1295 */	str	d1, [x18, x12, lsl #3]	//  (*)
	.loc 39 1297 0
..LDL309:
/*   1297 */	str	d0, [x22, x12, lsl #3]	//  (*)
	.loc 39 1298 0 is_stmt 0
..LDL310:
/*   1298 */	bne	.L1371
	.loc 39 1298 0 is_stmt 1
..LDL311:
/*   1298 */	b	.L1369
.L1382:
/*   1298 */	add	x20, x19, 8
/*   1298 */	ldr	x0, [x20, 24]
/*   1298 */	bl	__mpc_obar
/*   1298 */	ldr	x0, [x20, 24]
/*   1298 */	bl	__mpc_obar
/*    ??? */	ldp	x19, x20, [x29, -16]	//  (*)
	.cfi_restore 19
	.cfi_restore 20
/*    ??? */	ldp	x21, x22, [x29, -32]	//  (*)
	.cfi_restore 21
	.cfi_restore 22
/*    ??? */	ldp	x23, x24, [x29, -48]	//  (*)
	.cfi_restore 23
	.cfi_restore 24
/*    ??? */	ldp	x25, x26, [x29, -64]	//  (*)
	.cfi_restore 25
	.cfi_restore 26
/*    ??? */	ldp	x27, x28, [x29, -80]	//  (*)
	.cfi_restore 27
	.cfi_restore 28
/*    ??? */	ldp	d8, d9, [x29, -96]	//  (*)
	.cfi_restore 72
	.cfi_restore 73
/*    ??? */	ldp	d10, d11, [x29, -112]	//  (*)
	.cfi_restore 74
	.cfi_restore 75
/*    ??? */	ldp	d12, d13, [x29, -128]	//  (*)
	.cfi_restore 76
	.cfi_restore 77
/*    ??? */	add	sp, x29, 0
/*    ??? */	ldp	x29, x30, [sp], 16	//  (*)
	.cfi_restore 29
	.cfi_restore 30
	.cfi_def_cfa_offset 0
/*   1298 */	ret	
..D3.pchi:
	.cfi_endproc
.LFE2:
	.size	_Z22ComputeFusedSYMGS_SPMVRK19SparseMatrix_STRUCTRK13Vector_STRUCTRS2_S5_._OMP_2, .-_Z22ComputeFusedSYMGS_SPMVRK19SparseMatrix_STRUCTRK13Vector_STRUCTRS2_S5_._OMP_2
	.ident	"$Compiler: Fujitsu C/C++ Compiler 4.7.0 (Nov 10 2021 09:37:15) ../src/ComputeSYMGS.cpp _Z16ComputeSYMGS_TDGRK19SparseMatrix_STRUCTRK13Vector_STRUCTRS2_R9TraceData $"
	.text
	.align	2
	.global	_Z16ComputeSYMGS_TDGRK19SparseMatrix_STRUCTRK13Vector_STRUCTRS2_R9TraceData
	.type	_Z16ComputeSYMGS_TDGRK19SparseMatrix_STRUCTRK13Vector_STRUCTRS2_R9TraceData, %function
_Z16ComputeSYMGS_TDGRK19SparseMatrix_STRUCTRK13Vector_STRUCTRS2_R9TraceData:
	.loc 39 1304 0
..LDL312:
.LFB3:
	.cfi_startproc
/*    ??? */	str	x30, [sp, -16]!	//  (*)
	.cfi_def_cfa_offset 16
	.cfi_offset 30, -16
/*   1370 */	mov	x3, x1
/*    ??? */	sub	sp, sp, 48
	.cfi_def_cfa_offset 64
/*   1304 */	add	x1, sp, 16
/*   1304 */	str	x0, [x1, 24]
	.loc 39 1306 0
..LDL313:
/*   1306 */	ldr	w4, [x2]	//  (*)
/*   1306 */	ldr	w5, [x0, 36]	//  (*)
/*   1306 */	cmp	w4, w5
/*   1306 */	beq	.L424
/*   1306 */	adrp	x0, .LR.3
/*   1306 */	adrp	x1, .LR.2
/*   1306 */	mov	w2, 1306
/*   1306 */	add	x0, x0, :lo12:.LR.3
/*   1306 */	add	x1, x1, :lo12:.LR.2
/*   1306 */	adrp	x3, .LR.5
/*   1306 */	add	x3, x3, :lo12:.LR.5
/*   1306 */	bl	__assert_fail
.L424:
	.loc 39 1312 0
..LDL314:
/*   1312 */	ldr	x3, [x3, 8]	//  (*)
/*   1312 */	str	x3, [x1, 16]
	.loc 39 1313 0
..LDL315:
/*   1313 */	ldr	x2, [x2, 8]	//  (*)
/*   1313 */	str	x2, [x1, 8]
	.loc 39 1314 0
..LDL316:
/*   1314 */	ldr	x0, [x0, 80]	//  (*)
/*   1314 */	str	x0, [x1]
	.loc 39 1316 0 is_stmt 0
..LDL317:
/*   1316 */	mov	x2, 0
/*   1316 */	adrp	x0, _Z16ComputeSYMGS_TDGRK19SparseMatrix_STRUCTRK13Vector_STRUCTRS2_R9TraceData._OMP_3
/*   1316 */	add	x0, x0, :lo12:_Z16ComputeSYMGS_TDGRK19SparseMatrix_STRUCTRK13Vector_STRUCTRS2_R9TraceData._OMP_3
/*   1316 */	bl	__mpc_opar
	.loc 39 1373 0 is_stmt 1
..LDL318:
/*   1373 */	mov	w0, 0
	.loc 39 1374 0
..LDL319:
/*    ??? */	add	sp, sp, 48
	.cfi_def_cfa_offset 16
/*    ??? */	ldr	x30, [sp], 16	//  (*)
	.cfi_restore 30
	.cfi_def_cfa_offset 0
/*   1374 */	ret	
..D4.pchi:
	.cfi_endproc
.LFE3:
	.size	_Z16ComputeSYMGS_TDGRK19SparseMatrix_STRUCTRK13Vector_STRUCTRS2_R9TraceData, .-_Z16ComputeSYMGS_TDGRK19SparseMatrix_STRUCTRK13Vector_STRUCTRS2_R9TraceData
	.ident	"$Compiler: Fujitsu C/C++ Compiler 4.7.0 (Nov 10 2021 09:37:15) ../src/ComputeSYMGS.cpp _Z16ComputeSYMGS_TDGRK19SparseMatrix_STRUCTRK13Vector_STRUCTRS2_R9TraceData._OMP_3 $"
	.text
	.align	2
	.type	_Z16ComputeSYMGS_TDGRK19SparseMatrix_STRUCTRK13Vector_STRUCTRS2_R9TraceData._OMP_3, %function
_Z16ComputeSYMGS_TDGRK19SparseMatrix_STRUCTRK13Vector_STRUCTRS2_R9TraceData._OMP_3:
	.loc 39 1316 0
..LDL320:
.LFB4:
	.cfi_startproc
/*   1302 */	sub	sp, sp, 144
	.cfi_def_cfa_offset 144
/*    ??? */	stp	x29, x30, [sp, 128]	//  (*)
	.cfi_offset 29, -16
	.cfi_offset 30, -8
/*    ??? */	stp	x19, x20, [sp, 112]	//  (*)
	.cfi_offset 19, -32
	.cfi_offset 20, -24
/*   1302 */	mov	x19, x0
/*    ??? */	stp	x21, x22, [sp, 96]	//  (*)
	.cfi_offset 21, -48
	.cfi_offset 22, -40
/*    ??? */	stp	x23, x24, [sp, 80]	//  (*)
	.cfi_offset 23, -64
	.cfi_offset 24, -56
/*    ??? */	str	x25, [sp, 72]	//  (*)
	.cfi_offset 25, -72
/*    ??? */	stp	d8, d9, [sp, 56]	//  (*)
	.cfi_offset 72, -88
	.cfi_offset 73, -80
/*    ??? */	stp	d10, d11, [sp, 40]	//  (*)
	.cfi_offset 74, -104
	.cfi_offset 75, -96
/*    ??? */	stp	d12, d13, [sp, 24]	//  (*)
	.cfi_offset 76, -120
	.cfi_offset 77, -112
/*    ??? */	stp	d14, d15, [sp, 8]	//  (*)
	.cfi_offset 78, -136
	.cfi_offset 79, -128
/*    ??? */	sub	sp, sp, 48
	.cfi_def_cfa_offset 192
/*   1302 */	str	x1, [sp, 32]
/*   1302 */	str	x2, [sp, 24]
/*   1302 */	str	x3, [sp, 16]
/*   1302 */	str	x4, [sp, 8]
	.loc 39 1323 0
..LDL321:
/*   1323 */	mov	w20, 0
	.loc 37 641 0
..LDL322:
/*    641 */	ldr	x1, [x19, 24]	//  "A"
/*    641 */	ldp	x1, x0, [x1, 280]	//  (*)
/*    641 */	sub	x0, x0, x1
/*    641 */	mov	x1, 24
/*    641 */	sdiv	x0, x0, x1
	.loc 39 1323 0
..LDL323:
/*   1323 */	cbz	x0, .L1425
/*   1323 */	add	x22, sp, 32
	.loc 37 641 0 is_stmt 0
..LDL324:
/*    641 */	mov	x21, 24
	.loc 39 1341 0
..LDL325:
/*   1341 */	fmov	d12, 1.000000e+00
.L1404:					// :entr
	.loc 39 1325 0 is_stmt 0
..LDL326:
	.loc 39 1325 0 is_stmt 0
..LDL327:
	.loc 39 1328 0 is_stmt 1
..LDL328:
/*   1328 */	sxtw	x2, w20
	.loc 37 1506 0
..LDL329:
/*   1506 */	ldr	x1, [x19, 24]	//  "A"
/*   1506 */	add	x0, x2, x2
/*   1506 */	add	x0, x0, x2
/*   1506 */	lsl	x7, x0, 3
	.loc 37 641 0
..LDL330:
/*    641 */	add	x0, x7, 8
	.loc 37 1506 0
..LDL331:
/*   1506 */	ldr	x1, [x1, 280]	//  (*)
	.loc 37 641 0
..LDL332:
/*    641 */	ldr	x0, [x1, x0]	//  (*)
/*    641 */	ldr	x1, [x1, x7]	//  (*)
/*    641 */	sub	x0, x0, x1
/*    641 */	asr	x1, x0, 1
/*    641 */	add	x0, x0, x1, lsr #62
/*    641 */	asr	x0, x0, 2
/*   1328 */	cbz	x0, .L1423
	.loc 39 1328 0
..LDL333:
/*   1328 */	ldr	x1, [x22]
/*   1328 */	sdiv	x2, x0, x1
/*   1328 */	msub	x0, x1, x2, x0
/*   1328 */	cbnz	x0, .L1407
/*   1328 */	ldr	x0, [x22, -8]
/*   1328 */	mul	x1, x0, x2
/*   1328 */	b	.L1410
.L1407:
/*   1328 */	ldr	x1, [x22, -8]
/*   1328 */	cmp	x1, x0
/*   1328 */	blt	.L1409
/*   1328 */	madd	x1, x1, x2, x0
/*   1328 */	b	.L1410
.L1409:
/*   1328 */	add	x2, x2, 1
/*   1328 */	mul	x1, x1, x2
.L1410:
/*   1328 */	sub	x0, x2, 1
/*   1328 */	add	x0, x0, x1
/*   1328 */	cbz	x2, .L1423
	.loc 39 1337 0 is_stmt 0
..LDL334:
/*   1337 */	ptrue	p0.d, ALL
	.loc 39 1334 0
..LDL335:
/*   1334 */	ldr	x11, [x19, 16]	//  "rv"
	.loc 39 1338 0
..LDL336:
/*   1338 */	fmov	z27.d, 0.000000e+00
	.loc 39 1340 0
..LDL337:
/*   1340 */	ldr	x9, [x19, 8]	//  "xv"
	.loc 39 1329 0
..LDL338:
/*   1329 */	sxtw	x8, w1
.L1412:					// :entr
	.loc 37 1506 0 is_stmt 1
..LDL339:
/*   1506 */	ldr	x4, [x19, 24]	//  "A"
	.loc 39 1333 0
..LDL340:
/*   1333 */	ldr	x2, [x19]	//  "matrixDiagonal"
	.loc 37 1506 0
..LDL341:
/*   1506 */	ldr	x5, [x4, 280]	//  (*)
	.loc 39 1332 0
..LDL342:
/*   1332 */	ldr	x1, [x4, 48]	//  (*)
	.loc 39 1330 0
..LDL343:
/*   1330 */	ldp	x4, x3, [x4, 64]	//  (*)
	.loc 37 1506 0
..LDL344:
/*   1506 */	ldr	x5, [x5, x7]	//  (*)
	.loc 39 1329 0
..LDL345:
/*   1329 */	ldrsw	x13, [x5, x8, lsl #2]	//  (*)
	.loc 39 1332 0
..LDL346:
/*   1332 */	ldrb	w1, [x1, x13]	//  (*)
	.loc 39 1333 0
..LDL347:
/*   1333 */	ldr	x2, [x2, x13, lsl #3]	//  (*)
	.loc 39 1330 0
..LDL348:
/*   1330 */	ldr	x6, [x3, x13, lsl #3]	//  (*)
	.loc 39 1334 0
..LDL349:
/*   1334 */	ldr	d26, [x11, x13, lsl #3]	//  (*)
	.loc 39 1331 0
..LDL350:
/*   1331 */	ldr	x10, [x4, x13, lsl #3]	//  (*)
	.loc 39 1332 0
..LDL351:
/*   1332 */	uxtb	w3, w1
	.loc 39 1333 0
..LDL352:
/*   1333 */	ldr	d28, [x2]	//  (*)
	.loc 39 1336 0
..LDL353:
/*   1336 */	uxtb	w1, w1
/*   1336 */	cmp	w3, 0
/*   1336 */	csel	w2, w3, wzr, ge
/*   1336 */	cbz	w1, .L1420
/*   1336 */	asr	w1, w2, 2
/*   1336 */	mov	x4, 0
/*   1336 */	add	w1, w2, w1, lsr #29
/*   1336 */	asr	w5, w1, 3
/*   1336 */	sub	w14, w2, w5, lsl #3
/*   1336 */	cbz	w5, .L1417
/*   1336 */	sub	w2, w5, 8
/*   1336 */	mov	z2.d, z27.d
/*   1336 */	cmp	w2, 0
/*   1336 */	blt	.L1453
	.loc 39 1338 0 is_stmt 0
..LDL354:
/*   1338 */	ldr	x12, [x19, 8]	//  "xv"
	.loc 39 1337 0
..LDL355:
/*   1337 */	add	x3, x10, 224
	.loc 39 1338 0
..LDL356:
/*   1338 */	mov	z19.d, z27.d
/*   1338 */	mov	z18.d, z27.d
/*   1338 */	add	x1, x6, 448
/*   1338 */	mov	z16.d, z27.d
/*   1338 */	mov	z6.d, z27.d
	.loc 39 1336 0
..LDL357:
/*   1336 */	cmp	w2, 16
	.loc 39 1338 0
..LDL358:
/*   1338 */	mov	z5.d, z27.d
/*   1338 */	mov	z3.d, z27.d
/*   1338 */	mov	z2.d, z27.d
/*   1338 */	mov	z0.d, z27.d
	.loc 39 1336 0
..LDL359:
/*   1336 */	blt	.L1730
	.loc 39 1339 0
..LDL360:
/*   1339 */	mov	z1.d, z0.d
	.loc 39 1337 0
..LDL361:
/*   1337 */	ld1sw	{z31.d}, p0/z, [x3, -7, mul vl]	//  (*)
	.loc 39 1339 0
..LDL362:
/*   1339 */	mov	z22.d, z16.d
/*   1339 */	mov	z4.d, z2.d
/*   1339 */	mov	z7.d, z3.d
	.loc 39 1337 0
..LDL363:
/*   1337 */	ld1sw	{z30.d}, p0/z, [x3, -6, mul vl]	//  (*)
/*   1337 */	ld1sw	{z29.d}, p0/z, [x3, -5, mul vl]	//  (*)
	.loc 39 1339 0
..LDL364:
/*   1339 */	mov	z17.d, z5.d
/*   1339 */	mov	z20.d, z6.d
	.loc 39 1337 0
..LDL365:
/*   1337 */	ld1sw	{z8.d}, p0/z, [x3, -4, mul vl]	//  (*)
/*   1337 */	ld1sw	{z9.d}, p0/z, [x3, -3, mul vl]	//  (*)
	.loc 39 1339 0
..LDL366:
/*   1339 */	mov	z24.d, z18.d
/*   1339 */	mov	z25.d, z19.d
	.loc 39 1337 0
..LDL367:
/*   1337 */	ld1sw	{z10.d}, p0/z, [x3, -2, mul vl]	//  (*)
/*   1337 */	ld1sw	{z16.d}, p0/z, [x3, -1, mul vl]	//  (*)
	.p2align 5
.L1415:					// :entr:term:body:swpl
/*   1337 */	ld1sw	{z0.d}, p0/z, [x3, 0, mul vl]	//  (*)
	.loc 39 1338 0
..LDL368:
/*   1338 */	ld1d	{z31.d}, p0/z, [x12, z31.d, lsl #3]	//  (*)
/*   1338 */	ld1d	{z11.d}, p0/z, [x12, z30.d, lsl #3]	//  (*)
/*   1338 */	ld1d	{z23.d}, p0/z, [x12, z29.d, lsl #3]	//  (*)
/*   1338 */	ld1d	{z21.d}, p0/z, [x12, z8.d, lsl #3]	//  (*)
/*   1338 */	ld1d	{z18.d}, p0/z, [x12, z9.d, lsl #3]	//  (*)
/*   1338 */	ld1d	{z6.d}, p0/z, [x12, z10.d, lsl #3]	//  (*)
/*   1338 */	ld1d	{z3.d}, p0/z, [x12, z16.d, lsl #3]	//  (*)
/*   1338 */	ld1d	{z0.d}, p0/z, [x12, z0.d, lsl #3]	//  (*)
/*   1338 */	ld1d	{z14.d}, p0/z, [x1, -7, mul vl]	//  (*)
/*   1338 */	ld1d	{z13.d}, p0/z, [x1, -6, mul vl]	//  (*)
/*   1338 */	ld1d	{z9.d}, p0/z, [x1, -5, mul vl]	//  (*)
/*   1338 */	ld1d	{z10.d}, p0/z, [x1, -4, mul vl]	//  (*)
/*   1338 */	ld1d	{z19.d}, p0/z, [x1, -3, mul vl]	//  (*)
/*   1338 */	ld1d	{z16.d}, p0/z, [x1, -2, mul vl]	//  (*)
/*   1338 */	ld1d	{z5.d}, p0/z, [x1, -1, mul vl]	//  (*)
/*   1338 */	ld1d	{z2.d}, p0/z, [x1, 0, mul vl]	//  (*)
	.loc 39 1339 0
..LDL369:
/*   1339 */	add	x16, x3, 256
	.loc 39 1337 0
..LDL370:
/*   1337 */	ld1sw	{z29.d}, p0/z, [x3, 1, mul vl]	//  (*)
/*   1337 */	ld1sw	{z8.d}, p0/z, [x3, 2, mul vl]	//  (*)
/*   1337 */	ld1sw	{z30.d}, p0/z, [x3, 3, mul vl]	//  (*)
	.loc 39 1338 0
..LDL371:
/*   1338 */	fmls	z25.d, p0/m, z14.d, z31.d
/*   1338 */	fmls	z24.d, p0/m, z13.d, z11.d
	.loc 39 1337 0
..LDL372:
/*   1337 */	ld1sw	{z31.d}, p0/z, [x3, 4, mul vl]	//  (*)
	.loc 39 1338 0
..LDL373:
/*   1338 */	fmls	z22.d, p0/m, z9.d, z23.d
	.loc 39 1337 0
..LDL374:
/*   1337 */	ld1sw	{z9.d}, p0/z, [x3, 5, mul vl]	//  (*)
	.loc 39 1338 0
..LDL375:
/*   1338 */	fmls	z20.d, p0/m, z10.d, z21.d
	.loc 39 1337 0
..LDL376:
/*   1337 */	ld1sw	{z10.d}, p0/z, [x3, 6, mul vl]	//  (*)
	.loc 39 1338 0
..LDL377:
/*   1338 */	fmsb	z19.d, p0/m, z18.d, z17.d
/*   1338 */	fmsb	z16.d, p0/m, z6.d, z7.d
	.loc 39 1337 0
..LDL378:
/*   1337 */	ld1sw	{z7.d}, p0/z, [x3, 7, mul vl]	//  (*)
	.loc 39 1339 0
..LDL379:
/*   1339 */	add	x15, x1, 512
	.loc 39 1338 0
..LDL380:
/*   1338 */	fmls	z4.d, p0/m, z5.d, z3.d
/*   1338 */	fmls	z1.d, p0/m, z2.d, z0.d
	.loc 39 1337 0
..LDL381:
/*   1337 */	ld1sw	{z0.d}, p0/z, [x16, 0, mul vl]	//  (*)
	.loc 39 1338 0
..LDL382:
/*   1338 */	ld1d	{z11.d}, p0/z, [x12, z29.d, lsl #3]	//  (*)
/*   1338 */	ld1d	{z8.d}, p0/z, [x12, z8.d, lsl #3]	//  (*)
/*   1338 */	ld1d	{z23.d}, p0/z, [x12, z30.d, lsl #3]	//  (*)
/*   1338 */	ld1d	{z21.d}, p0/z, [x12, z31.d, lsl #3]	//  (*)
/*   1338 */	ld1d	{z18.d}, p0/z, [x12, z9.d, lsl #3]	//  (*)
/*   1338 */	ld1d	{z6.d}, p0/z, [x12, z10.d, lsl #3]	//  (*)
/*   1338 */	ld1d	{z3.d}, p0/z, [x12, z7.d, lsl #3]	//  (*)
/*   1338 */	ld1d	{z0.d}, p0/z, [x12, z0.d, lsl #3]	//  (*)
/*   1338 */	ld1d	{z14.d}, p0/z, [x1, 1, mul vl]	//  (*)
/*   1338 */	ld1d	{z13.d}, p0/z, [x1, 2, mul vl]	//  (*)
/*   1338 */	ld1d	{z9.d}, p0/z, [x1, 3, mul vl]	//  (*)
/*   1338 */	ld1d	{z10.d}, p0/z, [x1, 4, mul vl]	//  (*)
/*   1338 */	ld1d	{z17.d}, p0/z, [x1, 5, mul vl]	//  (*)
/*   1338 */	ld1d	{z7.d}, p0/z, [x1, 6, mul vl]	//  (*)
/*   1338 */	ld1d	{z5.d}, p0/z, [x1, 7, mul vl]	//  (*)
/*   1338 */	ld1d	{z2.d}, p0/z, [x15, 0, mul vl]	//  (*)
	.loc 39 1339 0
..LDL383:
/*   1339 */	add	x3, x16, 256
	.loc 39 1337 0
..LDL384:
/*   1337 */	ld1sw	{z31.d}, p0/z, [x16, 1, mul vl]	//  (*)
/*   1337 */	ld1sw	{z30.d}, p0/z, [x16, 2, mul vl]	//  (*)
/*   1337 */	ld1sw	{z29.d}, p0/z, [x16, 3, mul vl]	//  (*)
	.loc 39 1338 0
..LDL385:
/*   1338 */	fmls	z25.d, p0/m, z14.d, z11.d
/*   1338 */	fmls	z24.d, p0/m, z13.d, z8.d
	.loc 39 1337 0
..LDL386:
/*   1337 */	ld1sw	{z8.d}, p0/z, [x16, 4, mul vl]	//  (*)
	.loc 39 1338 0
..LDL387:
/*   1338 */	fmls	z22.d, p0/m, z9.d, z23.d
	.loc 39 1337 0
..LDL388:
/*   1337 */	ld1sw	{z9.d}, p0/z, [x16, 5, mul vl]	//  (*)
	.loc 39 1338 0
..LDL389:
/*   1338 */	fmls	z20.d, p0/m, z10.d, z21.d
	.loc 39 1337 0
..LDL390:
/*   1337 */	ld1sw	{z10.d}, p0/z, [x16, 6, mul vl]	//  (*)
	.loc 39 1338 0
..LDL391:
/*   1338 */	fmsb	z17.d, p0/m, z18.d, z19.d
/*   1338 */	fmsb	z7.d, p0/m, z6.d, z16.d
	.loc 39 1337 0
..LDL392:
/*   1337 */	ld1sw	{z16.d}, p0/z, [x16, 7, mul vl]	//  (*)
/*   1337 */	add	x4, x4, 128
	.loc 39 1339 0
..LDL393:
/*   1339 */	add	x1, x15, 512
	.loc 39 1338 0
..LDL394:
/*   1338 */	fmls	z4.d, p0/m, z5.d, z3.d
/*   1338 */	fmls	z1.d, p0/m, z2.d, z0.d
	.loc 39 1339 0
..LDL395:
/*   1339 */	sub	w2, w2, 16
	.loc 39 1337 0
..LDL396:
/*   1337 */	cmp	w2, 16
/*   1337 */	bge	.L1415
/*   1337 */	ld1sw	{z0.d}, p0/z, [x3, 0, mul vl]	//  (*)
	.loc 39 1338 0
..LDL397:
/*   1338 */	ld1d	{z11.d}, p0/z, [x12, z31.d, lsl #3]	//  (*)
	.loc 39 1339 0
..LDL398:
/*   1339 */	add	x3, x3, 256
/*   1339 */	sub	w2, w2, 8
	.loc 39 1338 0
..LDL399:
/*   1338 */	ld1d	{z13.d}, p0/z, [x12, z30.d, lsl #3]	//  (*)
/*   1338 */	ld1d	{z19.d}, p0/z, [x1, -7, mul vl]	//  (*)
	.loc 39 1337 0
..LDL400:
/*   1337 */	add	x4, x4, 64
	.loc 39 1339 0
..LDL401:
/*   1339 */	cmp	w2, 0
	.loc 39 1338 0
..LDL402:
/*   1338 */	ld1d	{z14.d}, p0/z, [x12, z29.d, lsl #3]	//  (*)
/*   1338 */	ld1d	{z18.d}, p0/z, [x1, -6, mul vl]	//  (*)
/*   1338 */	ld1d	{z23.d}, p0/z, [x12, z16.d, lsl #3]	//  (*)
/*   1338 */	ld1d	{z16.d}, p0/z, [x1, -5, mul vl]	//  (*)
/*   1338 */	ld1d	{z31.d}, p0/z, [x12, z8.d, lsl #3]	//  (*)
/*   1338 */	ld1d	{z6.d}, p0/z, [x1, -4, mul vl]	//  (*)
/*   1338 */	ld1d	{z30.d}, p0/z, [x12, z9.d, lsl #3]	//  (*)
/*   1338 */	ld1d	{z5.d}, p0/z, [x1, -3, mul vl]	//  (*)
/*   1338 */	ld1d	{z29.d}, p0/z, [x12, z10.d, lsl #3]	//  (*)
/*   1338 */	ld1d	{z3.d}, p0/z, [x1, -2, mul vl]	//  (*)
/*   1338 */	ld1d	{z2.d}, p0/z, [x1, -1, mul vl]	//  (*)
/*   1338 */	ld1d	{z21.d}, p0/z, [x12, z0.d, lsl #3]	//  (*)
/*   1338 */	ld1d	{z0.d}, p0/z, [x1, 0, mul vl]	//  (*)
	.loc 39 1339 0
..LDL403:
/*   1339 */	add	x1, x1, 512
	.loc 39 1338 0
..LDL404:
/*   1338 */	fmsb	z19.d, p0/m, z11.d, z25.d
/*   1338 */	fmsb	z18.d, p0/m, z13.d, z24.d
/*   1338 */	fmsb	z16.d, p0/m, z14.d, z22.d
/*   1338 */	fmsb	z2.d, p0/m, z23.d, z4.d
/*   1338 */	fmsb	z6.d, p0/m, z31.d, z20.d
/*   1338 */	fmsb	z5.d, p0/m, z30.d, z17.d
/*   1338 */	fmsb	z3.d, p0/m, z29.d, z7.d
/*   1338 */	fmsb	z0.d, p0/m, z21.d, z1.d
	.loc 39 1339 0
..LDL405:
/*   1339 */	blt	.L1727
.L1730:
	.p2align 5
.L1733:					// :entr:term:mod:swpl
	.loc 39 1337 0 is_stmt 1
..LDL406:
/*   1337 */	ld1sw	{z29.d}, p0/z, [x3, -7, mul vl]	//  (*)
/*   1337 */	add	x4, x4, 64
	.loc 39 1339 0 is_stmt 0
..LDL407:
/*   1339 */	subs	w2, w2, 8
	.loc 39 1337 0
..LDL408:
/*   1337 */	ld1sw	{z4.d}, p0/z, [x3, -5, mul vl]	//  (*)
/*   1337 */	ld1sw	{z1.d}, p0/z, [x3, -4, mul vl]	//  (*)
/*   1337 */	ld1sw	{z24.d}, p0/z, [x3, -3, mul vl]	//  (*)
/*   1337 */	ld1sw	{z20.d}, p0/z, [x3, -6, mul vl]	//  (*)
/*   1337 */	ld1sw	{z21.d}, p0/z, [x3, -2, mul vl]	//  (*)
/*   1337 */	ld1sw	{z10.d}, p0/z, [x3, -1, mul vl]	//  (*)
/*   1337 */	ld1sw	{z9.d}, p0/z, [x3, 0, mul vl]	//  (*)
	.loc 39 1339 0
..LDL409:
/*   1339 */	add	x3, x3, 256
	.loc 39 1338 0 is_stmt 1
..LDL410:
/*   1338 */	ld1d	{z17.d}, p0/z, [x1, -7, mul vl]	//  (*)
/*   1338 */	ld1d	{z7.d}, p0/z, [x1, -6, mul vl]	//  (*)
/*   1338 */	ld1d	{z22.d}, p0/z, [x1, -5, mul vl]	//  (*)
/*   1338 */	ld1d	{z23.d}, p0/z, [x1, -4, mul vl]	//  (*)
/*   1338 */	ld1d	{z25.d}, p0/z, [x1, -3, mul vl]	//  (*)
/*   1338 */	ld1d	{z30.d}, p0/z, [x1, -2, mul vl]	//  (*)
/*   1338 */	ld1d	{z31.d}, p0/z, [x1, -1, mul vl]	//  (*)
/*   1338 */	ld1d	{z11.d}, p0/z, [x1, 0, mul vl]	//  (*)
	.loc 39 1339 0 is_stmt 0
..LDL411:
/*   1339 */	add	x1, x1, 512
	.loc 39 1338 0
..LDL412:
/*   1338 */	ld1d	{z8.d}, p0/z, [x12, z29.d, lsl #3]	//  (*)
/*   1338 */	ld1d	{z29.d}, p0/z, [x12, z4.d, lsl #3]	//  (*)
/*   1338 */	ld1d	{z4.d}, p0/z, [x12, z1.d, lsl #3]	//  (*)
/*   1338 */	ld1d	{z1.d}, p0/z, [x12, z24.d, lsl #3]	//  (*)
/*   1338 */	ld1d	{z20.d}, p0/z, [x12, z20.d, lsl #3]	//  (*)
/*   1338 */	ld1d	{z21.d}, p0/z, [x12, z21.d, lsl #3]	//  (*)
/*   1338 */	ld1d	{z24.d}, p0/z, [x12, z10.d, lsl #3]	//  (*)
/*   1338 */	ld1d	{z9.d}, p0/z, [x12, z9.d, lsl #3]	//  (*)
/*   1338 */	fmls	z19.d, p0/m, z17.d, z8.d
/*   1338 */	fmls	z16.d, p0/m, z22.d, z29.d
/*   1338 */	fmls	z6.d, p0/m, z23.d, z4.d
/*   1338 */	fmls	z5.d, p0/m, z25.d, z1.d
/*   1338 */	fmls	z18.d, p0/m, z7.d, z20.d
/*   1338 */	fmls	z3.d, p0/m, z30.d, z21.d
/*   1338 */	fmls	z2.d, p0/m, z31.d, z24.d
/*   1338 */	fmls	z0.d, p0/m, z11.d, z9.d
	.loc 39 1339 0
..LDL413:
/*   1339 */	bpl	.L1733
.L1727:
	.loc 39 1338 0
..LDL414:
/*   1338 */	fadd	z0.d, z0.d, z2.d
/*   1338 */	fadd	z1.d, z3.d, z5.d
/*   1338 */	fadd	z2.d, z6.d, z16.d
/*   1338 */	fadd	z3.d, z19.d, z18.d
/*   1338 */	fadd	z0.d, z1.d, z0.d
/*   1338 */	fadd	z1.d, z3.d, z2.d
/*   1338 */	fadd	z2.d, z1.d, z0.d
.L1453:
	.loc 39 1336 0 is_stmt 1
..LDL415:
/*   1336 */	adds	w2, w2, 7
/*   1336 */	bmi	.L1416
	.loc 39 1338 0 is_stmt 0
..LDL416:
/*   1338 */	ldr	x1, [x19, 8]	//  "xv"
	.p2align 5
.L1465:					// :entr:term:mod
	.loc 39 1337 0 is_stmt 1
..LDL417:
/*   1337 */	ld1sw	{z0.d}, p0/z, [x10, x4, lsl #2]	//  (*)
	.loc 39 1339 0 is_stmt 0
..LDL418:
/*   1339 */	subs	w2, w2, 1
	.loc 39 1338 0 is_stmt 1
..LDL419:
/*   1338 */	ld1d	{z1.d}, p0/z, [x1, z0.d, lsl #3]	//  (*)
/*   1338 */	ld1d	{z0.d}, p0/z, [x6, x4, lsl #3]	//  (*)
	.loc 39 1337 0 is_stmt 0
..LDL420:
/*   1337 */	add	x4, x4, 8
	.loc 39 1338 0
..LDL421:
/*   1338 */	fmls	z2.d, p0/m, z0.d, z1.d
	.loc 39 1337 0
..LDL422:
/*   1337 */	bpl	.L1465
.L1416:
	.loc 39 1338 0
..LDL423:
/*   1338 */	movprfx	z0, z2
/*   1338 */	ext	z0.b, z0.b, z2.b, 32
/*   1338 */	fadd	z1.d, z0.d, z2.d
/*   1338 */	movprfx	z0, z1
/*   1338 */	ext	z0.b, z0.b, z1.b, 16
/*   1338 */	fadd	z1.d, z1.d, z0.d
/*   1338 */	movprfx	z0, z1
/*   1338 */	ext	z0.b, z0.b, z1.b, 8
/*   1338 */	fadd	z0.d, z1.d, z0.d
/*   1338 */	fadd	d26, d26, d0
.L1417:
	.loc 39 1336 0 is_stmt 1
..LDL424:
/*   1336 */	sbfiz	x1, x5, 3, 32
/*   1336 */	cbz	w14, .L1420
	.loc 39 1337 0 is_stmt 0
..LDL425:
/*   1337 */	whilelt	p1.d, wzr, w14
	.loc 39 1338 0 is_stmt 1
..LDL426:
/*   1338 */	ldr	x2, [x19, 8]	//  "xv"
	.loc 39 1337 0
..LDL427:
/*   1337 */	ld1sw	{z0.d}, p1/z, [x10, x1, lsl #2]	//  (*)
	.loc 39 1338 0
..LDL428:
/*   1338 */	ld1d	{z1.d}, p1/z, [x6, x1, lsl #3]	//  (*)
/*   1338 */	ld1d	{z0.d}, p1/z, [x2, z0.d, lsl #3]	//  (*)
/*   1338 */	fmsb	z1.d, p1/m, z0.d, z27.d
/*   1338 */	sel	z1.d, p1, z1.d, z27.d
/*   1338 */	movprfx	z0, z1
/*   1338 */	ext	z0.b, z0.b, z1.b, 32
/*   1338 */	fadd	z1.d, z1.d, z0.d
/*   1338 */	movprfx	z0, z1
/*   1338 */	ext	z0.b, z0.b, z1.b, 16
/*   1338 */	fadd	z1.d, z1.d, z0.d
/*   1338 */	movprfx	z0, z1
/*   1338 */	ext	z0.b, z0.b, z1.b, 8
/*   1338 */	fadd	z0.d, z1.d, z0.d
/*   1338 */	fadd	d26, d26, d0
.L1420:					// :term
	.loc 39 1341 0
..LDL429:
	.loc 39 1340 0 is_stmt 0
..LDL430:
/*   1340 */	ldr	d2, [x9, x13, lsl #3]	//  (*)
	.loc 39 1341 0
..LDL431:
/*   1341 */	frecpe	d1, d28
	.loc 39 1342 0 is_stmt 1
..LDL432:
/*   1342 */	add	x8, x8, 1
/*   1342 */	cmp	x8, x0
	.loc 39 1341 0
..LDL433:
/*   1341 */	fmsub	d0, d28, d1, d12
/*   1341 */	fmadd	d4, d2, d28, d26
/*   1341 */	fmadd	d3, d0, d0, d0
/*   1341 */	fmul	d2, d0, d0
/*   1341 */	fmul	d1, d4, d1
/*   1341 */	fmadd	d0, d2, d2, d0
/*   1341 */	fmadd	d2, d3, d1, d1
/*   1341 */	fmadd	d0, d0, d2, d1
/*   1341 */	str	d0, [x9, x13, lsl #3]	//  (*)
	.loc 39 1342 0 is_stmt 0
..LDL434:
/*   1342 */	bls	.L1412
.L1423:					// :term
/*   1342 */	ldr	x0, [x22, -16]
/*   1342 */	bl	__mpc_obar
	.loc 39 1343 0 is_stmt 1
..LDL435:
/*   1343 */	add	w20, w20, 1
	.loc 37 641 0
..LDL436:
/*    641 */	ldr	x2, [x19, 24]	//  "A"
	.loc 39 1343 0
..LDL437:
/*   1343 */	sxtw	x1, w20
	.loc 37 641 0
..LDL438:
/*    641 */	ldp	x2, x0, [x2, 280]	//  (*)
/*    641 */	sub	x0, x0, x2
/*    641 */	sdiv	x0, x0, x21
	.loc 39 1343 0
..LDL439:
/*   1343 */	cmp	x1, x0
/*   1343 */	bcc	.L1404
.L1425:
	.loc 37 641 0
..LDL440:
/*    641 */	ldr	x1, [x19, 24]	//  "A"
/*    641 */	ldp	x1, x0, [x1, 280]	//  (*)
/*    641 */	sub	x0, x0, x1
/*    641 */	mov	x1, 24
/*    641 */	sdiv	x0, x0, x1
	.loc 39 1348 0
..LDL441:
/*   1348 */	sub	x20, x0, 1
/*   1348 */	cmp	w20, 0
/*   1348 */	blt	.L1450
/*   1348 */	add	x22, sp, 32
	.loc 39 1353 0 is_stmt 0
..LDL442:
/*   1353 */	mov	x21, 0
	.loc 39 1366 0
..LDL443:
/*   1366 */	fmov	d15, 1.000000e+00
.L1428:					// :entr
	.loc 39 1350 0 is_stmt 0
..LDL444:
	.loc 39 1350 0 is_stmt 0
..LDL445:
	.loc 39 1353 0 is_stmt 1
..LDL446:
/*   1353 */	sxtw	x2, w20
	.loc 37 1506 0
..LDL447:
/*   1506 */	ldr	x0, [x19, 24]	//  "A"
/*   1506 */	add	x1, x2, x2
/*   1506 */	add	x1, x1, x2
/*   1506 */	lsl	x6, x1, 3
	.loc 37 641 0
..LDL448:
/*    641 */	add	x1, x6, 8
	.loc 37 1506 0
..LDL449:
/*   1506 */	ldr	x0, [x0, 280]	//  (*)
	.loc 37 641 0
..LDL450:
/*    641 */	ldr	x1, [x0, x1]	//  (*)
/*    641 */	ldr	x0, [x0, x6]	//  (*)
/*    641 */	sub	x0, x1, x0
/*    641 */	asr	x1, x0, 1
/*    641 */	add	x0, x0, x1, lsr #62
/*    641 */	asr	x0, x0, 2
	.loc 39 1353 0
..LDL451:
/*   1353 */	sub	x0, x0, 1
/*   1353 */	cmp	w0, 0
/*   1353 */	blt	.L1448
/*   1353 */	sxtw	x0, w0
/*   1353 */	ldr	x1, [x22]
/*   1353 */	add	x3, x0, 1
/*   1353 */	sdiv	x2, x3, x1
/*   1353 */	msub	x1, x1, x2, x3
/*   1353 */	cbnz	x1, .L1431
/*   1353 */	ldr	x1, [x22, -8]
/*   1353 */	sub	x1, x21, x1
/*   1353 */	madd	x1, x1, x2, x0
/*   1353 */	b	.L1434
.L1431:
/*   1353 */	ldr	x3, [x22, -8]
/*   1353 */	cmp	x3, x1
/*   1353 */	blt	.L1433
/*   1353 */	madd	x1, x3, x2, x1
/*   1353 */	sub	x1, x0, x1
/*   1353 */	b	.L1434
.L1433:
/*   1353 */	add	x2, x2, 1
/*   1353 */	sub	x1, x21, x3
/*   1353 */	madd	x1, x1, x2, x0
.L1434:
/*   1353 */	sub	x0, x21, x2
/*   1353 */	add	x0, x0, 1
/*   1353 */	add	x0, x0, x1
/*   1353 */	cbz	x2, .L1448
	.loc 39 1361 0 is_stmt 0
..LDL452:
/*   1361 */	ptrue	p0.d, ALL
	.loc 39 1353 0
..LDL453:
/*   1353 */	sub	w2, w1, w0
/*   1353 */	cmp	w1, w0
/*   1353 */	add	w0, w2, 1
/*   1353 */	csinc	w11, w0, wzr, ge
	.loc 39 1361 0 is_stmt 1
..LDL454:
	.loc 39 1359 0 is_stmt 0
..LDL455:
/*   1359 */	ldr	x8, [x19, 16]	//  "rv"
	.loc 39 1362 0
..LDL456:
/*   1362 */	index	z29.d, 0, -1
	.loc 39 1365 0
..LDL457:
/*   1365 */	ldr	x9, [x19, 8]	//  "xv"
	.loc 39 1363 0
..LDL458:
/*   1363 */	fmov	z12.d, 0.000000e+00
.L1437:					// :entr
	.loc 39 1354 0 is_stmt 1
..LDL459:
/*   1354 */	sxtw	x2, w1
	.loc 37 1506 0
..LDL460:
/*   1506 */	ldr	x0, [x19, 24]	//  "A"
	.loc 39 1358 0
..LDL461:
/*   1358 */	ldr	x4, [x19]	//  "matrixDiagonal"
	.loc 37 1506 0
..LDL462:
/*   1506 */	ldr	x7, [x0, 280]	//  (*)
	.loc 39 1357 0
..LDL463:
/*   1357 */	ldr	x5, [x0, 48]	//  (*)
	.loc 39 1355 0
..LDL464:
/*   1355 */	ldp	x0, x3, [x0, 64]	//  (*)
	.loc 37 1506 0
..LDL465:
/*   1506 */	ldr	x7, [x7, x6]	//  (*)
	.loc 39 1354 0
..LDL466:
/*   1354 */	ldrsw	x10, [x7, x2, lsl #2]	//  (*)
	.loc 39 1357 0
..LDL467:
/*   1357 */	ldrb	w2, [x5, x10]	//  (*)
	.loc 39 1358 0
..LDL468:
/*   1358 */	ldr	x4, [x4, x10, lsl #3]	//  (*)
	.loc 39 1355 0
..LDL469:
/*   1355 */	ldr	x7, [x3, x10, lsl #3]	//  (*)
	.loc 39 1359 0
..LDL470:
/*   1359 */	ldr	d13, [x8, x10, lsl #3]	//  (*)
	.loc 39 1356 0
..LDL471:
/*   1356 */	ldr	x12, [x0, x10, lsl #3]	//  (*)
	.loc 39 1358 0
..LDL472:
/*   1358 */	ldr	d14, [x4]	//  (*)
	.loc 39 1361 0
..LDL473:
/*   1361 */	sub	w3, w2, 1
/*   1361 */	cmp	w2, 0
/*   1361 */	csel	w0, w2, wzr, ge
/*   1361 */	cmp	w3, 0
/*   1361 */	blt	.L1445
	.loc 39 1362 0 is_stmt 0
..LDL474:
/*   1362 */	sxtw	x14, w3
	.loc 39 1361 0
..LDL475:
/*   1361 */	asr	w2, w0, 2
/*   1361 */	add	w2, w0, w2, lsr #29
/*   1361 */	asr	w15, w2, 3
/*   1361 */	sub	w13, w0, w15, lsl #3
/*   1361 */	cbz	w15, .L1442
/*   1361 */	sub	w4, w15, 8
/*   1361 */	mov	x5, x14
/*   1361 */	mov	z0.d, z12.d
/*   1361 */	cmp	w4, 0
/*   1361 */	blt	.L1467
	.loc 39 1363 0
..LDL476:
/*   1363 */	ldr	x16, [x19, 8]	//  "xv"
/*   1363 */	lsl	x2, x14, 3
/*   1363 */	mov	z0.d, z12.d
/*   1363 */	mov	z2.d, z12.d
	.loc 39 1362 0
..LDL477:
/*   1362 */	lsl	x3, x14, 2
	.loc 39 1363 0
..LDL478:
/*   1363 */	sub	x0, x2, 192
/*   1363 */	mov	z4.d, z12.d
/*   1363 */	mov	z20.d, z12.d
/*   1363 */	mov	z17.d, z12.d
/*   1363 */	mov	z6.d, z12.d
	.loc 39 1362 0
..LDL479:
/*   1362 */	add	x3, x3, x12
	.loc 39 1363 0
..LDL480:
/*   1363 */	mov	z19.d, z12.d
/*   1363 */	mov	z21.d, z12.d
/*   1363 */	add	x2, x2, x7
/*   1363 */	add	x29, x0, x7
	.loc 39 1361 0
..LDL481:
/*   1361 */	cmp	w4, 16
/*   1361 */	blt	.L1741
	.loc 39 1362 0
..LDL482:
/*   1362 */	ld1sw	{z8.d}, p0/z, [x3, z29.d, lsl #2]	//  (*)
/*   1362 */	sub	x0, x3, 32
/*   1362 */	sub	x17, x3, 64
	.loc 39 1364 0
..LDL483:
/*   1364 */	mov	z1.d, z21.d
	.loc 39 1362 0
..LDL484:
/*   1362 */	ld1sw	{z9.d}, p0/z, [x0, z29.d, lsl #2]	//  (*)
/*   1362 */	sub	x18, x3, 96
/*   1362 */	sub	x0, x3, 128
	.loc 39 1364 0
..LDL485:
/*   1364 */	mov	z3.d, z19.d
	.loc 39 1362 0
..LDL486:
/*   1362 */	ld1sw	{z31.d}, p0/z, [x17, z29.d, lsl #2]	//  (*)
/*   1362 */	sub	x17, x3, 160
	.loc 39 1364 0
..LDL487:
/*   1364 */	mov	x24, x29
	.loc 39 1362 0
..LDL488:
/*   1362 */	ld1sw	{z30.d}, p0/z, [x18, z29.d, lsl #2]	//  (*)
	.loc 39 1364 0
..LDL489:
/*   1364 */	mov	z23.d, z4.d
	.loc 39 1362 0
..LDL490:
/*   1362 */	ld1sw	{z24.d}, p0/z, [x0, z29.d, lsl #2]	//  (*)
	.loc 39 1364 0
..LDL491:
/*   1364 */	mov	z27.d, z2.d
	.loc 39 1362 0
..LDL492:
/*   1362 */	ld1sw	{z10.d}, p0/z, [x17, z29.d, lsl #2]	//  (*)
	.loc 39 1364 0
..LDL493:
/*   1364 */	mov	z28.d, z0.d
	.p2align 5
.L1440:					// :entr:term:body:swpl
	.loc 39 1362 0
..LDL494:
/*   1362 */	sub	x0, x3, 192
/*   1362 */	ld1sw	{z5.d}, p0/z, [x0, z29.d, lsl #2]	//  (*)
/*   1362 */	sub	x0, x3, 224
/*   1362 */	ld1sw	{z2.d}, p0/z, [x0, z29.d, lsl #2]	//  (*)
	.loc 39 1363 0
..LDL495:
/*   1363 */	ld1d	{z11.d}, p0/z, [x16, z8.d, lsl #3]	//  (*)
/*   1363 */	ld1d	{z8.d}, p0/z, [x2, z29.d, lsl #3]	//  (*)
/*   1363 */	ld1d	{z21.d}, p0/z, [x16, z9.d, lsl #3]	//  (*)
/*   1363 */	sub	x0, x2, 64
/*   1363 */	ld1d	{z26.d}, p0/z, [x0, z29.d, lsl #3]	//  (*)
/*   1363 */	ld1d	{z18.d}, p0/z, [x16, z31.d, lsl #3]	//  (*)
/*   1363 */	sub	x0, x2, 128
/*   1363 */	ld1d	{z25.d}, p0/z, [x0, z29.d, lsl #3]	//  (*)
/*   1363 */	ld1d	{z7.d}, p0/z, [x16, z30.d, lsl #3]	//  (*)
/*   1363 */	ld1d	{z22.d}, p0/z, [x24, z29.d, lsl #3]	//  (*)
/*   1363 */	ld1d	{z4.d}, p0/z, [x16, z24.d, lsl #3]	//  (*)
/*   1363 */	sub	x0, x24, 64
/*   1363 */	ld1d	{z19.d}, p0/z, [x0, z29.d, lsl #3]	//  (*)
/*   1363 */	ld1d	{z0.d}, p0/z, [x16, z10.d, lsl #3]	//  (*)
/*   1363 */	sub	x0, x24, 128
/*   1363 */	ld1d	{z16.d}, p0/z, [x0, z29.d, lsl #3]	//  (*)
/*   1363 */	ld1d	{z31.d}, p0/z, [x16, z5.d, lsl #3]	//  (*)
/*   1363 */	sub	x0, x24, 192
/*   1363 */	ld1d	{z5.d}, p0/z, [x0, z29.d, lsl #3]	//  (*)
/*   1363 */	ld1d	{z9.d}, p0/z, [x16, z2.d, lsl #3]	//  (*)
/*   1363 */	sub	x0, x24, 256
/*   1363 */	ld1d	{z2.d}, p0/z, [x0, z29.d, lsl #3]	//  (*)
	.loc 39 1364 0
..LDL496:
/*   1364 */	sub	x0, x3, 256
	.loc 39 1362 0
..LDL497:
/*   1362 */	ld1sw	{z30.d}, p0/z, [x0, z29.d, lsl #2]	//  (*)
/*   1362 */	sub	x0, x3, 288
/*   1362 */	ld1sw	{z10.d}, p0/z, [x0, z29.d, lsl #2]	//  (*)
/*   1362 */	sub	x0, x3, 320
/*   1362 */	ld1sw	{z24.d}, p0/z, [x0, z29.d, lsl #2]	//  (*)
	.loc 39 1363 0
..LDL498:
/*   1363 */	fmsb	z11.d, p0/m, z8.d, z28.d
	.loc 39 1362 0
..LDL499:
/*   1362 */	sub	x0, x3, 352
	.loc 39 1363 0
..LDL500:
/*   1363 */	fmsb	z26.d, p0/m, z21.d, z27.d
	.loc 39 1362 0
..LDL501:
/*   1362 */	ld1sw	{z21.d}, p0/z, [x0, z29.d, lsl #2]	//  (*)
	.loc 39 1363 0
..LDL502:
/*   1363 */	fmsb	z25.d, p0/m, z18.d, z23.d
	.loc 39 1362 0
..LDL503:
/*   1362 */	sub	x0, x3, 384
	.loc 39 1363 0
..LDL504:
/*   1363 */	fmsb	z22.d, p0/m, z7.d, z20.d
	.loc 39 1362 0
..LDL505:
/*   1362 */	ld1sw	{z7.d}, p0/z, [x0, z29.d, lsl #2]	//  (*)
	.loc 39 1363 0
..LDL506:
/*   1363 */	fmsb	z19.d, p0/m, z4.d, z17.d
	.loc 39 1362 0
..LDL507:
/*   1362 */	sub	x0, x3, 416
/*   1362 */	ld1sw	{z4.d}, p0/z, [x0, z29.d, lsl #2]	//  (*)
	.loc 39 1363 0
..LDL508:
/*   1363 */	fmsb	z16.d, p0/m, z0.d, z6.d
	.loc 39 1364 0
..LDL509:
/*   1364 */	sub	x0, x24, 512
/*   1364 */	sub	x17, x2, 512
	.loc 39 1363 0
..LDL510:
/*   1363 */	fmsb	z5.d, p0/m, z31.d, z3.d
/*   1363 */	fmsb	z2.d, p0/m, z9.d, z1.d
	.loc 39 1362 0
..LDL511:
/*   1362 */	sub	x18, x3, 448
/*   1362 */	ld1sw	{z1.d}, p0/z, [x18, z29.d, lsl #2]	//  (*)
/*   1362 */	sub	x18, x3, 480
/*   1362 */	ld1sw	{z0.d}, p0/z, [x18, z29.d, lsl #2]	//  (*)
	.loc 39 1363 0
..LDL512:
/*   1363 */	ld1d	{z28.d}, p0/z, [x16, z30.d, lsl #3]	//  (*)
/*   1363 */	ld1d	{z27.d}, p0/z, [x17, z29.d, lsl #3]	//  (*)
/*   1363 */	ld1d	{z30.d}, p0/z, [x16, z10.d, lsl #3]	//  (*)
/*   1363 */	sub	x17, x2, 576
/*   1363 */	ld1d	{z10.d}, p0/z, [x17, z29.d, lsl #3]	//  (*)
/*   1363 */	ld1d	{z24.d}, p0/z, [x16, z24.d, lsl #3]	//  (*)
/*   1363 */	sub	x17, x2, 640
/*   1363 */	ld1d	{z23.d}, p0/z, [x17, z29.d, lsl #3]	//  (*)
/*   1363 */	ld1d	{z21.d}, p0/z, [x16, z21.d, lsl #3]	//  (*)
/*   1363 */	ld1d	{z20.d}, p0/z, [x0, z29.d, lsl #3]	//  (*)
/*   1363 */	ld1d	{z18.d}, p0/z, [x16, z7.d, lsl #3]	//  (*)
/*   1363 */	sub	x0, x24, 576
/*   1363 */	ld1d	{z17.d}, p0/z, [x0, z29.d, lsl #3]	//  (*)
/*   1363 */	ld1d	{z7.d}, p0/z, [x16, z4.d, lsl #3]	//  (*)
/*   1363 */	sub	x0, x24, 640
/*   1363 */	ld1d	{z6.d}, p0/z, [x0, z29.d, lsl #3]	//  (*)
/*   1363 */	ld1d	{z4.d}, p0/z, [x16, z1.d, lsl #3]	//  (*)
/*   1363 */	sub	x0, x24, 704
/*   1363 */	ld1d	{z3.d}, p0/z, [x0, z29.d, lsl #3]	//  (*)
/*   1363 */	ld1d	{z0.d}, p0/z, [x16, z0.d, lsl #3]	//  (*)
/*   1363 */	sub	x0, x24, 768
/*   1363 */	ld1d	{z1.d}, p0/z, [x0, z29.d, lsl #3]	//  (*)
	.loc 39 1364 0
..LDL513:
/*   1364 */	sub	x3, x3, 512
	.loc 39 1362 0
..LDL514:
/*   1362 */	ld1sw	{z8.d}, p0/z, [x3, z29.d, lsl #2]	//  (*)
/*   1362 */	sub	x0, x3, 32
/*   1362 */	ld1sw	{z9.d}, p0/z, [x0, z29.d, lsl #2]	//  (*)
/*   1362 */	sub	x0, x3, 64
/*   1362 */	ld1sw	{z31.d}, p0/z, [x0, z29.d, lsl #2]	//  (*)
	.loc 39 1363 0
..LDL515:
/*   1363 */	fmsb	z28.d, p0/m, z27.d, z11.d
	.loc 39 1362 0
..LDL516:
/*   1362 */	sub	x0, x3, 96
	.loc 39 1363 0
..LDL517:
/*   1363 */	movprfx	z27.d, p0/z, z26.d
/*   1363 */	fmls	z27.d, p0/m, z10.d, z30.d
	.loc 39 1362 0
..LDL518:
/*   1362 */	ld1sw	{z30.d}, p0/z, [x0, z29.d, lsl #2]	//  (*)
	.loc 39 1363 0
..LDL519:
/*   1363 */	fmsb	z23.d, p0/m, z24.d, z25.d
	.loc 39 1362 0
..LDL520:
/*   1362 */	sub	x0, x3, 128
	.loc 39 1363 0
..LDL521:
/*   1363 */	fmsb	z20.d, p0/m, z21.d, z22.d
	.loc 39 1362 0
..LDL522:
/*   1362 */	ld1sw	{z24.d}, p0/z, [x0, z29.d, lsl #2]	//  (*)
	.loc 39 1363 0
..LDL523:
/*   1363 */	fmsb	z17.d, p0/m, z18.d, z19.d
	.loc 39 1362 0
..LDL524:
/*   1362 */	sub	x0, x3, 160
	.loc 39 1361 0
..LDL525:
/*   1361 */	sub	x5, x5, 128
	.loc 39 1362 0
..LDL526:
/*   1362 */	ld1sw	{z10.d}, p0/z, [x0, z29.d, lsl #2]	//  (*)
	.loc 39 1363 0
..LDL527:
/*   1363 */	fmsb	z6.d, p0/m, z7.d, z16.d
	.loc 39 1364 0
..LDL528:
/*   1364 */	sub	x24, x24, 1024
/*   1364 */	sub	x2, x2, 1024
	.loc 39 1363 0
..LDL529:
/*   1363 */	fmsb	z3.d, p0/m, z4.d, z5.d
/*   1363 */	fmsb	z1.d, p0/m, z0.d, z2.d
	.loc 39 1364 0
..LDL530:
/*   1364 */	sub	w4, w4, 16
	.loc 39 1361 0
..LDL531:
/*   1361 */	cmp	w4, 16
/*   1361 */	bge	.L1440
	.loc 39 1362 0
..LDL532:
/*   1362 */	sub	x17, x3, 192
/*   1362 */	sub	x0, x3, 224
	.loc 39 1363 0
..LDL533:
/*   1363 */	ld1d	{z16.d}, p0/z, [x16, z8.d, lsl #3]	//  (*)
	.loc 39 1362 0
..LDL534:
/*   1362 */	ld1sw	{z19.d}, p0/z, [x17, z29.d, lsl #2]	//  (*)
	.loc 39 1363 0
..LDL535:
/*   1363 */	sub	x29, x2, 64
/*   1363 */	sub	x23, x2, 128
	.loc 39 1362 0
..LDL536:
/*   1362 */	ld1sw	{z21.d}, p0/z, [x0, z29.d, lsl #2]	//  (*)
	.loc 39 1363 0
..LDL537:
/*   1363 */	sub	x18, x24, 64
/*   1363 */	sub	x0, x24, 128
/*   1363 */	sub	x17, x24, 192
/*   1363 */	sub	x30, x24, 256
/*   1363 */	ld1d	{z5.d}, p0/z, [x16, z31.d, lsl #3]	//  (*)
	.loc 39 1364 0
..LDL538:
/*   1364 */	sub	x3, x3, 256
/*   1364 */	sub	w4, w4, 8
	.loc 39 1363 0
..LDL539:
/*   1363 */	ld1d	{z18.d}, p0/z, [x16, z30.d, lsl #3]	//  (*)
	.loc 39 1361 0
..LDL540:
/*   1361 */	sub	x5, x5, 64
	.loc 39 1364 0
..LDL541:
/*   1364 */	cmp	w4, 0
	.loc 39 1363 0
..LDL542:
/*   1363 */	ld1d	{z25.d}, p0/z, [x16, z24.d, lsl #3]	//  (*)
/*   1363 */	ld1d	{z0.d}, p0/z, [x2, z29.d, lsl #3]	//  (*)
	.loc 39 1364 0
..LDL543:
/*   1364 */	sub	x2, x2, 512
	.loc 39 1363 0
..LDL544:
/*   1363 */	ld1d	{z7.d}, p0/z, [x16, z9.d, lsl #3]	//  (*)
/*   1363 */	ld1d	{z2.d}, p0/z, [x29, z29.d, lsl #3]	//  (*)
	.loc 39 1364 0
..LDL545:
/*   1364 */	sub	x29, x24, 512
	.loc 39 1363 0
..LDL546:
/*   1363 */	ld1d	{z4.d}, p0/z, [x23, z29.d, lsl #3]	//  (*)
/*   1363 */	ld1d	{z22.d}, p0/z, [x24, z29.d, lsl #3]	//  (*)
/*   1363 */	ld1d	{z24.d}, p0/z, [x18, z29.d, lsl #3]	//  (*)
/*   1363 */	ld1d	{z31.d}, p0/z, [x16, z10.d, lsl #3]	//  (*)
/*   1363 */	ld1d	{z26.d}, p0/z, [x0, z29.d, lsl #3]	//  (*)
/*   1363 */	ld1d	{z30.d}, p0/z, [x17, z29.d, lsl #3]	//  (*)
/*   1363 */	ld1d	{z8.d}, p0/z, [x30, z29.d, lsl #3]	//  (*)
/*   1363 */	ld1d	{z19.d}, p0/z, [x16, z19.d, lsl #3]	//  (*)
/*   1363 */	ld1d	{z21.d}, p0/z, [x16, z21.d, lsl #3]	//  (*)
/*   1363 */	fmsb	z0.d, p0/m, z16.d, z28.d
/*   1363 */	fmsb	z2.d, p0/m, z7.d, z27.d
/*   1363 */	fmsb	z4.d, p0/m, z5.d, z23.d
/*   1363 */	fmls	z20.d, p0/m, z22.d, z18.d
/*   1363 */	fmls	z17.d, p0/m, z24.d, z25.d
/*   1363 */	fmls	z6.d, p0/m, z26.d, z31.d
/*   1363 */	fmsb	z19.d, p0/m, z30.d, z3.d
/*   1363 */	fmsb	z21.d, p0/m, z8.d, z1.d
	.loc 39 1364 0
..LDL547:
/*   1364 */	blt	.L1738
.L1741:
	.p2align 5
.L1744:					// :entr:term:mod:swpl
	.loc 39 1362 0 is_stmt 1
..LDL548:
/*   1362 */	ld1sw	{z7.d}, p0/z, [x3, z29.d, lsl #2]	//  (*)
/*   1362 */	sub	x17, x3, 32
/*   1362 */	sub	x0, x3, 64
/*   1362 */	ld1sw	{z3.d}, p0/z, [x17, z29.d, lsl #2]	//  (*)
/*   1362 */	sub	x18, x3, 96
/*   1362 */	sub	x17, x3, 128
/*   1362 */	ld1sw	{z30.d}, p0/z, [x0, z29.d, lsl #2]	//  (*)
/*   1362 */	sub	x24, x3, 160
/*   1362 */	sub	x0, x3, 192
	.loc 39 1363 0
..LDL549:
/*   1363 */	sub	x23, x2, 64
	.loc 39 1362 0
..LDL550:
/*   1362 */	ld1sw	{z5.d}, p0/z, [x18, z29.d, lsl #2]	//  (*)
/*   1362 */	sub	x30, x3, 224
	.loc 39 1363 0
..LDL551:
/*   1363 */	sub	x18, x2, 128
	.loc 39 1362 0
..LDL552:
/*   1362 */	ld1sw	{z8.d}, p0/z, [x17, z29.d, lsl #2]	//  (*)
	.loc 39 1363 0
..LDL553:
/*   1363 */	sub	x17, x29, 64
	.loc 39 1362 0
..LDL554:
/*   1362 */	ld1sw	{z22.d}, p0/z, [x24, z29.d, lsl #2]	//  (*)
	.loc 39 1363 0
..LDL555:
/*   1363 */	sub	x24, x29, 128
/*   1363 */	sub	x25, x29, 192
	.loc 39 1362 0
..LDL556:
/*   1362 */	ld1sw	{z16.d}, p0/z, [x0, z29.d, lsl #2]	//  (*)
	.loc 39 1363 0
..LDL557:
/*   1363 */	sub	x0, x29, 256
	.loc 39 1361 0 is_stmt 0
..LDL558:
/*   1361 */	sub	x5, x5, 64
	.loc 39 1362 0 is_stmt 1
..LDL559:
/*   1362 */	ld1sw	{z18.d}, p0/z, [x30, z29.d, lsl #2]	//  (*)
	.loc 39 1364 0 is_stmt 0
..LDL560:
/*   1364 */	sub	x3, x3, 256
/*   1364 */	subs	w4, w4, 8
	.loc 39 1363 0 is_stmt 1
..LDL561:
/*   1363 */	ld1d	{z1.d}, p0/z, [x2, z29.d, lsl #3]	//  (*)
	.loc 39 1364 0 is_stmt 0
..LDL562:
/*   1364 */	sub	x2, x2, 512
	.loc 39 1363 0
..LDL563:
/*   1363 */	ld1d	{z31.d}, p0/z, [x23, z29.d, lsl #3]	//  (*)
/*   1363 */	ld1d	{z28.d}, p0/z, [x18, z29.d, lsl #3]	//  (*)
/*   1363 */	ld1d	{z27.d}, p0/z, [x29, z29.d, lsl #3]	//  (*)
	.loc 39 1364 0
..LDL564:
/*   1364 */	sub	x29, x29, 512
	.loc 39 1363 0
..LDL565:
/*   1363 */	ld1d	{z26.d}, p0/z, [x17, z29.d, lsl #3]	//  (*)
/*   1363 */	ld1d	{z25.d}, p0/z, [x24, z29.d, lsl #3]	//  (*)
/*   1363 */	ld1d	{z24.d}, p0/z, [x25, z29.d, lsl #3]	//  (*)
/*   1363 */	ld1d	{z23.d}, p0/z, [x0, z29.d, lsl #3]	//  (*)
/*   1363 */	ld1d	{z7.d}, p0/z, [x16, z7.d, lsl #3]	//  (*)
/*   1363 */	ld1d	{z3.d}, p0/z, [x16, z3.d, lsl #3]	//  (*)
/*   1363 */	ld1d	{z30.d}, p0/z, [x16, z30.d, lsl #3]	//  (*)
/*   1363 */	ld1d	{z5.d}, p0/z, [x16, z5.d, lsl #3]	//  (*)
/*   1363 */	ld1d	{z8.d}, p0/z, [x16, z8.d, lsl #3]	//  (*)
/*   1363 */	ld1d	{z22.d}, p0/z, [x16, z22.d, lsl #3]	//  (*)
/*   1363 */	ld1d	{z16.d}, p0/z, [x16, z16.d, lsl #3]	//  (*)
/*   1363 */	ld1d	{z18.d}, p0/z, [x16, z18.d, lsl #3]	//  (*)
/*   1363 */	fmls	z0.d, p0/m, z1.d, z7.d
/*   1363 */	fmls	z2.d, p0/m, z31.d, z3.d
/*   1363 */	fmls	z4.d, p0/m, z28.d, z30.d
/*   1363 */	fmls	z20.d, p0/m, z27.d, z5.d
/*   1363 */	fmls	z17.d, p0/m, z26.d, z8.d
/*   1363 */	fmls	z6.d, p0/m, z25.d, z22.d
/*   1363 */	fmls	z19.d, p0/m, z24.d, z16.d
/*   1363 */	fmls	z21.d, p0/m, z23.d, z18.d
	.loc 39 1364 0
..LDL566:
/*   1364 */	bpl	.L1744
.L1738:
	.loc 39 1363 0
..LDL567:
/*   1363 */	fadd	z1.d, z21.d, z19.d
/*   1363 */	fadd	z3.d, z6.d, z17.d
/*   1363 */	fadd	z4.d, z20.d, z4.d
/*   1363 */	fadd	z0.d, z0.d, z2.d
/*   1363 */	fadd	z1.d, z3.d, z1.d
/*   1363 */	fadd	z0.d, z0.d, z4.d
/*   1363 */	fadd	z0.d, z0.d, z1.d
.L1467:
	.loc 39 1361 0 is_stmt 1
..LDL568:
/*   1361 */	adds	w3, w4, 7
/*   1361 */	bmi	.L1441
	.loc 39 1363 0 is_stmt 0
..LDL569:
/*   1363 */	ldr	x2, [x19, 8]	//  "xv"
	.p2align 5
.L1479:					// :entr:term:mod
	.loc 39 1362 0 is_stmt 1
..LDL570:
/*   1362 */	index	z1.d, 0, -1
/*   1362 */	mov	x4, x5
	.loc 39 1361 0 is_stmt 0
..LDL571:
/*   1361 */	sub	x5, x5, 8
	.loc 39 1362 0
..LDL572:
/*   1362 */	add	x0, x12, x4, lsl #2
	.loc 39 1364 0
..LDL573:
/*   1364 */	subs	w3, w3, 1
	.loc 39 1363 0 is_stmt 1
..LDL574:
/*   1363 */	add	x4, x7, x4, lsl #3
	.loc 39 1362 0
..LDL575:
/*   1362 */	ld1sw	{z2.d}, p0/z, [x0, z1.d, lsl #2]	//  (*)
	.loc 39 1363 0
..LDL576:
/*   1363 */	ld1d	{z1.d}, p0/z, [x4, z1.d, lsl #3]	//  (*)
/*   1363 */	ld1d	{z2.d}, p0/z, [x2, z2.d, lsl #3]	//  (*)
/*   1363 */	fmls	z0.d, p0/m, z1.d, z2.d
	.loc 39 1361 0 is_stmt 0
..LDL577:
/*   1361 */	bpl	.L1479
.L1441:
	.loc 39 1363 0
..LDL578:
/*   1363 */	movprfx	z1, z0
/*   1363 */	ext	z1.b, z1.b, z0.b, 32
/*   1363 */	fadd	z1.d, z1.d, z0.d
/*   1363 */	movprfx	z0, z1
/*   1363 */	ext	z0.b, z0.b, z1.b, 16
/*   1363 */	fadd	z1.d, z1.d, z0.d
/*   1363 */	movprfx	z0, z1
/*   1363 */	ext	z0.b, z0.b, z1.b, 8
/*   1363 */	fadd	z0.d, z1.d, z0.d
/*   1363 */	fadd	d13, d13, d0
.L1442:
	.loc 39 1361 0 is_stmt 1
..LDL579:
/*   1361 */	sbfiz	x0, x15, 3, 32
/*   1361 */	sub	x0, x21, x0
/*   1361 */	add	x0, x0, x14
/*   1361 */	cbz	w13, .L1445
/*   1361 */	whilelt	p1.d, wzr, w13
	.loc 39 1363 0
..LDL580:
/*   1363 */	ldr	x2, [x19, 8]	//  "xv"
	.loc 39 1362 0
..LDL581:
/*   1362 */	add	x3, x12, x0, lsl #2
	.loc 39 1363 0
..LDL582:
/*   1363 */	add	x0, x7, x0, lsl #3
	.loc 39 1362 0
..LDL583:
/*   1362 */	ld1sw	{z0.d}, p1/z, [x3, z29.d, lsl #2]	//  (*)
	.loc 39 1363 0
..LDL584:
/*   1363 */	ld1d	{z1.d}, p1/z, [x0, z29.d, lsl #3]	//  (*)
/*   1363 */	ld1d	{z0.d}, p1/z, [x2, z0.d, lsl #3]	//  (*)
/*   1363 */	fmsb	z1.d, p1/m, z0.d, z12.d
/*   1363 */	sel	z0.d, p1, z1.d, z12.d
/*   1363 */	movprfx	z1, z0
/*   1363 */	ext	z1.b, z1.b, z0.b, 32
/*   1363 */	fadd	z1.d, z0.d, z1.d
/*   1363 */	movprfx	z0, z1
/*   1363 */	ext	z0.b, z0.b, z1.b, 16
/*   1363 */	fadd	z0.d, z1.d, z0.d
/*   1363 */	movprfx	z1, z0
/*   1363 */	ext	z1.b, z1.b, z0.b, 8
/*   1363 */	fadd	z0.d, z0.d, z1.d
/*   1363 */	fadd	d13, d13, d0
.L1445:					// :term
	.loc 39 1366 0
..LDL585:
	.loc 39 1365 0 is_stmt 0
..LDL586:
/*   1365 */	ldr	d2, [x9, x10, lsl #3]	//  (*)
	.loc 39 1366 0
..LDL587:
/*   1366 */	frecpe	d0, d14
	.loc 39 1367 0 is_stmt 1
..LDL588:
/*   1367 */	sub	w1, w1, 1
/*   1367 */	subs	w11, w11, 1
	.loc 39 1366 0
..LDL589:
/*   1366 */	fmsub	d1, d14, d0, d15
/*   1366 */	fmadd	d4, d2, d14, d13
/*   1366 */	fmadd	d2, d1, d1, d1
/*   1366 */	fmul	d3, d1, d1
/*   1366 */	fmul	d0, d4, d0
/*   1366 */	fmadd	d1, d3, d3, d1
/*   1366 */	fmadd	d2, d2, d0, d0
/*   1366 */	fmadd	d0, d1, d2, d0
/*   1366 */	str	d0, [x9, x10, lsl #3]	//  (*)
	.loc 39 1367 0 is_stmt 0
..LDL590:
/*   1367 */	bne	.L1437
	.loc 39 1367 0 is_stmt 1
..LDL591:
.L1448:					// :term
/*   1367 */	ldr	x0, [x22, -16]
/*   1367 */	bl	__mpc_obar
	.loc 39 1368 0
..LDL592:
/*   1368 */	subs	w20, w20, 1
/*   1368 */	bpl	.L1428
.L1450:
/*   1370 */	add	x0, sp, 16
/*   1370 */	ldr	x0, [x0]
/*   1370 */	bl	__mpc_obar
	.loc 39 1370 0
..LDL593:
/*    ??? */	add	sp, sp, 48
	.cfi_def_cfa_offset 144
/*    ??? */	ldp	x19, x20, [sp, 112]	//  (*)
	.cfi_restore 19
	.cfi_restore 20
/*    ??? */	ldp	x21, x22, [sp, 96]	//  (*)
	.cfi_restore 21
	.cfi_restore 22
/*    ??? */	ldp	x23, x24, [sp, 80]	//  (*)
	.cfi_restore 23
	.cfi_restore 24
/*    ??? */	ldr	x25, [sp, 72]	//  (*)
	.cfi_restore 25
/*    ??? */	ldp	d8, d9, [sp, 56]	//  (*)
	.cfi_restore 72
	.cfi_restore 73
/*    ??? */	ldp	d10, d11, [sp, 40]	//  (*)
	.cfi_restore 74
	.cfi_restore 75
/*    ??? */	ldp	d12, d13, [sp, 24]	//  (*)
	.cfi_restore 76
	.cfi_restore 77
/*    ??? */	ldp	d14, d15, [sp, 8]	//  (*)
	.cfi_restore 78
	.cfi_restore 79
/*    ??? */	ldp	x29, x30, [sp, 128]	//  (*)
	.cfi_restore 29
	.cfi_restore 30
/*   1370 */	add	sp, sp, 144
	.cfi_def_cfa_offset 0
/*   1370 */	ret	
..D5.pchi:
	.cfi_endproc
.LFE4:
	.size	_Z16ComputeSYMGS_TDGRK19SparseMatrix_STRUCTRK13Vector_STRUCTRS2_R9TraceData._OMP_3, .-_Z16ComputeSYMGS_TDGRK19SparseMatrix_STRUCTRK13Vector_STRUCTRS2_R9TraceData._OMP_3
	.ident	"$Compiler: Fujitsu C/C++ Compiler 4.7.0 (Nov 10 2021 09:37:15) ../src/ComputeSYMGS.cpp _Z18ComputeSYMGS_BLOCKRK19SparseMatrix_STRUCTRK13Vector_STRUCTRS2_R9TraceData $"
	.text
	.align	2
	.global	_Z18ComputeSYMGS_BLOCKRK19SparseMatrix_STRUCTRK13Vector_STRUCTRS2_R9TraceData
	.type	_Z18ComputeSYMGS_BLOCKRK19SparseMatrix_STRUCTRK13Vector_STRUCTRS2_R9TraceData, %function
_Z18ComputeSYMGS_BLOCKRK19SparseMatrix_STRUCTRK13Vector_STRUCTRS2_R9TraceData:
	.loc 39 1376 0
..LDL594:
.LFB5:
	.cfi_startproc
/*   1530 */	sub	sp, sp, 64
	.cfi_def_cfa_offset 64
/*    ??? */	str	x30, [sp, 48]	//  (*)
	.cfi_offset 30, -16
/*    ??? */	stp	x19, x20, [sp, 32]	//  (*)
	.cfi_offset 19, -32
	.cfi_offset 20, -24
/*    ??? */	stp	x21, x22, [sp, 16]	//  (*)
	.cfi_offset 21, -48
	.cfi_offset 22, -40
/*    ??? */	str	x23, [sp, 8]	//  (*)
	.cfi_offset 23, -56
/*    ??? */	sub	sp, sp, 64
	.cfi_def_cfa_offset 128
/*   1376 */	add	x19, sp, 8
/*   1376 */	str	x0, [x19, 32]
	.loc 39 1378 0
..LDL595:
/*   1378 */	ldr	w4, [x2]	//  (*)
/*   1378 */	ldr	w3, [x0, 36]	//  (*)
/*   1378 */	cmp	w4, w3
/*   1378 */	blt	.L1499
	.loc 39 1385 0
..LDL596:
/*   1385 */	ldr	x3, [x0, 80]	//  (*)
/*   1385 */	str	x3, [x19, 24]
	.loc 39 1386 0
..LDL597:
/*   1386 */	ldr	x1, [x1, 8]	//  (*)
/*   1386 */	str	x1, [x19, 16]
	.loc 39 1387 0
..LDL598:
/*   1387 */	ldr	x1, [x2, 8]	//  (*)
/*   1387 */	str	x1, [x19, 8]
	.loc 39 1389 0
..LDL599:
/*   1389 */	str	wzr, [x19, 4]
	.loc 37 1506 0
..LDL600:
/*   1506 */	ldr	x0, [x0, 304]	//  (*)
	.loc 39 1390 0
..LDL601:
/*   1390 */	ldr	w0, [x0]	//  (*)
/*   1390 */	str	w0, [x19]
	.loc 39 1394 0
..LDL602:
/*   1394 */	ldr	x0, [x19, 32]
/*   1394 */	ldr	w0, [x0, 344]	//  (*)
/*   1394 */	cmp	w0, 0
/*   1394 */	ble	.L1491
/*   1394 */	mov	w22, 0
	.loc 39 1396 0 is_stmt 0
..LDL603:
/*   1396 */	mov	x23, 0
	.loc 39 1400 0
..LDL604:
/*   1400 */	adrp	x0, _Z18ComputeSYMGS_BLOCKRK19SparseMatrix_STRUCTRK13Vector_STRUCTRS2_R9TraceData._OMP_4
/*   1400 */	add	x21, x0, :lo12:_Z18ComputeSYMGS_BLOCKRK19SparseMatrix_STRUCTRK13Vector_STRUCTRS2_R9TraceData._OMP_4
	.loc 37 1506 0
..LDL605:
/*   1506 */	add	x20, x19, 32
	.p2align 5
.L1487:					// :entr
	.loc 39 1395 0 is_stmt 1
..LDL606:
/*   1395 */	cmp	w22, 0
/*   1395 */	ble	.L1489
	.loc 39 1396 0
..LDL607:
/*   1396 */	ldr	w2, [x20, -28]
	.loc 37 1506 0 is_stmt 0
..LDL608:
/*   1506 */	ldr	x0, [x20]
/*   1506 */	ldr	x1, [x0, 304]	//  (*)
	.loc 39 1396 0
..LDL609:
/*   1396 */	sub	x0, x23, 1
/*   1396 */	ldr	w0, [x1, x0, lsl #2]	//  (*)
/*   1396 */	add	w0, w2, w0
/*   1396 */	str	w0, [x20, -28]
	.loc 39 1397 0 is_stmt 1
..LDL610:
/*   1397 */	ldr	w1, [x1, x23, lsl #2]	//  (*)
/*   1397 */	add	w0, w0, w1
/*   1397 */	str	w0, [x20, -32]
.L1489:					// :term
	.loc 39 1400 0 is_stmt 0
..LDL611:
/*   1400 */	mov	x2, 0
/*   1400 */	mov	x0, x21
/*   1400 */	mov	x1, x19
/*   1400 */	bl	__mpc_opar
	.loc 39 1456 0 is_stmt 1
..LDL612:
/*   1456 */	add	w22, w22, 1
/*   1456 */	add	x23, x23, 1
/*   1456 */	ldr	x0, [x19, 32]
/*   1456 */	ldr	w0, [x0, 344]	//  (*)
/*   1456 */	cmp	w22, w0
/*   1456 */	blt	.L1487
.L1491:
	.loc 39 1458 0
..LDL613:
/*   1458 */	ldr	x1, [x19, 32]
/*   1458 */	ldr	w0, [x1, 348]	//  (*)
/*   1458 */	sub	w0, w0, 1
/*   1458 */	str	w0, [x19, 4]
	.loc 39 1459 0
..LDL614:
/*   1459 */	ldr	w2, [x1, 344]	//  (*)
	.loc 37 1506 0
..LDL615:
/*   1506 */	ldr	x1, [x1, 304]	//  (*)
	.loc 39 1459 0
..LDL616:
/*   1459 */	sub	w23, w2, 1
/*   1459 */	sxtw	x20, w23
/*   1459 */	ldr	w1, [x1, x20, lsl #2]	//  (*)
/*   1459 */	sub	w0, w0, w1
/*   1459 */	str	w0, [x19]
	.loc 39 1463 0
..LDL617:
/*   1463 */	cmp	w23, 0
/*   1463 */	blt	.L1498
	.loc 39 1469 0 is_stmt 0
..LDL618:
/*   1469 */	adrp	x0, _Z18ComputeSYMGS_BLOCKRK19SparseMatrix_STRUCTRK13Vector_STRUCTRS2_R9TraceData._OMP_5
	.loc 39 1464 0
..LDL619:
/*   1464 */	add	x22, x19, 32
	.loc 39 1469 0
..LDL620:
/*   1469 */	add	x21, x0, :lo12:_Z18ComputeSYMGS_BLOCKRK19SparseMatrix_STRUCTRK13Vector_STRUCTRS2_R9TraceData._OMP_5
	.p2align 5
.L1494:					// :entr
	.loc 39 1464 0 is_stmt 1
..LDL621:
/*   1464 */	ldr	x1, [x22]
/*   1464 */	ldr	w0, [x1, 344]	//  (*)
/*   1464 */	sub	w0, w0, 1
/*   1464 */	cmp	w23, w0
/*   1464 */	bge	.L1496
	.loc 39 1465 0
..LDL622:
/*   1465 */	ldr	w0, [x22, -28]
	.loc 37 1506 0 is_stmt 0
..LDL623:
/*   1506 */	ldr	x1, [x1, 304]	//  (*)
	.loc 39 1465 0
..LDL624:
/*   1465 */	add	x2, x20, 1
/*   1465 */	ldr	w2, [x1, x2, lsl #2]	//  (*)
/*   1465 */	sub	w0, w0, w2
/*   1465 */	str	w0, [x22, -28]
	.loc 39 1466 0 is_stmt 1
..LDL625:
/*   1466 */	ldr	w1, [x1, x20, lsl #2]	//  (*)
/*   1466 */	sub	w0, w0, w1
/*   1466 */	str	w0, [x22, -32]
.L1496:					// :term
	.loc 39 1469 0 is_stmt 0
..LDL626:
/*   1469 */	mov	x2, 0
/*   1469 */	mov	x0, x21
/*   1469 */	mov	x1, x19
/*   1469 */	bl	__mpc_opar
	.loc 39 1531 0 is_stmt 1
..LDL627:
/*   1531 */	subs	w23, w23, 1
/*   1531 */	sub	x20, x20, 1
/*   1531 */	bpl	.L1494
.L1498:
	.loc 39 1533 0
..LDL628:
/*   1533 */	mov	w0, 0
/*   1533 */	b	.L1500
.L1499:
	.loc 39 1378 0
..LDL629:
/*   1378 */	adrp	x0, .LR.1
/*   1378 */	adrp	x1, .LR.2
/*   1378 */	mov	w2, 1378
/*   1378 */	add	x0, x0, :lo12:.LR.1
/*   1378 */	add	x1, x1, :lo12:.LR.2
/*   1378 */	adrp	x3, .LR.4
/*   1378 */	add	x3, x3, :lo12:.LR.4
/*   1378 */	bl	__assert_fail
.L1500:					// :epi:term
	.loc 39 1534 0
..LDL630:
/*    ??? */	add	sp, sp, 64
	.cfi_def_cfa_offset 64
/*    ??? */	ldp	x19, x20, [sp, 32]	//  (*)
	.cfi_restore 19
	.cfi_restore 20
/*    ??? */	ldp	x21, x22, [sp, 16]	//  (*)
	.cfi_restore 21
	.cfi_restore 22
/*    ??? */	ldr	x23, [sp, 8]	//  (*)
	.cfi_restore 23
/*    ??? */	ldr	x30, [sp, 48]	//  (*)
	.cfi_restore 30
/*   1534 */	add	sp, sp, 64
	.cfi_def_cfa_offset 0
/*   1534 */	ret	
..D6.pchi:
	.cfi_endproc
.LFE5:
	.size	_Z18ComputeSYMGS_BLOCKRK19SparseMatrix_STRUCTRK13Vector_STRUCTRS2_R9TraceData, .-_Z18ComputeSYMGS_BLOCKRK19SparseMatrix_STRUCTRK13Vector_STRUCTRS2_R9TraceData
	.ident	"$Compiler: Fujitsu C/C++ Compiler 4.7.0 (Nov 10 2021 09:37:15) ../src/ComputeSYMGS.cpp _Z18ComputeSYMGS_BLOCKRK19SparseMatrix_STRUCTRK13Vector_STRUCTRS2_R9TraceData._OMP_4 $"
	.text
	.align	2
	.type	_Z18ComputeSYMGS_BLOCKRK19SparseMatrix_STRUCTRK13Vector_STRUCTRS2_R9TraceData._OMP_4, %function
_Z18ComputeSYMGS_BLOCKRK19SparseMatrix_STRUCTRK13Vector_STRUCTRS2_R9TraceData._OMP_4:
	.loc 39 1400 0
..LDL631:
.LFB6:
	.cfi_startproc
/*    ??? */	stp	x29, x30, [sp, -16]!	//  (*)
/*   1374 */	add	x29, sp, 0
	.cfi_def_cfa 29, 16
	.cfi_offset 29, -16
	.cfi_offset 30, -8
/*   1374 */	sub	sp, sp, 144
/*    ??? */	stp	x25, x26, [x29, -64]	//  (*)
	.cfi_offset 25, -80
	.cfi_offset 26, -72
/*   1374 */	mov	x25, x0
/*    ??? */	stp	x19, x20, [x29, -16]	//  (*)
	.cfi_offset 19, -32
	.cfi_offset 20, -24
/*   1374 */	add	x19, sp, 0
/*    ??? */	stp	x21, x22, [x29, -32]	//  (*)
	.cfi_offset 21, -48
	.cfi_offset 22, -40
/*    ??? */	stp	x23, x24, [x29, -48]	//  (*)
	.cfi_offset 23, -64
	.cfi_offset 24, -56
/*    ??? */	str	d8, [x29, -72]	//  (*)
	.cfi_offset 72, -88
/*    ??? */	sub	sp, sp, 32
/*   1374 */	mov	x5, sp
/*   1374 */	and	sp, x5, -64
/*   1374 */	str	x1, [x19, 48]
/*   1374 */	str	x2, [x19, 40]
/*   1374 */	str	x3, [x19, 32]
/*   1374 */	str	x4, [x19, 24]
	.loc 39 1400 0 is_stmt 0
..LDL632:
	.loc 39 1400 0 is_stmt 0
..LDL633:
	.loc 39 1402 0 is_stmt 1
..LDL634:
/*   1402 */	ldr	w1, [x25, 4]	//  "firstBlock"
/*   1402 */	ldr	x0, [x25, 32]	//  "A"
/*   1402 */	ldr	w2, [x25]	//  "lastBlock"
/*   1402 */	ldr	w21, [x0, 336]	//  (*)
/*   1402 */	cmp	w1, w2
/*   1402 */	bge	.L1534
/*   1402 */	add	x3, x19, 8
/*   1402 */	mov	x0, 1
	.loc 39 1426 0 is_stmt 0
..LDL635:
/*   1426 */	fmov	d8, 1.000000e+00
	.loc 39 1402 0
..LDL636:
/*   1402 */	str	x0, [x3]
/*   1402 */	sxtw	x23, w2
/*   1402 */	add	x22, x19, 0
/*   1402 */	sxtw	x24, w21
/*   1402 */	add	x20, x22, 16
.L1504:
/*   1402 */	sxtw	x0, w1
/*   1402 */	add	x2, x22, 8
/*   1402 */	ldr	x1, [x22, 32]
/*   1402 */	mov	x7, 0
/*   1402 */	mov	x4, x22
/*   1402 */	mov	x3, x7
/*   1402 */	mov	x5, x20
/*   1402 */	mov	x6, x7
/*   1402 */	str	x1, [sp, 8]	//  (*)
/*   1402 */	mov	x1, x23
/*   1402 */	str	x2, [sp]	//  (*)
/*   1402 */	mov	x2, x24
/*   1402 */	bl	__mpc_ortd_th
/*   1402 */	ldr	x0, [x22, 8]
/*   1402 */	cmp	x0, 0
/*   1402 */	ble	.L1534
/*   1402 */	ldr	x1, [x22]
/*   1402 */	ldr	x0, [x22, 16]
.L1506:					// :entr
	.loc 39 1403 0 is_stmt 1
..LDL637:
/*   1403 */	ldr	x3, [x25, 32]	//  "A"
/*   1403 */	ldr	w2, [x3, 332]	//  (*)
	.loc 39 1404 0
..LDL638:
/*   1404 */	ldr	w3, [x3, 336]	//  (*)
	.loc 39 1403 0
..LDL639:
/*   1403 */	mul	w4, w2, w1
	.loc 39 1404 0
..LDL640:
/*   1404 */	sdiv	w5, w4, w3
	.loc 39 1405 0
..LDL641:
/*   1405 */	madd	w2, w2, w3, w4
/*   1405 */	sdiv	w2, w2, w3
	.loc 39 1407 0
..LDL642:
/*   1407 */	sub	w6, w2, w5
/*   1407 */	cmp	w5, w2
/*   1407 */	bge	.L1531
.L1509:					// :entr
	.loc 39 1408 0
..LDL643:
/*   1408 */	ldr	x2, [x25, 32]	//  "A"
/*   1408 */	ldr	w4, [x2, 336]	//  (*)
/*   1408 */	mul	w3, w4, w5
	.loc 39 1413 0
..LDL644:
/*   1413 */	cmp	w4, 4
	.loc 39 1414 0 is_stmt 0
..LDL645:
/*   1414 */	sxtw	x7, w3
	.loc 39 1413 0
..LDL646:
/*   1413 */	bne	.L1516
	.loc 39 1414 0 is_stmt 1
..LDL647:
/*   1414 */	ldr	x3, [x25, 16]	//  "rv"
	.loc 39 1415 0
..LDL648:
/*   1415 */	add	x8, x7, 1
	.loc 39 1416 0
..LDL649:
/*   1416 */	add	x9, x7, 2
	.loc 37 1506 0
..LDL650:
/*   1506 */	ldr	x4, [x2, 256]	//  (*)
	.loc 39 1417 0
..LDL651:
/*   1417 */	add	x10, x7, 3
	.loc 39 1419 0
..LDL652:
/*   1419 */	sxtw	x12, w5
/*   1419 */	mov	w11, 0
	.loc 39 1414 0
..LDL653:
/*   1414 */	ldr	d2, [x3, x7, lsl #3]	//  (*)
	.loc 39 1415 0
..LDL654:
/*   1415 */	ldr	d3, [x3, x8, lsl #3]	//  (*)
	.loc 37 1506 0
..LDL655:
/*   1506 */	add	x13, x4, x12, lsl #2
	.loc 39 1416 0
..LDL656:
/*   1416 */	ldr	d1, [x3, x9, lsl #3]	//  (*)
	.loc 39 1417 0
..LDL657:
/*   1417 */	ldr	d0, [x3, x10, lsl #3]	//  (*)
	.loc 39 1419 0
..LDL658:
/*   1419 */	ldr	w3, [x13]	//  (*)
/*   1419 */	cmp	w3, 0
/*   1419 */	ble	.L1515
/*   1420 */	ldp	x2, x30, [x2, 64]	//  (*)
	.loc 39 1420 0 is_stmt 0
..LDL659:
/*   1420 */	mov	x3, 0
	.loc 39 1424 0
..LDL660:
/*   1424 */	ldr	w4, [x4, x12, lsl #2]	//  (*)
	.loc 39 1420 0
..LDL661:
/*   1420 */	ldr	x14, [x25, 8]	//  "xv"
/*   1420 */	ldr	x13, [x30, x7, lsl #3]	//  (*)
/*   1420 */	ldr	x12, [x2, x7, lsl #3]	//  (*)
	.loc 39 1421 0
..LDL662:
/*   1421 */	ldr	x16, [x30, x8, lsl #3]	//  (*)
/*   1421 */	ldr	x15, [x2, x8, lsl #3]	//  (*)
	.loc 39 1422 0
..LDL663:
/*   1422 */	ldr	x18, [x30, x9, lsl #3]	//  (*)
/*   1422 */	ldr	x17, [x2, x9, lsl #3]	//  (*)
	.loc 39 1423 0
..LDL664:
/*   1423 */	ldr	x30, [x30, x10, lsl #3]	//  (*)
/*   1423 */	ldr	x2, [x2, x10, lsl #3]	//  (*)
	.p2align 5
.L1513:					// :entr:term
	.loc 39 1420 0 is_stmt 1
..LDL665:
/*   1420 */	ldrsw	x26, [x12, x3, lsl #2]	//  (*)
/*   1420 */	ldr	d5, [x13, x3, lsl #3]	//  (*)
	.loc 39 1424 0
..LDL666:
/*   1424 */	add	w11, w11, 1
	.loc 39 1421 0
..LDL667:
/*   1421 */	ldr	d6, [x16, x3, lsl #3]	//  (*)
	.loc 39 1424 0
..LDL668:
/*   1424 */	cmp	w11, w4
	.loc 39 1420 0
..LDL669:
/*   1420 */	ldr	d4, [x14, x26, lsl #3]	//  (*)
	.loc 39 1421 0
..LDL670:
/*   1421 */	ldrsw	x26, [x15, x3, lsl #2]	//  (*)
/*   1421 */	ldr	d7, [x14, x26, lsl #3]	//  (*)
	.loc 39 1422 0
..LDL671:
/*   1422 */	ldrsw	x26, [x17, x3, lsl #2]	//  (*)
	.loc 39 1420 0
..LDL672:
/*   1420 */	fmsub	d2, d5, d4, d2
	.loc 39 1422 0
..LDL673:
/*   1422 */	ldr	d4, [x18, x3, lsl #3]	//  (*)
/*   1422 */	ldr	d5, [x14, x26, lsl #3]	//  (*)
	.loc 39 1423 0
..LDL674:
/*   1423 */	ldrsw	x26, [x2, x3, lsl #2]	//  (*)
	.loc 39 1421 0
..LDL675:
/*   1421 */	fmsub	d3, d6, d7, d3
	.loc 39 1423 0
..LDL676:
/*   1423 */	ldr	d7, [x30, x3, lsl #3]	//  (*)
	.loc 39 1424 0
..LDL677:
/*   1424 */	add	x3, x3, 1
	.loc 39 1423 0
..LDL678:
/*   1423 */	ldr	d6, [x14, x26, lsl #3]	//  (*)
	.loc 39 1422 0
..LDL679:
/*   1422 */	fmsub	d1, d4, d5, d1
	.loc 39 1423 0
..LDL680:
/*   1423 */	fmsub	d0, d7, d6, d0
	.loc 39 1424 0
..LDL681:
/*   1424 */	blt	.L1513
.L1515:
	.loc 39 1426 0
..LDL682:
	.loc 39 1425 0 is_stmt 0
..LDL683:
/*   1425 */	ldr	x2, [x25, 8]	//  "xv"
/*   1425 */	ldr	x3, [x25, 24]	//  "matrixDiagonal"
/*   1425 */	ldr	x3, [x3, x7, lsl #3]	//  (*)
/*   1425 */	ldr	d4, [x2, x7, lsl #3]	//  (*)
/*   1425 */	ldr	d5, [x3]	//  (*)
	.loc 39 1426 0
..LDL684:
/*   1426 */	fmadd	d4, d4, d5, d2
/*   1426 */	frecpe	d6, d5
/*   1426 */	fmsub	d2, d5, d6, d8
/*   1426 */	fmul	d6, d4, d6
/*   1426 */	fmadd	d4, d2, d2, d2
/*   1426 */	fmul	d5, d2, d2
/*   1426 */	fmadd	d4, d4, d6, d6
/*   1426 */	fmadd	d2, d5, d5, d2
/*   1426 */	fmadd	d2, d2, d4, d6
/*   1426 */	str	d2, [x2, x7, lsl #3]	//  (*)
	.loc 39 1427 0 is_stmt 1
..LDL685:
/*   1427 */	ldr	x3, [x25, 24]	//  "matrixDiagonal"
	.loc 39 1428 0
..LDL686:
	.loc 39 1427 0 is_stmt 0
..LDL687:
/*   1427 */	ldr	d4, [x2, x8, lsl #3]	//  (*)
	.loc 39 1427 0 is_stmt 1
..LDL688:
/*   1427 */	ldr	x3, [x3, x8, lsl #3]	//  (*)
	.loc 39 1428 0
..LDL689:
	.loc 39 1427 0 is_stmt 0
..LDL690:
/*   1427 */	ldr	d2, [x3]	//  (*)
	.loc 39 1428 0
..LDL691:
/*   1428 */	fmadd	d4, d4, d2, d3
/*   1428 */	frecpe	d3, d2
/*   1428 */	fmsub	d2, d2, d3, d8
/*   1428 */	fmul	d4, d4, d3
/*   1428 */	fmadd	d5, d2, d2, d2
/*   1428 */	fmul	d3, d2, d2
/*   1428 */	fmadd	d5, d5, d4, d4
/*   1428 */	fmadd	d2, d3, d3, d2
/*   1428 */	fmadd	d2, d2, d5, d4
/*   1428 */	str	d2, [x2, x8, lsl #3]	//  (*)
	.loc 39 1429 0 is_stmt 1
..LDL692:
/*   1429 */	ldr	x3, [x25, 24]	//  "matrixDiagonal"
	.loc 39 1430 0
..LDL693:
	.loc 39 1429 0 is_stmt 0
..LDL694:
/*   1429 */	ldr	d2, [x2, x9, lsl #3]	//  (*)
	.loc 39 1429 0 is_stmt 1
..LDL695:
/*   1429 */	ldr	x3, [x3, x9, lsl #3]	//  (*)
	.loc 39 1430 0
..LDL696:
	.loc 39 1429 0 is_stmt 0
..LDL697:
/*   1429 */	ldr	d3, [x3]	//  (*)
	.loc 39 1430 0
..LDL698:
/*   1430 */	fmadd	d4, d2, d3, d1
/*   1430 */	frecpe	d2, d3
/*   1430 */	fmsub	d1, d3, d2, d8
/*   1430 */	fmul	d2, d4, d2
/*   1430 */	fmadd	d3, d1, d1, d1
/*   1430 */	fmul	d4, d1, d1
/*   1430 */	fmadd	d3, d3, d2, d2
/*   1430 */	fmadd	d1, d4, d4, d1
/*   1430 */	fmadd	d1, d1, d3, d2
/*   1430 */	str	d1, [x2, x9, lsl #3]	//  (*)
	.loc 39 1431 0 is_stmt 1
..LDL699:
/*   1431 */	ldr	x3, [x25, 24]	//  "matrixDiagonal"
	.loc 39 1432 0
..LDL700:
	.loc 39 1431 0 is_stmt 0
..LDL701:
/*   1431 */	ldr	d1, [x2, x10, lsl #3]	//  (*)
	.loc 39 1431 0 is_stmt 1
..LDL702:
/*   1431 */	ldr	x3, [x3, x10, lsl #3]	//  (*)
	.loc 39 1432 0
..LDL703:
	.loc 39 1431 0 is_stmt 0
..LDL704:
/*   1431 */	ldr	d3, [x3]	//  (*)
	.loc 39 1432 0
..LDL705:
/*   1432 */	fmadd	d1, d1, d3, d0
/*   1432 */	frecpe	d2, d3
/*   1432 */	fmsub	d0, d3, d2, d8
/*   1432 */	fmul	d2, d1, d2
/*   1432 */	fmadd	d3, d0, d0, d0
/*   1432 */	fmul	d1, d0, d0
/*   1432 */	fmadd	d3, d3, d2, d2
/*   1432 */	fmadd	d0, d1, d1, d0
/*   1432 */	fmadd	d0, d0, d3, d2
/*   1432 */	str	d0, [x2, x10, lsl #3]	//  (*)
	.loc 39 1433 0
..LDL706:
/*   1433 */	b	.L1529
.L1516:
	.loc 39 1433 0 is_stmt 1
..LDL707:
	.loc 39 1434 0 is_stmt 0
..LDL708:
/*   1434 */	ldr	x8, [x25, 16]	//  "rv"
	.loc 39 1437 0
..LDL709:
/*   1437 */	add	x10, x2, 256
/*   1437 */	sxtw	x3, w5
	.loc 39 1433 0
..LDL710:
/*   1433 */	cmp	w4, 2
	.loc 39 1434 0
..LDL711:
/*   1434 */	ldr	d1, [x8, x7, lsl #3]	//  (*)
	.loc 39 1433 0
..LDL712:
/*   1433 */	beq	.L1523
	.loc 39 1448 0 is_stmt 1
..LDL713:
/*   1448 */	mov	w4, 0
	.loc 37 1506 0
..LDL714:
/*   1506 */	ldr	x8, [x10]	//  (*)
/*   1506 */	add	x8, x8, x3, lsl #2
	.loc 39 1448 0
..LDL715:
/*   1448 */	ldr	w8, [x8]	//  (*)
/*   1448 */	cmp	w8, 0
/*   1448 */	ble	.L1522
/*   1449 */	ldp	x8, x11, [x2, 64]	//  (*)
	.loc 39 1449 0 is_stmt 0
..LDL716:
/*   1449 */	mov	x9, 0
	.loc 37 1506 0
..LDL717:
/*   1506 */	ldr	x2, [x2, 256]	//  (*)
	.loc 39 1449 0
..LDL718:
/*   1449 */	ldr	x10, [x25, 8]	//  "xv"
/*   1449 */	ldr	x11, [x11, x7, lsl #3]	//  (*)
/*   1449 */	ldr	x8, [x8, x7, lsl #3]	//  (*)
	.loc 39 1450 0
..LDL719:
/*   1450 */	ldr	w3, [x2, x3, lsl #2]	//  (*)
	.p2align 5
.L1520:					// :entr:term
	.loc 39 1449 0 is_stmt 1
..LDL720:
/*   1449 */	ldrsw	x2, [x8, x9, lsl #2]	//  (*)
/*   1449 */	ldr	d2, [x11, x9, lsl #3]	//  (*)
	.loc 39 1450 0
..LDL721:
/*   1450 */	add	w4, w4, 1
/*   1450 */	add	x9, x9, 1
/*   1450 */	cmp	w4, w3
	.loc 39 1449 0
..LDL722:
/*   1449 */	ldr	d0, [x10, x2, lsl #3]	//  (*)
/*   1449 */	fmsub	d1, d2, d0, d1
	.loc 39 1450 0
..LDL723:
/*   1450 */	blt	.L1520
.L1522:
	.loc 39 1452 0
..LDL724:
	.loc 39 1451 0 is_stmt 0
..LDL725:
/*   1451 */	ldr	x2, [x25, 8]	//  "xv"
/*   1451 */	ldr	x3, [x25, 24]	//  "matrixDiagonal"
/*   1451 */	ldr	x3, [x3, x7, lsl #3]	//  (*)
/*   1451 */	ldr	d2, [x2, x7, lsl #3]	//  (*)
/*   1451 */	ldr	d0, [x3]	//  (*)
	.loc 39 1452 0
..LDL726:
/*   1452 */	fmadd	d2, d2, d0, d1
/*   1452 */	frecpe	d1, d0
/*   1452 */	fmsub	d0, d0, d1, d8
/*   1452 */	fmul	d1, d2, d1
/*   1452 */	fmadd	d3, d0, d0, d0
/*   1452 */	fmul	d2, d0, d0
/*   1452 */	fmadd	d3, d3, d1, d1
/*   1452 */	fmadd	d0, d2, d2, d0
/*   1452 */	fmadd	d0, d0, d3, d1
/*   1452 */	str	d0, [x2, x7, lsl #3]	//  (*)
	.loc 39 1453 0
..LDL727:
/*   1453 */	b	.L1529
.L1523:
	.loc 39 1435 0 is_stmt 1
..LDL728:
/*   1435 */	add	x9, x7, 1
	.loc 37 1506 0
..LDL729:
/*   1506 */	ldr	x4, [x10]	//  (*)
	.loc 39 1435 0
..LDL730:
/*   1435 */	ldr	d0, [x8, x9, lsl #3]	//  (*)
	.loc 39 1437 0
..LDL731:
/*   1437 */	mov	w8, 0
	.loc 37 1506 0
..LDL732:
/*   1506 */	add	x4, x4, x3, lsl #2
	.loc 39 1437 0
..LDL733:
/*   1437 */	ldr	w4, [x4]	//  (*)
/*   1437 */	cmp	w4, 0
/*   1437 */	ble	.L1528
/*   1438 */	ldp	x12, x10, [x2, 64]	//  (*)
	.loc 39 1438 0 is_stmt 0
..LDL734:
/*   1438 */	mov	x4, 0
	.loc 37 1506 0
..LDL735:
/*   1506 */	ldr	x2, [x2, 256]	//  (*)
	.loc 39 1438 0
..LDL736:
/*   1438 */	ldr	x11, [x25, 8]	//  "xv"
/*   1438 */	ldr	x14, [x10, x7, lsl #3]	//  (*)
/*   1438 */	ldr	x13, [x12, x7, lsl #3]	//  (*)
	.loc 39 1439 0
..LDL737:
/*   1439 */	ldr	x10, [x10, x9, lsl #3]	//  (*)
/*   1439 */	ldr	x12, [x12, x9, lsl #3]	//  (*)
	.loc 39 1440 0
..LDL738:
/*   1440 */	ldr	w3, [x2, x3, lsl #2]	//  (*)
	.p2align 5
.L1526:					// :entr:term
	.loc 39 1438 0 is_stmt 1
..LDL739:
/*   1438 */	ldrsw	x2, [x13, x4, lsl #2]	//  (*)
	.loc 39 1439 0
..LDL740:
/*   1439 */	ldrsw	x15, [x12, x4, lsl #2]	//  (*)
	.loc 39 1440 0
..LDL741:
/*   1440 */	add	w8, w8, 1
	.loc 39 1438 0
..LDL742:
/*   1438 */	ldr	d5, [x14, x4, lsl #3]	//  (*)
	.loc 39 1439 0
..LDL743:
/*   1439 */	ldr	d4, [x10, x4, lsl #3]	//  (*)
	.loc 39 1440 0
..LDL744:
/*   1440 */	add	x4, x4, 1
/*   1440 */	cmp	w8, w3
	.loc 39 1438 0
..LDL745:
/*   1438 */	ldr	d3, [x11, x2, lsl #3]	//  (*)
	.loc 39 1439 0
..LDL746:
/*   1439 */	ldr	d2, [x11, x15, lsl #3]	//  (*)
	.loc 39 1438 0
..LDL747:
/*   1438 */	fmsub	d1, d5, d3, d1
	.loc 39 1439 0
..LDL748:
/*   1439 */	fmsub	d0, d4, d2, d0
	.loc 39 1440 0 is_stmt 0
..LDL749:
/*   1440 */	blt	.L1526
.L1528:
	.loc 39 1442 0 is_stmt 1
..LDL750:
	.loc 39 1441 0 is_stmt 0
..LDL751:
/*   1441 */	ldr	x2, [x25, 8]	//  "xv"
/*   1441 */	ldr	x3, [x25, 24]	//  "matrixDiagonal"
/*   1441 */	ldr	x3, [x3, x7, lsl #3]	//  (*)
/*   1441 */	ldr	d3, [x2, x7, lsl #3]	//  (*)
/*   1441 */	ldr	d2, [x3]	//  (*)
	.loc 39 1442 0
..LDL752:
/*   1442 */	fmadd	d1, d3, d2, d1
/*   1442 */	frecpe	d3, d2
/*   1442 */	fmsub	d2, d2, d3, d8
/*   1442 */	fmul	d3, d1, d3
/*   1442 */	fmadd	d1, d2, d2, d2
/*   1442 */	fmul	d4, d2, d2
/*   1442 */	fmadd	d1, d1, d3, d3
/*   1442 */	fmadd	d2, d4, d4, d2
/*   1442 */	fmadd	d1, d2, d1, d3
/*   1442 */	str	d1, [x2, x7, lsl #3]	//  (*)
	.loc 39 1443 0 is_stmt 1
..LDL753:
/*   1443 */	ldr	x3, [x25, 24]	//  "matrixDiagonal"
	.loc 39 1444 0
..LDL754:
	.loc 39 1443 0 is_stmt 0
..LDL755:
/*   1443 */	ldr	d2, [x2, x9, lsl #3]	//  (*)
	.loc 39 1443 0 is_stmt 1
..LDL756:
/*   1443 */	ldr	x3, [x3, x9, lsl #3]	//  (*)
	.loc 39 1444 0
..LDL757:
	.loc 39 1443 0 is_stmt 0
..LDL758:
/*   1443 */	ldr	d1, [x3]	//  (*)
	.loc 39 1444 0
..LDL759:
/*   1444 */	fmadd	d3, d2, d1, d0
/*   1444 */	frecpe	d0, d1
/*   1444 */	fmsub	d2, d1, d0, d8
/*   1444 */	fmul	d1, d3, d0
/*   1444 */	fmadd	d3, d2, d2, d2
/*   1444 */	fmul	d0, d2, d2
/*   1444 */	fmadd	d3, d3, d1, d1
/*   1444 */	fmadd	d0, d0, d0, d2
/*   1444 */	fmadd	d0, d0, d3, d1
/*   1444 */	str	d0, [x2, x9, lsl #3]	//  (*)
.L1529:					// :term
	.loc 39 1454 0 is_stmt 1
..LDL760:
/*   1454 */	add	w5, w5, 1
/*   1454 */	subs	w6, w6, 1
/*   1454 */	bne	.L1509
.L1531:					// :term
	.loc 39 1455 0
..LDL761:
/*   1455 */	add	w1, w21, w1
/*   1455 */	cmp	w1, w0
/*   1455 */	ble	.L1506
/*   1455 */	b	.L1504
.L1534:
/*   1455 */	add	x20, x19, 8
/*   1455 */	ldr	x0, [x20, 24]
/*   1455 */	bl	__mpc_obar
/*   1455 */	ldr	x0, [x20, 24]
/*   1455 */	bl	__mpc_obar
/*    ??? */	ldp	x19, x20, [x29, -16]	//  (*)
	.cfi_restore 19
	.cfi_restore 20
/*    ??? */	ldr	d8, [x29, -72]	//  (*)
	.cfi_restore 72
/*    ??? */	ldp	x21, x22, [x29, -32]	//  (*)
	.cfi_restore 21
	.cfi_restore 22
/*    ??? */	ldp	x23, x24, [x29, -48]	//  (*)
	.cfi_restore 23
	.cfi_restore 24
/*    ??? */	ldp	x25, x26, [x29, -64]	//  (*)
	.cfi_restore 25
	.cfi_restore 26
/*    ??? */	add	sp, x29, 0
/*    ??? */	ldp	x29, x30, [sp], 16	//  (*)
	.cfi_restore 29
	.cfi_restore 30
	.cfi_def_cfa_offset 0
/*   1455 */	ret	
..D7.pchi:
	.cfi_endproc
.LFE6:
	.size	_Z18ComputeSYMGS_BLOCKRK19SparseMatrix_STRUCTRK13Vector_STRUCTRS2_R9TraceData._OMP_4, .-_Z18ComputeSYMGS_BLOCKRK19SparseMatrix_STRUCTRK13Vector_STRUCTRS2_R9TraceData._OMP_4
	.ident	"$Compiler: Fujitsu C/C++ Compiler 4.7.0 (Nov 10 2021 09:37:15) ../src/ComputeSYMGS.cpp _Z18ComputeSYMGS_BLOCKRK19SparseMatrix_STRUCTRK13Vector_STRUCTRS2_R9TraceData._OMP_5 $"
	.text
	.align	2
	.type	_Z18ComputeSYMGS_BLOCKRK19SparseMatrix_STRUCTRK13Vector_STRUCTRS2_R9TraceData._OMP_5, %function
_Z18ComputeSYMGS_BLOCKRK19SparseMatrix_STRUCTRK13Vector_STRUCTRS2_R9TraceData._OMP_5:
	.loc 39 1469 0
..LDL762:
.LFB7:
	.cfi_startproc
/*    ??? */	stp	x29, x30, [sp, -16]!	//  (*)
/*   1455 */	add	x29, sp, 0
	.cfi_def_cfa 29, 16
	.cfi_offset 29, -16
	.cfi_offset 30, -8
/*   1455 */	sub	sp, sp, 240
/*    ??? */	stp	x19, x20, [x29, -16]	//  (*)
	.cfi_offset 19, -32
	.cfi_offset 20, -24
/*    ??? */	stp	d8, d9, [x29, -96]	//  (*)
	.cfi_offset 72, -112
	.cfi_offset 73, -104
/*   1455 */	add	x19, sp, 0
/*   1455 */	mov	x20, x0
/*    ??? */	stp	x21, x22, [x29, -32]	//  (*)
	.cfi_offset 21, -48
	.cfi_offset 22, -40
/*    ??? */	stp	d10, d11, [x29, -112]	//  (*)
	.cfi_offset 74, -128
	.cfi_offset 75, -120
/*    ??? */	stp	x23, x24, [x29, -48]	//  (*)
	.cfi_offset 23, -64
	.cfi_offset 24, -56
/*    ??? */	stp	d12, d13, [x29, -128]	//  (*)
	.cfi_offset 76, -144
	.cfi_offset 77, -136
/*    ??? */	stp	x25, x26, [x29, -64]	//  (*)
	.cfi_offset 25, -80
	.cfi_offset 26, -72
/*    ??? */	stp	d14, d15, [x29, -144]	//  (*)
	.cfi_offset 78, -160
	.cfi_offset 79, -152
/*    ??? */	stp	x27, x28, [x29, -80]	//  (*)
	.cfi_offset 27, -96
	.cfi_offset 28, -88
/*    ??? */	sub	sp, sp, 32
/*   1455 */	mov	x5, sp
/*   1455 */	and	sp, x5, -64
/*   1455 */	str	x1, [x19, 80]
/*   1455 */	str	x2, [x19, 72]
/*   1455 */	str	x3, [x19, 64]
/*   1455 */	str	x4, [x19, 56]
	.loc 39 1469 0 is_stmt 0
..LDL763:
	.loc 39 1469 0 is_stmt 0
..LDL764:
	.loc 39 1471 0 is_stmt 1
..LDL765:
/*   1471 */	ldr	w26, [x20, 4]	//  "firstBlock"
/*   1471 */	ldr	x0, [x20, 32]	//  "A"
/*   1471 */	ldr	w1, [x20]	//  "lastBlock"
/*   1471 */	ldr	w28, [x0, 336]	//  (*)
/*   1471 */	cmp	w26, w1
/*   1471 */	neg	w2, w28
/*   1471 */	ble	.L1578
/*   1471 */	add	x0, x19, 40
/*   1471 */	mov	x3, 1
	.loc 39 1495 0 is_stmt 0
..LDL766:
/*   1495 */	fmov	d15, 1.000000e+00
	.loc 39 1471 0
..LDL767:
/*   1471 */	str	x3, [x0]
/*   1471 */	sxtw	x0, w1
	.loc 39 1488 0
..LDL768:
/*   1488 */	mov	x24, 0
	.loc 39 1471 0
..LDL769:
/*    ??? */	str	x0, [x19, 8]	//  (*)
/*   1471 */	sxtw	x0, w2
/*    ??? */	str	x0, [x19]	//  (*)
.L1539:
/*   1471 */	add	x1, x19, 32
/*   1471 */	mov	x7, 0
/*   1471 */	add	x2, x1, 8
/*   1471 */	add	x1, x19, 32
/*   1471 */	sxtw	x0, w26
/*   1471 */	ldr	x1, [x1, 32]
/*   1471 */	add	x5, x19, 32
/*   1471 */	mov	x3, x7
/*   1471 */	add	x4, x19, 32
/*   1471 */	add	x5, x5, 16
/*   1471 */	mov	x6, x7
/*   1471 */	str	x1, [sp, 8]	//  (*)
/*    ??? */	ldr	x1, [x19, 8]	//  (*)
/*   1471 */	str	x2, [sp]	//  (*)
/*    ??? */	ldr	x2, [x19]	//  (*)
/*   1471 */	bl	__mpc_ortd_th
/*   1471 */	add	x0, x19, 32
/*   1471 */	ldr	x0, [x0, 8]
/*   1471 */	cmp	x0, 0
/*   1471 */	ble	.L1578
/*   1471 */	add	x0, x19, 32
	.loc 39 1488 0
..LDL770:
/*   1488 */	ptrue	p0.d, ALL
	.loc 39 1471 0
..LDL771:
/*   1471 */	ldr	x26, [x0]
/*   1471 */	add	x0, x19, 32
/*   1471 */	ldr	x27, [x0, 16]
	.loc 39 1476 0 is_stmt 1
..LDL772:
	.loc 39 1489 0 is_stmt 0
..LDL773:
/*   1489 */	index	z29.d, 0, -1
/*   1489 */	fmov	z13.d, 0.000000e+00
.L1541:					// :entr
	.loc 39 1472 0 is_stmt 1
..LDL774:
/*   1472 */	add	w2, w26, 1
/*   1472 */	ldr	x0, [x20, 32]	//  "A"
/*   1472 */	ldr	w1, [x0, 332]	//  (*)
	.loc 39 1473 0
..LDL775:
/*   1473 */	ldr	w0, [x0, 336]	//  (*)
	.loc 39 1472 0
..LDL776:
/*   1472 */	mul	w2, w1, w2
/*   1472 */	sub	w2, w2, 1
	.loc 39 1473 0
..LDL777:
/*   1473 */	sdiv	w10, w2, w0
	.loc 39 1474 0
..LDL778:
/*   1474 */	msub	w1, w1, w0, w2
/*   1474 */	sdiv	w0, w1, w0
	.loc 39 1476 0
..LDL779:
/*   1476 */	add	w1, w0, 1
/*   1476 */	cmp	w10, w0
/*   1476 */	sub	w1, w10, w1
/*   1476 */	add	w25, w1, 1
/*   1476 */	ble	.L1575
.L1544:					// :entr
	.loc 39 1477 0
..LDL780:
/*   1477 */	ldr	x0, [x20, 32]	//  "A"
	.loc 39 1481 0
..LDL781:
/*   1481 */	add	w1, w10, 1
	.loc 39 1477 0
..LDL782:
/*   1477 */	ldr	w3, [x0, 336]	//  (*)
	.loc 39 1481 0
..LDL783:
/*   1481 */	mul	w1, w1, w3
	.loc 39 1482 0
..LDL784:
/*   1482 */	cmp	w3, 4
	.loc 39 1481 0
..LDL785:
/*   1481 */	sub	w1, w1, 1
	.loc 39 1482 0
..LDL786:
	.loc 39 1483 0 is_stmt 0
..LDL787:
/*   1483 */	sxtw	x12, w1
	.loc 39 1482 0
..LDL788:
/*   1482 */	bne	.L1554
	.loc 39 1483 0 is_stmt 1
..LDL789:
/*   1483 */	ldr	x3, [x20, 16]	//  "rv"
/*   1483 */	sub	x11, x12, 3
	.loc 39 1484 0
..LDL790:
/*   1484 */	sub	x21, x12, 2
	.loc 37 1506 0
..LDL791:
/*   1506 */	ldr	x2, [x0, 256]	//  (*)
	.loc 39 1485 0
..LDL792:
/*   1485 */	sub	x30, x12, 1
	.loc 39 1488 0
..LDL793:
/*   1488 */	sxtw	x1, w10
	.loc 39 1483 0
..LDL794:
/*   1483 */	ldr	d10, [x3, x11, lsl #3]	//  (*)
	.loc 39 1484 0
..LDL795:
/*   1484 */	ldr	d14, [x3, x21, lsl #3]	//  (*)
	.loc 39 1485 0
..LDL796:
/*   1485 */	ldr	d12, [x3, x30, lsl #3]	//  (*)
	.loc 39 1486 0
..LDL797:
/*   1486 */	ldr	d11, [x3, x12, lsl #3]	//  (*)
	.loc 39 1488 0
..LDL798:
/*   1488 */	ldr	w1, [x2, x1, lsl #2]	//  (*)
/*   1488 */	sub	w3, w1, 1
/*   1488 */	cmp	w1, 0
/*   1488 */	csel	w2, w1, wzr, ge
/*   1488 */	cmp	w3, 0
/*   1488 */	blt	.L1553
/*   1489 */	ldp	x0, x1, [x0, 64]	//  (*)
	.loc 39 1489 0 is_stmt 0
..LDL799:
/*   1489 */	sxtw	x22, w3
	.loc 39 1488 0
..LDL800:
/*   1488 */	asr	w3, w2, 2
/*   1488 */	add	w3, w2, w3, lsr #29
/*   1488 */	asr	w13, w3, 3
/*   1488 */	sub	w23, w2, w13, lsl #3
	.loc 39 1489 0
..LDL801:
/*   1489 */	ldr	x2, [x0, x11, lsl #3]	//  (*)
	.loc 39 1490 0
..LDL802:
/*   1490 */	ldr	x4, [x0, x21, lsl #3]	//  (*)
	.loc 39 1489 0
..LDL803:
/*   1489 */	ldr	x3, [x1, x11, lsl #3]	//  (*)
	.loc 39 1491 0
..LDL804:
/*   1491 */	ldr	x6, [x0, x30, lsl #3]	//  (*)
	.loc 39 1490 0
..LDL805:
/*   1490 */	ldr	x5, [x1, x21, lsl #3]	//  (*)
	.loc 39 1491 0
..LDL806:
/*   1491 */	ldr	x7, [x1, x30, lsl #3]	//  (*)
	.loc 39 1492 0
..LDL807:
/*   1492 */	ldr	x8, [x1, x12, lsl #3]	//  (*)
/*   1492 */	ldr	x0, [x0, x12, lsl #3]	//  (*)
	.loc 39 1488 0
..LDL808:
/*   1488 */	cbz	w13, .L1550
	.loc 39 1489 0
..LDL809:
/*   1489 */	ldr	x1, [x20, 8]	//  "xv"
/*   1489 */	mov	w9, w13
/*   1489 */	mov	z5.d, z13.d
/*   1489 */	mov	z4.d, z13.d
/*   1489 */	mov	x14, x22
/*   1489 */	mov	z3.d, z13.d
/*   1489 */	mov	z1.d, z13.d
	.loc 39 1488 0
..LDL810:
/*   1488 */	cmp	w9, 4
/*   1488 */	blt	.L1752
	.loc 39 1489 0
..LDL811:
/*   1489 */	mov	x16, x14
	.loc 39 1488 0
..LDL812:
/*   1488 */	sub	x14, x14, 8
	.loc 39 1489 0
..LDL813:
/*   1489 */	add	x15, x2, x16, lsl #2
/*   1489 */	ld1sw	{z6.d}, p0/z, [x15, z29.d, lsl #2]	//  (*)
	.loc 39 1490 0
..LDL814:
/*   1490 */	add	x15, x4, x16, lsl #2
/*   1490 */	ld1sw	{z2.d}, p0/z, [x15, z29.d, lsl #2]	//  (*)
	.loc 39 1491 0
..LDL815:
/*   1491 */	add	x15, x6, x16, lsl #2
/*   1491 */	ld1sw	{z0.d}, p0/z, [x15, z29.d, lsl #2]	//  (*)
	.loc 39 1492 0
..LDL816:
/*   1492 */	add	x15, x0, x16, lsl #2
/*   1492 */	ld1sw	{z23.d}, p0/z, [x15, z29.d, lsl #2]	//  (*)
	.loc 39 1489 0
..LDL817:
/*   1489 */	mov	x15, x14
/*   1489 */	add	x17, x2, x15, lsl #2
/*   1489 */	ld1sw	{z22.d}, p0/z, [x17, z29.d, lsl #2]	//  (*)
/*   1489 */	add	x17, x3, x16, lsl #3
/*   1489 */	ld1d	{z17.d}, p0/z, [x17, z29.d, lsl #3]	//  (*)
	.loc 39 1490 0
..LDL818:
/*   1490 */	add	x17, x4, x15, lsl #2
/*   1490 */	ld1sw	{z21.d}, p0/z, [x17, z29.d, lsl #2]	//  (*)
/*   1490 */	add	x17, x5, x16, lsl #3
/*   1490 */	ld1d	{z18.d}, p0/z, [x17, z29.d, lsl #3]	//  (*)
	.loc 39 1491 0
..LDL819:
/*   1491 */	add	x17, x6, x15, lsl #2
/*   1491 */	ld1sw	{z7.d}, p0/z, [x17, z29.d, lsl #2]	//  (*)
/*   1491 */	add	x17, x7, x16, lsl #3
	.loc 39 1489 0
..LDL820:
/*   1489 */	ld1d	{z16.d}, p0/z, [x1, z6.d, lsl #3]	//  (*)
	.loc 39 1491 0
..LDL821:
/*   1491 */	ld1d	{z19.d}, p0/z, [x17, z29.d, lsl #3]	//  (*)
	.loc 39 1492 0
..LDL822:
/*   1492 */	add	x17, x8, x16, lsl #3
	.loc 39 1490 0
..LDL823:
/*   1490 */	ld1d	{z6.d}, p0/z, [x1, z2.d, lsl #3]	//  (*)
	.loc 39 1491 0
..LDL824:
/*   1491 */	ld1d	{z20.d}, p0/z, [x1, z0.d, lsl #3]	//  (*)
	.p2align 5
.L1548:					// :entr:term:swpl
	.loc 39 1492 0
..LDL825:
/*   1492 */	add	x16, x0, x15, lsl #2
/*   1492 */	ld1d	{z0.d}, p0/z, [x1, z23.d, lsl #3]	//  (*)
/*   1492 */	ld1d	{z2.d}, p0/z, [x17, z29.d, lsl #3]	//  (*)
/*   1492 */	ld1sw	{z23.d}, p0/z, [x16, z29.d, lsl #2]	//  (*)
	.loc 39 1488 0
..LDL826:
/*   1488 */	sub	x16, x14, 8
	.loc 39 1489 0
..LDL827:
/*   1489 */	add	x17, x2, x16, lsl #2
/*   1489 */	add	x18, x3, x15, lsl #3
/*   1489 */	ld1sw	{z9.d}, p0/z, [x17, z29.d, lsl #2]	//  (*)
	.loc 39 1490 0
..LDL828:
/*   1490 */	add	x17, x4, x16, lsl #2
	.loc 39 1489 0
..LDL829:
/*   1489 */	ld1d	{z8.d}, p0/z, [x1, z22.d, lsl #3]	//  (*)
/*   1489 */	ld1d	{z31.d}, p0/z, [x18, z29.d, lsl #3]	//  (*)
	.loc 39 1490 0
..LDL830:
/*   1490 */	add	x18, x5, x15, lsl #3
/*   1490 */	ld1sw	{z30.d}, p0/z, [x17, z29.d, lsl #2]	//  (*)
/*   1490 */	ld1d	{z27.d}, p0/z, [x1, z21.d, lsl #3]	//  (*)
	.loc 39 1491 0
..LDL831:
/*   1491 */	add	x17, x6, x16, lsl #2
	.loc 39 1490 0
..LDL832:
/*   1490 */	ld1d	{z26.d}, p0/z, [x18, z29.d, lsl #3]	//  (*)
	.loc 39 1491 0
..LDL833:
/*   1491 */	ld1sw	{z28.d}, p0/z, [x17, z29.d, lsl #2]	//  (*)
/*   1491 */	add	x17, x7, x15, lsl #3
	.loc 39 1489 0
..LDL834:
/*   1489 */	fmls	z5.d, p0/m, z17.d, z16.d
	.loc 39 1491 0
..LDL835:
/*   1491 */	ld1d	{z25.d}, p0/z, [x1, z7.d, lsl #3]	//  (*)
	.loc 39 1490 0
..LDL836:
/*   1490 */	fmls	z4.d, p0/m, z18.d, z6.d
	.loc 39 1491 0
..LDL837:
/*   1491 */	ld1d	{z24.d}, p0/z, [x17, z29.d, lsl #3]	//  (*)
	.loc 39 1492 0
..LDL838:
/*   1492 */	add	x17, x8, x15, lsl #3
	.loc 39 1491 0
..LDL839:
/*   1491 */	fmls	z3.d, p0/m, z19.d, z20.d
	.loc 39 1492 0
..LDL840:
/*   1492 */	fmsb	z2.d, p0/m, z0.d, z1.d
/*   1492 */	add	x15, x0, x16, lsl #2
/*   1492 */	ld1d	{z0.d}, p0/z, [x1, z23.d, lsl #3]	//  (*)
/*   1492 */	ld1d	{z1.d}, p0/z, [x17, z29.d, lsl #3]	//  (*)
/*   1492 */	ld1sw	{z23.d}, p0/z, [x15, z29.d, lsl #2]	//  (*)
	.loc 39 1488 0
..LDL841:
/*   1488 */	sub	x14, x14, 16
	.loc 39 1489 0
..LDL842:
/*   1489 */	mov	x15, x14
/*   1489 */	add	x17, x2, x15, lsl #2
/*   1489 */	add	x18, x3, x16, lsl #3
/*   1489 */	ld1sw	{z22.d}, p0/z, [x17, z29.d, lsl #2]	//  (*)
	.loc 39 1490 0
..LDL843:
/*   1490 */	add	x17, x4, x15, lsl #2
	.loc 39 1489 0
..LDL844:
/*   1489 */	ld1d	{z16.d}, p0/z, [x1, z9.d, lsl #3]	//  (*)
/*   1489 */	ld1d	{z17.d}, p0/z, [x18, z29.d, lsl #3]	//  (*)
	.loc 39 1490 0
..LDL845:
/*   1490 */	add	x18, x5, x16, lsl #3
/*   1490 */	ld1sw	{z21.d}, p0/z, [x17, z29.d, lsl #2]	//  (*)
/*   1490 */	ld1d	{z6.d}, p0/z, [x1, z30.d, lsl #3]	//  (*)
	.loc 39 1491 0
..LDL846:
/*   1491 */	add	x17, x6, x15, lsl #2
	.loc 39 1490 0
..LDL847:
/*   1490 */	ld1d	{z18.d}, p0/z, [x18, z29.d, lsl #3]	//  (*)
	.loc 39 1491 0
..LDL848:
/*   1491 */	ld1sw	{z7.d}, p0/z, [x17, z29.d, lsl #2]	//  (*)
/*   1491 */	add	x17, x7, x16, lsl #3
	.loc 39 1489 0
..LDL849:
/*   1489 */	fmls	z5.d, p0/m, z31.d, z8.d
	.loc 39 1491 0
..LDL850:
/*   1491 */	ld1d	{z20.d}, p0/z, [x1, z28.d, lsl #3]	//  (*)
	.loc 39 1490 0
..LDL851:
/*   1490 */	fmls	z4.d, p0/m, z26.d, z27.d
	.loc 39 1491 0
..LDL852:
/*   1491 */	ld1d	{z19.d}, p0/z, [x17, z29.d, lsl #3]	//  (*)
	.loc 39 1492 0
..LDL853:
/*   1492 */	add	x17, x8, x16, lsl #3
	.loc 39 1491 0
..LDL854:
/*   1491 */	fmls	z3.d, p0/m, z24.d, z25.d
	.loc 39 1492 0
..LDL855:
/*   1492 */	fmsb	z1.d, p0/m, z0.d, z2.d
	.loc 39 1488 0
..LDL856:
/*   1488 */	sub	w9, w9, 2
/*   1488 */	cmp	w9, 4
/*   1488 */	bge	.L1548
	.loc 39 1492 0
..LDL857:
/*   1492 */	ld1d	{z0.d}, p0/z, [x1, z23.d, lsl #3]	//  (*)
/*   1492 */	add	x16, x0, x15, lsl #2
	.loc 39 1488 0
..LDL858:
/*   1488 */	sub	x14, x14, 8
	.loc 39 1490 0
..LDL859:
/*   1490 */	fmls	z4.d, p0/m, z18.d, z6.d
	.loc 39 1489 0
..LDL860:
/*   1489 */	ld1d	{z23.d}, p0/z, [x1, z22.d, lsl #3]	//  (*)
/*   1489 */	fmls	z5.d, p0/m, z17.d, z16.d
	.loc 39 1488 0
..LDL861:
/*   1488 */	sub	w9, w9, 2
	.loc 39 1492 0
..LDL862:
/*   1492 */	ld1sw	{z25.d}, p0/z, [x16, z29.d, lsl #2]	//  (*)
	.loc 39 1489 0
..LDL863:
/*   1489 */	add	x16, x3, x15, lsl #3
	.loc 39 1491 0
..LDL864:
/*   1491 */	fmls	z3.d, p0/m, z19.d, z20.d
	.loc 39 1492 0
..LDL865:
/*   1492 */	ld1d	{z2.d}, p0/z, [x17, z29.d, lsl #3]	//  (*)
	.loc 39 1489 0
..LDL866:
/*   1489 */	ld1d	{z22.d}, p0/z, [x16, z29.d, lsl #3]	//  (*)
	.loc 39 1490 0
..LDL867:
/*   1490 */	add	x16, x5, x15, lsl #3
/*   1490 */	ld1d	{z21.d}, p0/z, [x1, z21.d, lsl #3]	//  (*)
/*   1490 */	ld1d	{z24.d}, p0/z, [x16, z29.d, lsl #3]	//  (*)
	.loc 39 1491 0
..LDL868:
/*   1491 */	add	x16, x7, x15, lsl #3
/*   1491 */	ld1d	{z7.d}, p0/z, [x1, z7.d, lsl #3]	//  (*)
/*   1491 */	ld1d	{z6.d}, p0/z, [x16, z29.d, lsl #3]	//  (*)
	.loc 39 1492 0
..LDL869:
/*   1492 */	add	x15, x8, x15, lsl #3
/*   1492 */	fmls	z1.d, p0/m, z2.d, z0.d
/*   1492 */	ld1d	{z0.d}, p0/z, [x1, z25.d, lsl #3]	//  (*)
	.loc 39 1489 0
..LDL870:
/*   1489 */	fmls	z5.d, p0/m, z22.d, z23.d
	.loc 39 1492 0
..LDL871:
/*   1492 */	ld1d	{z2.d}, p0/z, [x15, z29.d, lsl #3]	//  (*)
	.loc 39 1490 0
..LDL872:
/*   1490 */	fmls	z4.d, p0/m, z24.d, z21.d
	.loc 39 1491 0
..LDL873:
/*   1491 */	fmls	z3.d, p0/m, z6.d, z7.d
	.loc 39 1492 0
..LDL874:
/*   1492 */	fmls	z1.d, p0/m, z2.d, z0.d
	.loc 39 1488 0
..LDL875:
/*   1488 */	cbz	w9, .L1749
.L1752:
	.p2align 5
.L1755:					// :entr:term:mod:swpl
	.loc 39 1489 0 is_stmt 1
..LDL876:
/*   1489 */	mov	x15, x14
	.loc 39 1488 0 is_stmt 0
..LDL877:
/*   1488 */	sub	x14, x14, 8
	.loc 39 1489 0
..LDL878:
/*   1489 */	add	x16, x2, x15, lsl #2
	.loc 39 1488 0
..LDL879:
/*   1488 */	subs	w9, w9, 1
	.loc 39 1489 0
..LDL880:
/*   1489 */	ld1sw	{z0.d}, p0/z, [x16, z29.d, lsl #2]	//  (*)
/*   1489 */	add	x16, x3, x15, lsl #3
/*   1489 */	ld1d	{z2.d}, p0/z, [x1, z0.d, lsl #3]	//  (*)
/*   1489 */	ld1d	{z0.d}, p0/z, [x16, z29.d, lsl #3]	//  (*)
	.loc 39 1490 0 is_stmt 1
..LDL881:
/*   1490 */	add	x16, x4, x15, lsl #2
	.loc 39 1489 0
..LDL882:
/*   1489 */	fmls	z5.d, p0/m, z0.d, z2.d
	.loc 39 1490 0
..LDL883:
/*   1490 */	ld1sw	{z0.d}, p0/z, [x16, z29.d, lsl #2]	//  (*)
/*   1490 */	add	x16, x5, x15, lsl #3
/*   1490 */	ld1d	{z6.d}, p0/z, [x16, z29.d, lsl #3]	//  (*)
	.loc 39 1491 0
..LDL884:
/*   1491 */	add	x16, x6, x15, lsl #2
	.loc 39 1490 0
..LDL885:
/*   1490 */	ld1d	{z2.d}, p0/z, [x1, z0.d, lsl #3]	//  (*)
	.loc 39 1491 0
..LDL886:
/*   1491 */	ld1sw	{z0.d}, p0/z, [x16, z29.d, lsl #2]	//  (*)
/*   1491 */	add	x16, x7, x15, lsl #3
	.loc 39 1490 0
..LDL887:
/*   1490 */	fmls	z4.d, p0/m, z6.d, z2.d
	.loc 39 1491 0
..LDL888:
/*   1491 */	ld1d	{z2.d}, p0/z, [x16, z29.d, lsl #3]	//  (*)
	.loc 39 1492 0
..LDL889:
/*   1492 */	add	x16, x0, x15, lsl #2
	.loc 39 1491 0
..LDL890:
/*   1491 */	ld1d	{z6.d}, p0/z, [x1, z0.d, lsl #3]	//  (*)
	.loc 39 1492 0
..LDL891:
/*   1492 */	ld1sw	{z0.d}, p0/z, [x16, z29.d, lsl #2]	//  (*)
/*   1492 */	add	x15, x8, x15, lsl #3
	.loc 39 1491 0
..LDL892:
/*   1491 */	fmls	z3.d, p0/m, z2.d, z6.d
	.loc 39 1492 0
..LDL893:
/*   1492 */	ld1d	{z2.d}, p0/z, [x1, z0.d, lsl #3]	//  (*)
/*   1492 */	ld1d	{z0.d}, p0/z, [x15, z29.d, lsl #3]	//  (*)
/*   1492 */	fmls	z1.d, p0/m, z0.d, z2.d
	.loc 39 1488 0 is_stmt 0
..LDL894:
/*   1488 */	bne	.L1755
.L1749:
	.loc 39 1492 0
..LDL895:
/*   1492 */	movprfx	z0, z1
/*   1492 */	ext	z0.b, z0.b, z1.b, 32
	.loc 39 1491 0
..LDL896:
/*   1491 */	movprfx	z7, z3
/*   1491 */	ext	z7.b, z7.b, z3.b, 32
	.loc 39 1490 0
..LDL897:
/*   1490 */	movprfx	z6, z4
/*   1490 */	ext	z6.b, z6.b, z4.b, 32
	.loc 39 1489 0
..LDL898:
/*   1489 */	movprfx	z2, z5
/*   1489 */	ext	z2.b, z2.b, z5.b, 32
	.loc 39 1492 0
..LDL899:
/*   1492 */	fadd	z0.d, z0.d, z1.d
	.loc 39 1491 0
..LDL900:
/*   1491 */	fadd	z1.d, z7.d, z3.d
	.loc 39 1490 0
..LDL901:
/*   1490 */	fadd	z3.d, z6.d, z4.d
	.loc 39 1489 0
..LDL902:
/*   1489 */	fadd	z2.d, z2.d, z5.d
	.loc 39 1492 0
..LDL903:
/*   1492 */	movprfx	z4, z0
/*   1492 */	ext	z4.b, z4.b, z0.b, 16
	.loc 39 1491 0
..LDL904:
/*   1491 */	movprfx	z7, z1
/*   1491 */	ext	z7.b, z7.b, z1.b, 16
	.loc 39 1490 0
..LDL905:
/*   1490 */	movprfx	z6, z3
/*   1490 */	ext	z6.b, z6.b, z3.b, 16
	.loc 39 1489 0
..LDL906:
/*   1489 */	movprfx	z5, z2
/*   1489 */	ext	z5.b, z5.b, z2.b, 16
	.loc 39 1492 0
..LDL907:
/*   1492 */	fadd	z4.d, z0.d, z4.d
	.loc 39 1491 0
..LDL908:
/*   1491 */	fadd	z0.d, z1.d, z7.d
	.loc 39 1490 0
..LDL909:
/*   1490 */	fadd	z3.d, z3.d, z6.d
	.loc 39 1489 0
..LDL910:
/*   1489 */	fadd	z5.d, z2.d, z5.d
	.loc 39 1492 0
..LDL911:
/*   1492 */	movprfx	z7, z4
/*   1492 */	ext	z7.b, z7.b, z4.b, 8
	.loc 39 1491 0
..LDL912:
/*   1491 */	movprfx	z2, z0
/*   1491 */	ext	z2.b, z2.b, z0.b, 8
	.loc 39 1490 0
..LDL913:
/*   1490 */	movprfx	z1, z3
/*   1490 */	ext	z1.b, z1.b, z3.b, 8
	.loc 39 1489 0
..LDL914:
/*   1489 */	movprfx	z6, z5
/*   1489 */	ext	z6.b, z6.b, z5.b, 8
	.loc 39 1492 0
..LDL915:
/*   1492 */	fadd	z4.d, z4.d, z7.d
	.loc 39 1491 0
..LDL916:
/*   1491 */	fadd	z0.d, z0.d, z2.d
	.loc 39 1490 0
..LDL917:
/*   1490 */	fadd	z1.d, z3.d, z1.d
	.loc 39 1489 0
..LDL918:
/*   1489 */	fadd	z2.d, z5.d, z6.d
	.loc 39 1492 0
..LDL919:
/*   1492 */	fadd	d11, d11, d4
	.loc 39 1491 0
..LDL920:
/*   1491 */	fadd	d12, d12, d0
	.loc 39 1490 0
..LDL921:
/*   1490 */	fadd	d14, d14, d1
	.loc 39 1489 0
..LDL922:
/*   1489 */	fadd	d10, d10, d2
.L1550:
	.loc 39 1488 0 is_stmt 1
..LDL923:
/*   1488 */	sbfiz	x1, x13, 3, 32
/*   1488 */	sub	x1, x24, x1
/*   1488 */	add	x1, x1, x22
/*   1488 */	cbz	w23, .L1553
/*   1488 */	whilelt	p1.d, wzr, w23
	.loc 39 1489 0
..LDL924:
/*   1489 */	ldr	x9, [x20, 8]	//  "xv"
/*   1489 */	add	x2, x2, x1, lsl #2
	.loc 39 1492 0
..LDL925:
/*   1492 */	add	x0, x0, x1, lsl #2
	.loc 39 1489 0
..LDL926:
/*   1489 */	ld1sw	{z5.d}, p1/z, [x2, z29.d, lsl #2]	//  (*)
	.loc 39 1490 0
..LDL927:
/*   1490 */	add	x4, x4, x1, lsl #2
	.loc 39 1492 0
..LDL928:
/*   1492 */	ld1sw	{z16.d}, p1/z, [x0, z29.d, lsl #2]	//  (*)
	.loc 39 1490 0
..LDL929:
/*   1490 */	ld1sw	{z3.d}, p1/z, [x4, z29.d, lsl #2]	//  (*)
/*   1490 */	add	x0, x5, x1, lsl #3
	.loc 39 1491 0
..LDL930:
/*   1491 */	add	x2, x6, x1, lsl #2
	.loc 39 1490 0
..LDL931:
/*   1490 */	ld1d	{z4.d}, p1/z, [x0, z29.d, lsl #3]	//  (*)
	.loc 39 1491 0
..LDL932:
/*   1491 */	ld1sw	{z0.d}, p1/z, [x2, z29.d, lsl #2]	//  (*)
/*   1491 */	add	x0, x7, x1, lsl #3
/*   1491 */	ld1d	{z2.d}, p1/z, [x0, z29.d, lsl #3]	//  (*)
	.loc 39 1492 0
..LDL933:
/*   1492 */	add	x0, x8, x1, lsl #3
	.loc 39 1489 0
..LDL934:
/*   1489 */	add	x2, x3, x1, lsl #3
	.loc 39 1492 0
..LDL935:
/*   1492 */	ld1d	{z1.d}, p1/z, [x0, z29.d, lsl #3]	//  (*)
	.loc 39 1489 0
..LDL936:
/*   1489 */	ld1d	{z6.d}, p1/z, [x2, z29.d, lsl #3]	//  (*)
/*   1489 */	ld1d	{z7.d}, p1/z, [x9, z5.d, lsl #3]	//  (*)
	.loc 39 1490 0
..LDL937:
/*   1490 */	ld1d	{z5.d}, p1/z, [x9, z3.d, lsl #3]	//  (*)
	.loc 39 1491 0
..LDL938:
/*   1491 */	ld1d	{z3.d}, p1/z, [x9, z0.d, lsl #3]	//  (*)
	.loc 39 1492 0
..LDL939:
/*   1492 */	ld1d	{z0.d}, p1/z, [x9, z16.d, lsl #3]	//  (*)
	.loc 39 1489 0
..LDL940:
/*   1489 */	fmsb	z6.d, p1/m, z7.d, z13.d
	.loc 39 1490 0
..LDL941:
/*   1490 */	fmsb	z4.d, p1/m, z5.d, z13.d
	.loc 39 1491 0
..LDL942:
/*   1491 */	fmsb	z2.d, p1/m, z3.d, z13.d
	.loc 39 1492 0
..LDL943:
/*   1492 */	fmsb	z1.d, p1/m, z0.d, z13.d
	.loc 39 1489 0 is_stmt 0
..LDL944:
/*   1489 */	sel	z3.d, p1, z6.d, z13.d
	.loc 39 1490 0
..LDL945:
/*   1490 */	sel	z4.d, p1, z4.d, z13.d
	.loc 39 1489 0
..LDL946:
/*   1489 */	movprfx	z7, z3
/*   1489 */	ext	z7.b, z7.b, z3.b, 32
	.loc 39 1491 0
..LDL947:
/*   1491 */	sel	z0.d, p1, z2.d, z13.d
	.loc 39 1492 0
..LDL948:
/*   1492 */	sel	z1.d, p1, z1.d, z13.d
	.loc 39 1490 0
..LDL949:
/*   1490 */	movprfx	z2, z4
/*   1490 */	ext	z2.b, z2.b, z4.b, 32
	.loc 39 1489 0
..LDL950:
/*   1489 */	fadd	z3.d, z3.d, z7.d
	.loc 39 1491 0
..LDL951:
/*   1491 */	movprfx	z5, z0
/*   1491 */	ext	z5.b, z5.b, z0.b, 32
	.loc 39 1492 0
..LDL952:
/*   1492 */	movprfx	z6, z1
/*   1492 */	ext	z6.b, z6.b, z1.b, 32
	.loc 39 1490 0
..LDL953:
/*   1490 */	fadd	z2.d, z4.d, z2.d
	.loc 39 1491 0
..LDL954:
/*   1491 */	fadd	z0.d, z0.d, z5.d
	.loc 39 1492 0
..LDL955:
/*   1492 */	fadd	z4.d, z1.d, z6.d
	.loc 39 1489 0
..LDL956:
/*   1489 */	movprfx	z1, z3
/*   1489 */	ext	z1.b, z1.b, z3.b, 16
	.loc 39 1490 0
..LDL957:
/*   1490 */	movprfx	z5, z2
/*   1490 */	ext	z5.b, z5.b, z2.b, 16
	.loc 39 1489 0
..LDL958:
/*   1489 */	fadd	z1.d, z3.d, z1.d
	.loc 39 1491 0
..LDL959:
/*   1491 */	movprfx	z7, z0
/*   1491 */	ext	z7.b, z7.b, z0.b, 16
	.loc 39 1492 0
..LDL960:
/*   1492 */	movprfx	z6, z4
/*   1492 */	ext	z6.b, z6.b, z4.b, 16
	.loc 39 1490 0
..LDL961:
/*   1490 */	fadd	z5.d, z2.d, z5.d
	.loc 39 1491 0
..LDL962:
/*   1491 */	fadd	z0.d, z0.d, z7.d
	.loc 39 1492 0
..LDL963:
/*   1492 */	fadd	z3.d, z4.d, z6.d
	.loc 39 1489 0
..LDL964:
/*   1489 */	movprfx	z7, z1
/*   1489 */	ext	z7.b, z7.b, z1.b, 8
	.loc 39 1490 0
..LDL965:
/*   1490 */	movprfx	z6, z5
/*   1490 */	ext	z6.b, z6.b, z5.b, 8
	.loc 39 1489 0
..LDL966:
/*   1489 */	fadd	z1.d, z1.d, z7.d
	.loc 39 1491 0
..LDL967:
/*   1491 */	movprfx	z2, z0
/*   1491 */	ext	z2.b, z2.b, z0.b, 8
	.loc 39 1492 0
..LDL968:
/*   1492 */	movprfx	z4, z3
/*   1492 */	ext	z4.b, z4.b, z3.b, 8
	.loc 39 1490 0
..LDL969:
/*   1490 */	fadd	z5.d, z5.d, z6.d
	.loc 39 1491 0
..LDL970:
/*   1491 */	fadd	z0.d, z0.d, z2.d
	.loc 39 1492 0
..LDL971:
/*   1492 */	fadd	z2.d, z3.d, z4.d
	.loc 39 1489 0
..LDL972:
/*   1489 */	fadd	d10, d10, d1
	.loc 39 1490 0
..LDL973:
/*   1490 */	fadd	d14, d14, d5
	.loc 39 1491 0
..LDL974:
/*   1491 */	fadd	d12, d12, d0
	.loc 39 1492 0
..LDL975:
/*   1492 */	fadd	d11, d11, d2
.L1553:
	.loc 39 1495 0 is_stmt 1
..LDL976:
	.loc 39 1494 0 is_stmt 0
..LDL977:
/*   1494 */	ldr	x0, [x20, 8]	//  "xv"
/*   1494 */	ldr	x1, [x20, 24]	//  "matrixDiagonal"
/*   1494 */	ldr	x1, [x1, x11, lsl #3]	//  (*)
/*   1494 */	ldr	d1, [x0, x11, lsl #3]	//  (*)
/*   1494 */	ldr	d0, [x1]	//  (*)
	.loc 39 1495 0
..LDL978:
/*   1495 */	fmadd	d2, d1, d0, d10
/*   1495 */	frecpe	d1, d0
/*   1495 */	fmsub	d0, d0, d1, d15
/*   1495 */	fmul	d2, d2, d1
/*   1495 */	fmadd	d3, d0, d0, d0
/*   1495 */	fmul	d1, d0, d0
/*   1495 */	fmadd	d3, d3, d2, d2
/*   1495 */	fmadd	d0, d1, d1, d0
/*   1495 */	fmadd	d0, d0, d3, d2
/*   1495 */	str	d0, [x0, x11, lsl #3]	//  (*)
	.loc 39 1497 0 is_stmt 1
..LDL979:
/*   1497 */	ldr	x1, [x20, 24]	//  "matrixDiagonal"
	.loc 39 1498 0
..LDL980:
	.loc 39 1497 0 is_stmt 0
..LDL981:
/*   1497 */	ldr	d1, [x0, x21, lsl #3]	//  (*)
	.loc 39 1497 0 is_stmt 1
..LDL982:
/*   1497 */	ldr	x1, [x1, x21, lsl #3]	//  (*)
	.loc 39 1498 0
..LDL983:
	.loc 39 1497 0 is_stmt 0
..LDL984:
/*   1497 */	ldr	d0, [x1]	//  (*)
	.loc 39 1498 0
..LDL985:
/*   1498 */	fmadd	d2, d1, d0, d14
/*   1498 */	frecpe	d1, d0
/*   1498 */	fmsub	d0, d0, d1, d15
/*   1498 */	fmul	d1, d2, d1
/*   1498 */	fmadd	d2, d0, d0, d0
/*   1498 */	fmul	d3, d0, d0
/*   1498 */	fmadd	d2, d2, d1, d1
/*   1498 */	fmadd	d0, d3, d3, d0
/*   1498 */	fmadd	d0, d0, d2, d1
/*   1498 */	str	d0, [x0, x21, lsl #3]	//  (*)
	.loc 39 1500 0 is_stmt 1
..LDL986:
/*   1500 */	ldr	x1, [x20, 24]	//  "matrixDiagonal"
	.loc 39 1501 0
..LDL987:
	.loc 39 1500 0 is_stmt 0
..LDL988:
/*   1500 */	ldr	d1, [x0, x30, lsl #3]	//  (*)
	.loc 39 1500 0 is_stmt 1
..LDL989:
/*   1500 */	ldr	x1, [x1, x30, lsl #3]	//  (*)
	.loc 39 1501 0
..LDL990:
	.loc 39 1500 0 is_stmt 0
..LDL991:
/*   1500 */	ldr	d0, [x1]	//  (*)
	.loc 39 1501 0
..LDL992:
/*   1501 */	fmadd	d3, d1, d0, d12
/*   1501 */	frecpe	d2, d0
/*   1501 */	fmsub	d1, d0, d2, d15
/*   1501 */	fmul	d3, d3, d2
/*   1501 */	fmadd	d0, d1, d1, d1
/*   1501 */	fmul	d2, d1, d1
/*   1501 */	fmadd	d0, d0, d3, d3
/*   1501 */	fmadd	d1, d2, d2, d1
/*   1501 */	fmadd	d0, d1, d0, d3
/*   1501 */	str	d0, [x0, x30, lsl #3]	//  (*)
	.loc 39 1503 0 is_stmt 1
..LDL993:
/*   1503 */	ldr	x1, [x20, 24]	//  "matrixDiagonal"
	.loc 39 1504 0
..LDL994:
	.loc 39 1503 0 is_stmt 0
..LDL995:
/*   1503 */	ldr	d1, [x0, x12, lsl #3]	//  (*)
	.loc 39 1503 0 is_stmt 1
..LDL996:
/*   1503 */	ldr	x1, [x1, x12, lsl #3]	//  (*)
	.loc 39 1504 0
..LDL997:
	.loc 39 1503 0 is_stmt 0
..LDL998:
/*   1503 */	ldr	d0, [x1]	//  (*)
	.loc 39 1504 0
..LDL999:
/*   1504 */	fmadd	d2, d1, d0, d11
/*   1504 */	frecpe	d1, d0
/*   1504 */	fmsub	d0, d0, d1, d15
/*   1504 */	fmul	d1, d2, d1
/*   1504 */	fmadd	d3, d0, d0, d0
/*   1504 */	fmul	d2, d0, d0
/*   1504 */	fmadd	d3, d3, d1, d1
/*   1504 */	fmadd	d0, d2, d2, d0
/*   1504 */	fmadd	d0, d0, d3, d1
/*   1504 */	str	d0, [x0, x12, lsl #3]	//  (*)
	.loc 39 1505 0
..LDL1000:
/*   1505 */	b	.L1573
.L1554:
	.loc 39 1505 0 is_stmt 1
..LDL1001:
	.loc 39 1509 0 is_stmt 0
..LDL1002:
/*   1509 */	add	x2, x0, 256
/*   1509 */	sxtw	x1, w10
	.loc 39 1505 0
..LDL1003:
/*   1505 */	cmp	w3, 2
/*   1505 */	beq	.L1564
	.loc 39 1520 0 is_stmt 1
..LDL1004:
/*   1520 */	ldr	x3, [x20, 16]	//  "rv"
	.loc 37 1506 0
..LDL1005:
/*   1506 */	ldr	x2, [x2]	//  (*)
	.loc 39 1520 0
..LDL1006:
/*   1520 */	ldr	d12, [x3, x12, lsl #3]	//  (*)
	.loc 39 1522 0
..LDL1007:
/*   1522 */	ldr	w1, [x2, x1, lsl #2]	//  (*)
/*   1522 */	sub	w3, w1, 1
/*   1522 */	cmp	w1, 0
/*   1522 */	csel	w2, w1, wzr, ge
/*   1522 */	cmp	w3, 0
/*   1522 */	blt	.L1563
/*   1523 */	ldp	x0, x1, [x0, 64]	//  (*)
	.loc 39 1523 0 is_stmt 0
..LDL1008:
/*   1523 */	sxtw	x9, w3
	.loc 39 1522 0
..LDL1009:
/*   1522 */	asr	w3, w2, 2
/*   1522 */	add	w3, w2, w3, lsr #29
/*   1522 */	asr	w11, w3, 3
/*   1522 */	sub	w8, w2, w11, lsl #3
	.loc 39 1523 0
..LDL1010:
/*   1523 */	ldr	x7, [x1, x12, lsl #3]	//  (*)
/*   1523 */	ldr	x6, [x0, x12, lsl #3]	//  (*)
	.loc 39 1522 0
..LDL1011:
/*   1522 */	cbz	w11, .L1560
/*   1522 */	sub	w5, w11, 8
/*   1522 */	mov	x4, x9
/*   1522 */	mov	z0.d, z13.d
/*   1522 */	cmp	w5, 0
/*   1522 */	blt	.L1591
	.loc 39 1523 0
..LDL1012:
/*   1523 */	ldr	x3, [x20, 8]	//  "xv"
/*   1523 */	lsl	x1, x9, 3
/*   1523 */	mov	z28.d, z13.d
/*   1523 */	mov	z27.d, z13.d
/*   1523 */	lsl	x2, x9, 2
/*   1523 */	sub	x0, x1, 192
/*   1523 */	mov	z23.d, z13.d
/*   1523 */	mov	z20.d, z13.d
/*   1523 */	mov	z17.d, z13.d
/*   1523 */	mov	z6.d, z13.d
/*   1523 */	add	x2, x2, x6
/*   1523 */	mov	z2.d, z13.d
/*   1523 */	mov	z0.d, z13.d
/*   1523 */	add	x1, x1, x7
/*   1523 */	add	x13, x0, x7
	.loc 39 1522 0
..LDL1013:
/*   1522 */	cmp	w5, 16
/*   1522 */	blt	.L1763
	.loc 39 1523 0
..LDL1014:
/*   1523 */	ld1sw	{z8.d}, p0/z, [x2, z29.d, lsl #2]	//  (*)
/*   1523 */	sub	x14, x2, 32
/*   1523 */	sub	x0, x2, 64
	.loc 39 1524 0
..LDL1015:
/*   1524 */	mov	z1.d, z0.d
	.loc 39 1523 0
..LDL1016:
/*   1523 */	ld1sw	{z9.d}, p0/z, [x14, z29.d, lsl #2]	//  (*)
/*   1523 */	sub	x16, x2, 96
/*   1523 */	sub	x14, x2, 128
	.loc 39 1524 0
..LDL1017:
/*   1524 */	mov	z3.d, z2.d
	.loc 39 1523 0
..LDL1018:
/*   1523 */	ld1sw	{z31.d}, p0/z, [x0, z29.d, lsl #2]	//  (*)
/*   1523 */	sub	x15, x2, 160
	.loc 39 1524 0
..LDL1019:
/*   1524 */	mov	x0, x13
	.loc 39 1523 0
..LDL1020:
/*   1523 */	ld1sw	{z30.d}, p0/z, [x16, z29.d, lsl #2]	//  (*)
/*   1523 */	ld1sw	{z24.d}, p0/z, [x14, z29.d, lsl #2]	//  (*)
/*   1523 */	ld1sw	{z10.d}, p0/z, [x15, z29.d, lsl #2]	//  (*)
	.p2align 5
.L1558:					// :entr:term:body:swpl
/*   1523 */	sub	x13, x2, 192
/*   1523 */	ld1sw	{z5.d}, p0/z, [x13, z29.d, lsl #2]	//  (*)
/*   1523 */	sub	x13, x2, 224
/*   1523 */	ld1sw	{z2.d}, p0/z, [x13, z29.d, lsl #2]	//  (*)
/*   1523 */	ld1d	{z11.d}, p0/z, [x3, z8.d, lsl #3]	//  (*)
/*   1523 */	ld1d	{z8.d}, p0/z, [x1, z29.d, lsl #3]	//  (*)
/*   1523 */	ld1d	{z21.d}, p0/z, [x3, z9.d, lsl #3]	//  (*)
/*   1523 */	sub	x13, x1, 64
/*   1523 */	ld1d	{z26.d}, p0/z, [x13, z29.d, lsl #3]	//  (*)
/*   1523 */	ld1d	{z18.d}, p0/z, [x3, z31.d, lsl #3]	//  (*)
/*   1523 */	sub	x13, x1, 128
/*   1523 */	ld1d	{z25.d}, p0/z, [x13, z29.d, lsl #3]	//  (*)
/*   1523 */	ld1d	{z7.d}, p0/z, [x3, z30.d, lsl #3]	//  (*)
/*   1523 */	ld1d	{z22.d}, p0/z, [x0, z29.d, lsl #3]	//  (*)
/*   1523 */	ld1d	{z4.d}, p0/z, [x3, z24.d, lsl #3]	//  (*)
/*   1523 */	sub	x13, x0, 64
/*   1523 */	ld1d	{z19.d}, p0/z, [x13, z29.d, lsl #3]	//  (*)
/*   1523 */	ld1d	{z0.d}, p0/z, [x3, z10.d, lsl #3]	//  (*)
/*   1523 */	sub	x13, x0, 128
/*   1523 */	ld1d	{z16.d}, p0/z, [x13, z29.d, lsl #3]	//  (*)
/*   1523 */	ld1d	{z31.d}, p0/z, [x3, z5.d, lsl #3]	//  (*)
/*   1523 */	sub	x13, x0, 192
/*   1523 */	ld1d	{z5.d}, p0/z, [x13, z29.d, lsl #3]	//  (*)
/*   1523 */	ld1d	{z9.d}, p0/z, [x3, z2.d, lsl #3]	//  (*)
/*   1523 */	sub	x13, x0, 256
/*   1523 */	ld1d	{z2.d}, p0/z, [x13, z29.d, lsl #3]	//  (*)
	.loc 39 1524 0
..LDL1021:
/*   1524 */	sub	x13, x2, 256
	.loc 39 1523 0
..LDL1022:
/*   1523 */	ld1sw	{z30.d}, p0/z, [x13, z29.d, lsl #2]	//  (*)
/*   1523 */	sub	x13, x2, 288
/*   1523 */	ld1sw	{z10.d}, p0/z, [x13, z29.d, lsl #2]	//  (*)
/*   1523 */	sub	x13, x2, 320
/*   1523 */	ld1sw	{z24.d}, p0/z, [x13, z29.d, lsl #2]	//  (*)
/*   1523 */	fmsb	z11.d, p0/m, z8.d, z28.d
/*   1523 */	sub	x13, x2, 352
/*   1523 */	fmsb	z26.d, p0/m, z21.d, z27.d
/*   1523 */	ld1sw	{z21.d}, p0/z, [x13, z29.d, lsl #2]	//  (*)
/*   1523 */	fmsb	z25.d, p0/m, z18.d, z23.d
/*   1523 */	sub	x13, x2, 384
/*   1523 */	fmsb	z22.d, p0/m, z7.d, z20.d
/*   1523 */	ld1sw	{z7.d}, p0/z, [x13, z29.d, lsl #2]	//  (*)
/*   1523 */	fmsb	z19.d, p0/m, z4.d, z17.d
/*   1523 */	sub	x13, x2, 416
/*   1523 */	ld1sw	{z4.d}, p0/z, [x13, z29.d, lsl #2]	//  (*)
/*   1523 */	fmsb	z16.d, p0/m, z0.d, z6.d
	.loc 39 1524 0
..LDL1023:
/*   1524 */	sub	x13, x0, 512
/*   1524 */	sub	x14, x1, 512
	.loc 39 1523 0
..LDL1024:
/*   1523 */	fmsb	z5.d, p0/m, z31.d, z3.d
/*   1523 */	fmsb	z2.d, p0/m, z9.d, z1.d
/*   1523 */	sub	x15, x2, 448
/*   1523 */	ld1sw	{z1.d}, p0/z, [x15, z29.d, lsl #2]	//  (*)
/*   1523 */	sub	x15, x2, 480
/*   1523 */	ld1sw	{z0.d}, p0/z, [x15, z29.d, lsl #2]	//  (*)
/*   1523 */	ld1d	{z28.d}, p0/z, [x3, z30.d, lsl #3]	//  (*)
/*   1523 */	ld1d	{z27.d}, p0/z, [x14, z29.d, lsl #3]	//  (*)
/*   1523 */	ld1d	{z30.d}, p0/z, [x3, z10.d, lsl #3]	//  (*)
/*   1523 */	sub	x14, x1, 576
/*   1523 */	ld1d	{z10.d}, p0/z, [x14, z29.d, lsl #3]	//  (*)
/*   1523 */	ld1d	{z24.d}, p0/z, [x3, z24.d, lsl #3]	//  (*)
/*   1523 */	sub	x14, x1, 640
/*   1523 */	ld1d	{z23.d}, p0/z, [x14, z29.d, lsl #3]	//  (*)
/*   1523 */	ld1d	{z21.d}, p0/z, [x3, z21.d, lsl #3]	//  (*)
/*   1523 */	ld1d	{z20.d}, p0/z, [x13, z29.d, lsl #3]	//  (*)
/*   1523 */	ld1d	{z18.d}, p0/z, [x3, z7.d, lsl #3]	//  (*)
/*   1523 */	sub	x13, x0, 576
/*   1523 */	ld1d	{z17.d}, p0/z, [x13, z29.d, lsl #3]	//  (*)
/*   1523 */	ld1d	{z7.d}, p0/z, [x3, z4.d, lsl #3]	//  (*)
/*   1523 */	sub	x13, x0, 640
/*   1523 */	ld1d	{z6.d}, p0/z, [x13, z29.d, lsl #3]	//  (*)
/*   1523 */	ld1d	{z4.d}, p0/z, [x3, z1.d, lsl #3]	//  (*)
/*   1523 */	sub	x13, x0, 704
/*   1523 */	ld1d	{z3.d}, p0/z, [x13, z29.d, lsl #3]	//  (*)
/*   1523 */	ld1d	{z0.d}, p0/z, [x3, z0.d, lsl #3]	//  (*)
/*   1523 */	sub	x13, x0, 768
/*   1523 */	ld1d	{z1.d}, p0/z, [x13, z29.d, lsl #3]	//  (*)
	.loc 39 1524 0
..LDL1025:
/*   1524 */	sub	x2, x2, 512
	.loc 39 1523 0
..LDL1026:
/*   1523 */	ld1sw	{z8.d}, p0/z, [x2, z29.d, lsl #2]	//  (*)
/*   1523 */	sub	x13, x2, 32
/*   1523 */	ld1sw	{z9.d}, p0/z, [x13, z29.d, lsl #2]	//  (*)
/*   1523 */	sub	x13, x2, 64
/*   1523 */	ld1sw	{z31.d}, p0/z, [x13, z29.d, lsl #2]	//  (*)
/*   1523 */	fmsb	z28.d, p0/m, z27.d, z11.d
/*   1523 */	sub	x13, x2, 96
/*   1523 */	movprfx	z27.d, p0/z, z26.d
/*   1523 */	fmls	z27.d, p0/m, z10.d, z30.d
/*   1523 */	ld1sw	{z30.d}, p0/z, [x13, z29.d, lsl #2]	//  (*)
/*   1523 */	fmsb	z23.d, p0/m, z24.d, z25.d
/*   1523 */	sub	x13, x2, 128
/*   1523 */	fmsb	z20.d, p0/m, z21.d, z22.d
/*   1523 */	ld1sw	{z24.d}, p0/z, [x13, z29.d, lsl #2]	//  (*)
/*   1523 */	fmsb	z17.d, p0/m, z18.d, z19.d
/*   1523 */	sub	x13, x2, 160
	.loc 39 1522 0
..LDL1027:
/*   1522 */	sub	x4, x4, 128
	.loc 39 1523 0
..LDL1028:
/*   1523 */	ld1sw	{z10.d}, p0/z, [x13, z29.d, lsl #2]	//  (*)
/*   1523 */	fmsb	z6.d, p0/m, z7.d, z16.d
	.loc 39 1524 0
..LDL1029:
/*   1524 */	sub	x0, x0, 1024
/*   1524 */	sub	x1, x1, 1024
	.loc 39 1523 0
..LDL1030:
/*   1523 */	fmsb	z3.d, p0/m, z4.d, z5.d
/*   1523 */	fmsb	z1.d, p0/m, z0.d, z2.d
	.loc 39 1524 0
..LDL1031:
/*   1524 */	sub	w5, w5, 16
	.loc 39 1522 0
..LDL1032:
/*   1522 */	cmp	w5, 16
/*   1522 */	bge	.L1558
	.loc 39 1523 0
..LDL1033:
/*   1523 */	sub	x13, x2, 192
/*   1523 */	sub	x14, x2, 224
/*   1523 */	ld1d	{z21.d}, p0/z, [x3, z8.d, lsl #3]	//  (*)
/*   1523 */	ld1sw	{z8.d}, p0/z, [x13, z29.d, lsl #2]	//  (*)
/*   1523 */	sub	x13, x1, 64
/*   1523 */	sub	x17, x1, 128
/*   1523 */	ld1sw	{z26.d}, p0/z, [x14, z29.d, lsl #2]	//  (*)
/*   1523 */	sub	x14, x0, 64
/*   1523 */	sub	x16, x0, 128
/*   1523 */	sub	x18, x0, 192
/*   1523 */	sub	x15, x0, 256
/*   1523 */	ld1d	{z7.d}, p0/z, [x3, z31.d, lsl #3]	//  (*)
	.loc 39 1524 0
..LDL1034:
/*   1524 */	sub	x2, x2, 256
/*   1524 */	sub	w5, w5, 8
	.loc 39 1523 0
..LDL1035:
/*   1523 */	ld1d	{z4.d}, p0/z, [x3, z30.d, lsl #3]	//  (*)
	.loc 39 1522 0
..LDL1036:
/*   1522 */	sub	x4, x4, 64
	.loc 39 1524 0
..LDL1037:
/*   1524 */	cmp	w5, 0
	.loc 39 1523 0
..LDL1038:
/*   1523 */	ld1d	{z25.d}, p0/z, [x3, z24.d, lsl #3]	//  (*)
/*   1523 */	ld1d	{z22.d}, p0/z, [x1, z29.d, lsl #3]	//  (*)
	.loc 39 1524 0
..LDL1039:
/*   1524 */	sub	x1, x1, 512
	.loc 39 1523 0
..LDL1040:
/*   1523 */	ld1d	{z18.d}, p0/z, [x3, z9.d, lsl #3]	//  (*)
/*   1523 */	ld1d	{z19.d}, p0/z, [x13, z29.d, lsl #3]	//  (*)
	.loc 39 1524 0
..LDL1041:
/*   1524 */	sub	x13, x0, 512
	.loc 39 1523 0
..LDL1042:
/*   1523 */	ld1d	{z16.d}, p0/z, [x17, z29.d, lsl #3]	//  (*)
/*   1523 */	ld1d	{z5.d}, p0/z, [x0, z29.d, lsl #3]	//  (*)
/*   1523 */	ld1d	{z24.d}, p0/z, [x14, z29.d, lsl #3]	//  (*)
/*   1523 */	ld1d	{z30.d}, p0/z, [x3, z10.d, lsl #3]	//  (*)
/*   1523 */	ld1d	{z31.d}, p0/z, [x16, z29.d, lsl #3]	//  (*)
/*   1523 */	ld1d	{z2.d}, p0/z, [x18, z29.d, lsl #3]	//  (*)
/*   1523 */	ld1d	{z0.d}, p0/z, [x15, z29.d, lsl #3]	//  (*)
/*   1523 */	ld1d	{z8.d}, p0/z, [x3, z8.d, lsl #3]	//  (*)
/*   1523 */	ld1d	{z26.d}, p0/z, [x3, z26.d, lsl #3]	//  (*)
/*   1523 */	fmls	z28.d, p0/m, z22.d, z21.d
/*   1523 */	fmls	z27.d, p0/m, z19.d, z18.d
/*   1523 */	fmls	z23.d, p0/m, z16.d, z7.d
/*   1523 */	fmls	z20.d, p0/m, z5.d, z4.d
/*   1523 */	fmls	z17.d, p0/m, z24.d, z25.d
/*   1523 */	fmls	z6.d, p0/m, z31.d, z30.d
/*   1523 */	fmsb	z2.d, p0/m, z8.d, z3.d
/*   1523 */	fmsb	z0.d, p0/m, z26.d, z1.d
	.loc 39 1524 0
..LDL1043:
/*   1524 */	blt	.L1760
.L1763:
	.p2align 5
.L1766:					// :entr:term:mod:swpl
	.loc 39 1523 0 is_stmt 1
..LDL1044:
/*   1523 */	sub	x0, x1, 64
/*   1523 */	sub	x16, x2, 32
/*   1523 */	ld1sw	{z1.d}, p0/z, [x2, z29.d, lsl #2]	//  (*)
/*   1523 */	sub	x17, x2, 128
/*   1523 */	sub	x15, x2, 96
/*   1523 */	ld1sw	{z3.d}, p0/z, [x16, z29.d, lsl #2]	//  (*)
/*   1523 */	sub	x14, x1, 128
/*   1523 */	sub	x18, x2, 64
/*   1523 */	ld1d	{z21.d}, p0/z, [x1, z29.d, lsl #3]	//  (*)
	.loc 39 1522 0 is_stmt 0
..LDL1045:
/*   1522 */	sub	x4, x4, 64
	.loc 39 1523 0
..LDL1046:
/*   1523 */	ld1sw	{z19.d}, p0/z, [x17, z29.d, lsl #2]	//  (*)
	.loc 39 1524 0
..LDL1047:
/*   1524 */	sub	x1, x1, 512
	.loc 39 1523 0
..LDL1048:
/*   1523 */	ld1sw	{z7.d}, p0/z, [x15, z29.d, lsl #2]	//  (*)
	.loc 39 1524 0
..LDL1049:
/*   1524 */	subs	w5, w5, 8
	.loc 39 1523 0
..LDL1050:
/*   1523 */	ld1sw	{z5.d}, p0/z, [x18, z29.d, lsl #2]	//  (*)
/*   1523 */	ld1d	{z18.d}, p0/z, [x14, z29.d, lsl #3]	//  (*)
/*   1523 */	ld1d	{z1.d}, p0/z, [x3, z1.d, lsl #3]	//  (*)
/*   1523 */	ld1d	{z4.d}, p0/z, [x3, z3.d, lsl #3]	//  (*)
/*   1523 */	ld1d	{z3.d}, p0/z, [x0, z29.d, lsl #3]	//  (*)
/*   1523 */	sub	x0, x13, 64
/*   1523 */	ld1d	{z19.d}, p0/z, [x3, z19.d, lsl #3]	//  (*)
/*   1523 */	ld1d	{z16.d}, p0/z, [x3, z7.d, lsl #3]	//  (*)
/*   1523 */	ld1d	{z5.d}, p0/z, [x3, z5.d, lsl #3]	//  (*)
/*   1523 */	ld1d	{z7.d}, p0/z, [x13, z29.d, lsl #3]	//  (*)
/*   1523 */	fmls	z28.d, p0/m, z21.d, z1.d
/*   1523 */	ld1d	{z1.d}, p0/z, [x0, z29.d, lsl #3]	//  (*)
/*   1523 */	sub	x0, x2, 160
/*   1523 */	fmls	z27.d, p0/m, z3.d, z4.d
/*   1523 */	fmls	z23.d, p0/m, z18.d, z5.d
/*   1523 */	fmls	z20.d, p0/m, z7.d, z16.d
/*   1523 */	fmls	z17.d, p0/m, z1.d, z19.d
/*   1523 */	ld1sw	{z1.d}, p0/z, [x0, z29.d, lsl #2]	//  (*)
/*   1523 */	sub	x0, x13, 128
/*   1523 */	ld1d	{z3.d}, p0/z, [x0, z29.d, lsl #3]	//  (*)
/*   1523 */	sub	x0, x2, 192
/*   1523 */	ld1d	{z4.d}, p0/z, [x3, z1.d, lsl #3]	//  (*)
/*   1523 */	ld1sw	{z1.d}, p0/z, [x0, z29.d, lsl #2]	//  (*)
/*   1523 */	sub	x0, x13, 192
/*   1523 */	fmls	z6.d, p0/m, z3.d, z4.d
/*   1523 */	ld1d	{z3.d}, p0/z, [x0, z29.d, lsl #3]	//  (*)
/*   1523 */	sub	x0, x2, 224
	.loc 39 1524 0
..LDL1051:
/*   1524 */	sub	x2, x2, 256
	.loc 39 1523 0
..LDL1052:
/*   1523 */	ld1d	{z4.d}, p0/z, [x3, z1.d, lsl #3]	//  (*)
/*   1523 */	ld1sw	{z1.d}, p0/z, [x0, z29.d, lsl #2]	//  (*)
/*   1523 */	sub	x0, x13, 256
	.loc 39 1524 0
..LDL1053:
/*   1524 */	sub	x13, x13, 512
	.loc 39 1523 0
..LDL1054:
/*   1523 */	fmls	z2.d, p0/m, z3.d, z4.d
/*   1523 */	ld1d	{z3.d}, p0/z, [x3, z1.d, lsl #3]	//  (*)
/*   1523 */	ld1d	{z1.d}, p0/z, [x0, z29.d, lsl #3]	//  (*)
/*   1523 */	fmls	z0.d, p0/m, z1.d, z3.d
	.loc 39 1524 0
..LDL1055:
/*   1524 */	bpl	.L1766
.L1760:
	.loc 39 1523 0
..LDL1056:
/*   1523 */	fadd	z0.d, z0.d, z2.d
/*   1523 */	fadd	z1.d, z6.d, z17.d
/*   1523 */	fadd	z2.d, z20.d, z23.d
/*   1523 */	fadd	z3.d, z28.d, z27.d
/*   1523 */	fadd	z0.d, z1.d, z0.d
/*   1523 */	fadd	z1.d, z3.d, z2.d
/*   1523 */	fadd	z0.d, z1.d, z0.d
.L1591:
	.loc 39 1522 0 is_stmt 1
..LDL1057:
/*   1522 */	adds	w2, w5, 7
/*   1522 */	bmi	.L1559
	.loc 39 1523 0 is_stmt 0
..LDL1058:
/*   1523 */	ldr	x0, [x20, 8]	//  "xv"
	.p2align 5
.L1603:					// :entr:term:mod
	.loc 39 1523 0 is_stmt 1
..LDL1059:
/*   1523 */	index	z1.d, 0, -1
/*   1523 */	mov	x3, x4
	.loc 39 1522 0 is_stmt 0
..LDL1060:
/*   1522 */	sub	x4, x4, 8
	.loc 39 1523 0
..LDL1061:
/*   1523 */	add	x1, x6, x3, lsl #2
	.loc 39 1524 0
..LDL1062:
/*   1524 */	subs	w2, w2, 1
	.loc 39 1523 0
..LDL1063:
/*   1523 */	add	x3, x7, x3, lsl #3
/*   1523 */	ld1sw	{z2.d}, p0/z, [x1, z1.d, lsl #2]	//  (*)
/*   1523 */	ld1d	{z1.d}, p0/z, [x3, z1.d, lsl #3]	//  (*)
/*   1523 */	ld1d	{z2.d}, p0/z, [x0, z2.d, lsl #3]	//  (*)
/*   1523 */	fmls	z0.d, p0/m, z1.d, z2.d
	.loc 39 1522 0
..LDL1064:
/*   1522 */	bpl	.L1603
.L1559:
	.loc 39 1523 0
..LDL1065:
/*   1523 */	movprfx	z1, z0
/*   1523 */	ext	z1.b, z1.b, z0.b, 32
/*   1523 */	fadd	z1.d, z1.d, z0.d
/*   1523 */	movprfx	z0, z1
/*   1523 */	ext	z0.b, z0.b, z1.b, 16
/*   1523 */	fadd	z1.d, z1.d, z0.d
/*   1523 */	movprfx	z0, z1
/*   1523 */	ext	z0.b, z0.b, z1.b, 8
/*   1523 */	fadd	z0.d, z1.d, z0.d
/*   1523 */	fadd	d12, d12, d0
.L1560:
	.loc 39 1522 0 is_stmt 1
..LDL1066:
/*   1522 */	sbfiz	x0, x11, 3, 32
/*   1522 */	sub	x0, x24, x0
/*   1522 */	add	x0, x0, x9
/*   1522 */	cbz	w8, .L1563
/*   1522 */	whilelt	p1.d, wzr, w8
	.loc 39 1523 0
..LDL1067:
/*   1523 */	ldr	x1, [x20, 8]	//  "xv"
/*   1523 */	add	x2, x6, x0, lsl #2
/*   1523 */	add	x0, x7, x0, lsl #3
/*   1523 */	ld1sw	{z0.d}, p1/z, [x2, z29.d, lsl #2]	//  (*)
/*   1523 */	ld1d	{z1.d}, p1/z, [x0, z29.d, lsl #3]	//  (*)
/*   1523 */	ld1d	{z0.d}, p1/z, [x1, z0.d, lsl #3]	//  (*)
/*   1523 */	fmsb	z1.d, p1/m, z0.d, z13.d
/*   1523 */	sel	z1.d, p1, z1.d, z13.d
/*   1523 */	movprfx	z0, z1
/*   1523 */	ext	z0.b, z0.b, z1.b, 32
/*   1523 */	fadd	z0.d, z1.d, z0.d
/*   1523 */	movprfx	z1, z0
/*   1523 */	ext	z1.b, z1.b, z0.b, 16
/*   1523 */	fadd	z1.d, z0.d, z1.d
/*   1523 */	movprfx	z0, z1
/*   1523 */	ext	z0.b, z0.b, z1.b, 8
/*   1523 */	fadd	z0.d, z1.d, z0.d
/*   1523 */	fadd	d12, d12, d0
.L1563:
	.loc 39 1527 0
..LDL1068:
	.loc 39 1526 0 is_stmt 0
..LDL1069:
/*   1526 */	ldr	x0, [x20, 8]	//  "xv"
/*   1526 */	ldr	x1, [x20, 24]	//  "matrixDiagonal"
/*   1526 */	ldr	x1, [x1, x12, lsl #3]	//  (*)
/*   1526 */	ldr	d1, [x0, x12, lsl #3]	//  (*)
/*   1526 */	ldr	d0, [x1]	//  (*)
	.loc 39 1527 0
..LDL1070:
/*   1527 */	fmadd	d2, d1, d0, d12
/*   1527 */	frecpe	d1, d0
/*   1527 */	fmsub	d0, d0, d1, d15
/*   1527 */	fmul	d1, d2, d1
/*   1527 */	fmadd	d3, d0, d0, d0
/*   1527 */	fmul	d2, d0, d0
/*   1527 */	fmadd	d3, d3, d1, d1
/*   1527 */	fmadd	d0, d2, d2, d0
/*   1527 */	fmadd	d0, d0, d3, d1
/*   1527 */	str	d0, [x0, x12, lsl #3]	//  (*)
	.loc 39 1528 0
..LDL1071:
/*   1528 */	b	.L1573
.L1564:
	.loc 39 1506 0 is_stmt 1
..LDL1072:
/*   1506 */	ldr	x3, [x20, 16]	//  "rv"
/*   1506 */	sub	x7, x12, 1
	.loc 37 1506 0 is_stmt 0
..LDL1073:
/*   1506 */	ldr	x2, [x2]	//  (*)
	.loc 39 1506 0
..LDL1074:
/*   1506 */	ldr	d0, [x3, x7, lsl #3]	//  (*)
	.loc 39 1509 0 is_stmt 1
..LDL1075:
/*   1509 */	ldr	w1, [x2, x1, lsl #2]	//  (*)
/*   1509 */	cmp	w1, 0
/*   1509 */	csel	w2, w1, wzr, ge
	.loc 39 1506 0
..LDL1076:
/*    ??? */	str	d0, [x19, 24]	//  (*)
	.loc 39 1507 0
..LDL1077:
/*   1507 */	ldr	d0, [x3, x12, lsl #3]	//  (*)
	.loc 39 1509 0
..LDL1078:
/*   1509 */	sub	w3, w1, 1
/*   1509 */	cmp	w3, 0
	.loc 39 1507 0
..LDL1079:
/*    ??? */	str	d0, [x19, 16]	//  (*)
	.loc 39 1509 0
..LDL1080:
/*   1509 */	blt	.L1572
/*   1510 */	ldp	x0, x1, [x0, 64]	//  (*)
	.loc 39 1510 0 is_stmt 0
..LDL1081:
/*   1510 */	sxtw	x15, w3
	.loc 39 1509 0
..LDL1082:
/*   1509 */	asr	w3, w2, 2
/*   1509 */	add	w3, w2, w3, lsr #29
/*   1509 */	asr	w16, w3, 3
/*   1509 */	sub	w14, w2, w16, lsl #3
	.loc 39 1510 0
..LDL1083:
/*   1510 */	ldr	x11, [x1, x7, lsl #3]	//  (*)
/*   1510 */	ldr	x8, [x0, x7, lsl #3]	//  (*)
	.loc 39 1511 0
..LDL1084:
/*   1511 */	ldr	x13, [x1, x12, lsl #3]	//  (*)
/*   1511 */	ldr	x9, [x0, x12, lsl #3]	//  (*)
	.loc 39 1509 0
..LDL1085:
/*   1509 */	cbz	w16, .L1569
/*   1509 */	sub	w6, w16, 4
/*   1509 */	mov	x5, x15
/*   1509 */	mov	z1.d, z13.d
/*   1509 */	mov	z0.d, z13.d
/*   1509 */	cmp	w6, 0
/*   1509 */	blt	.L1581
	.loc 39 1510 0
..LDL1086:
/*   1510 */	ldr	x3, [x20, 8]	//  "xv"
/*   1510 */	lsl	x1, x15, 2
	.loc 39 1511 0
..LDL1087:
/*   1511 */	mov	z24.d, z13.d
/*   1511 */	mov	z25.d, z13.d
	.loc 39 1510 0
..LDL1088:
/*   1510 */	lsl	x0, x15, 3
	.loc 39 1511 0
..LDL1089:
/*   1511 */	mov	z23.d, z13.d
/*   1511 */	mov	z21.d, z13.d
	.loc 39 1510 0
..LDL1090:
/*   1510 */	add	x2, x1, x8
	.loc 39 1511 0
..LDL1091:
/*   1511 */	mov	z17.d, z13.d
/*   1511 */	mov	z6.d, z13.d
	.loc 39 1510 0
..LDL1092:
/*   1510 */	add	x4, x0, x11
	.loc 39 1511 0
..LDL1093:
/*   1511 */	add	x1, x1, x9
/*   1511 */	mov	z3.d, z13.d
/*   1511 */	mov	z1.d, z13.d
/*   1511 */	add	x0, x0, x13
	.loc 39 1509 0
..LDL1094:
/*   1509 */	cmp	w6, 8
/*   1509 */	blt	.L1774
	.loc 39 1510 0
..LDL1095:
/*   1510 */	ld1sw	{z8.d}, p0/z, [x2, z29.d, lsl #2]	//  (*)
/*   1510 */	sub	x17, x2, 32
	.loc 39 1511 0
..LDL1096:
/*   1511 */	sub	x18, x1, 64
	.loc 39 1510 0
..LDL1097:
/*   1510 */	ld1sw	{z27.d}, p0/z, [x17, z29.d, lsl #2]	//  (*)
	.loc 39 1511 0
..LDL1098:
/*   1511 */	sub	x17, x1, 32
/*   1511 */	ld1sw	{z26.d}, p0/z, [x17, z29.d, lsl #2]	//  (*)
	.loc 39 1510 0
..LDL1099:
/*   1510 */	sub	x17, x2, 64
	.loc 39 1511 0
..LDL1100:
/*   1511 */	ld1sw	{z31.d}, p0/z, [x1, z29.d, lsl #2]	//  (*)
	.loc 39 1510 0
..LDL1101:
/*   1510 */	ld1sw	{z28.d}, p0/z, [x17, z29.d, lsl #2]	//  (*)
	.loc 39 1511 0
..LDL1102:
/*   1511 */	ld1sw	{z30.d}, p0/z, [x18, z29.d, lsl #2]	//  (*)
	.p2align 5
.L1567:					// :entr:term:body:swpl
	.loc 39 1510 0
..LDL1103:
/*   1510 */	sub	x17, x2, 96
/*   1510 */	ld1sw	{z2.d}, p0/z, [x17, z29.d, lsl #2]	//  (*)
	.loc 39 1511 0
..LDL1104:
/*   1511 */	sub	x17, x1, 96
/*   1511 */	ld1sw	{z0.d}, p0/z, [x17, z29.d, lsl #2]	//  (*)
	.loc 39 1510 0
..LDL1105:
/*   1510 */	ld1d	{z11.d}, p0/z, [x3, z8.d, lsl #3]	//  (*)
/*   1510 */	ld1d	{z10.d}, p0/z, [x4, z29.d, lsl #3]	//  (*)
	.loc 39 1511 0
..LDL1106:
/*   1511 */	ld1d	{z8.d}, p0/z, [x3, z31.d, lsl #3]	//  (*)
/*   1511 */	ld1d	{z9.d}, p0/z, [x0, z29.d, lsl #3]	//  (*)
	.loc 39 1510 0
..LDL1107:
/*   1510 */	ld1d	{z27.d}, p0/z, [x3, z27.d, lsl #3]	//  (*)
/*   1510 */	sub	x17, x4, 64
/*   1510 */	ld1d	{z22.d}, p0/z, [x17, z29.d, lsl #3]	//  (*)
	.loc 39 1511 0
..LDL1108:
/*   1511 */	ld1d	{z26.d}, p0/z, [x3, z26.d, lsl #3]	//  (*)
/*   1511 */	sub	x17, x0, 64
/*   1511 */	ld1d	{z20.d}, p0/z, [x17, z29.d, lsl #3]	//  (*)
	.loc 39 1510 0
..LDL1109:
/*   1510 */	ld1d	{z18.d}, p0/z, [x3, z28.d, lsl #3]	//  (*)
/*   1510 */	sub	x17, x4, 128
/*   1510 */	ld1d	{z19.d}, p0/z, [x17, z29.d, lsl #3]	//  (*)
	.loc 39 1511 0
..LDL1110:
/*   1511 */	ld1d	{z7.d}, p0/z, [x3, z30.d, lsl #3]	//  (*)
/*   1511 */	sub	x17, x0, 128
/*   1511 */	ld1d	{z16.d}, p0/z, [x17, z29.d, lsl #3]	//  (*)
	.loc 39 1510 0
..LDL1111:
/*   1510 */	ld1d	{z4.d}, p0/z, [x3, z2.d, lsl #3]	//  (*)
/*   1510 */	sub	x17, x4, 192
/*   1510 */	ld1d	{z5.d}, p0/z, [x17, z29.d, lsl #3]	//  (*)
	.loc 39 1511 0
..LDL1112:
/*   1511 */	ld1d	{z0.d}, p0/z, [x3, z0.d, lsl #3]	//  (*)
/*   1511 */	sub	x17, x0, 192
/*   1511 */	ld1d	{z2.d}, p0/z, [x17, z29.d, lsl #3]	//  (*)
	.loc 39 1512 0
..LDL1113:
/*   1512 */	sub	x17, x2, 128
	.loc 39 1510 0
..LDL1114:
/*   1510 */	ld1sw	{z28.d}, p0/z, [x17, z29.d, lsl #2]	//  (*)
	.loc 39 1512 0
..LDL1115:
/*   1512 */	sub	x17, x1, 128
	.loc 39 1511 0
..LDL1116:
/*   1511 */	ld1sw	{z30.d}, p0/z, [x17, z29.d, lsl #2]	//  (*)
	.loc 39 1510 0
..LDL1117:
/*   1510 */	sub	x17, x2, 160
/*   1510 */	ld1sw	{z31.d}, p0/z, [x17, z29.d, lsl #2]	//  (*)
/*   1510 */	movprfx	z12.d, p0/z, z24.d
/*   1510 */	fmls	z12.d, p0/m, z10.d, z11.d
	.loc 39 1511 0
..LDL1118:
/*   1511 */	sub	x17, x1, 160
/*   1511 */	ld1sw	{z24.d}, p0/z, [x17, z29.d, lsl #2]	//  (*)
/*   1511 */	movprfx	z11.d, p0/z, z25.d
/*   1511 */	fmls	z11.d, p0/m, z9.d, z8.d
	.loc 39 1510 0
..LDL1119:
/*   1510 */	fmsb	z22.d, p0/m, z27.d, z23.d
	.loc 39 1511 0
..LDL1120:
/*   1511 */	fmsb	z20.d, p0/m, z26.d, z21.d
	.loc 39 1510 0
..LDL1121:
/*   1510 */	sub	x18, x2, 192
	.loc 39 1511 0
..LDL1122:
/*   1511 */	sub	x17, x1, 192
	.loc 39 1510 0
..LDL1123:
/*   1510 */	ld1sw	{z27.d}, p0/z, [x18, z29.d, lsl #2]	//  (*)
/*   1510 */	fmsb	z19.d, p0/m, z18.d, z17.d
	.loc 39 1512 0
..LDL1124:
/*   1512 */	sub	x30, x0, 256
	.loc 39 1511 0
..LDL1125:
/*   1511 */	ld1sw	{z8.d}, p0/z, [x17, z29.d, lsl #2]	//  (*)
/*   1511 */	fmsb	z16.d, p0/m, z7.d, z6.d
	.loc 39 1512 0
..LDL1126:
/*   1512 */	sub	x17, x4, 256
	.loc 39 1510 0
..LDL1127:
/*   1510 */	fmsb	z5.d, p0/m, z4.d, z3.d
	.loc 39 1511 0
..LDL1128:
/*   1511 */	fmsb	z2.d, p0/m, z0.d, z1.d
	.loc 39 1510 0
..LDL1129:
/*   1510 */	sub	x18, x2, 224
/*   1510 */	ld1sw	{z1.d}, p0/z, [x18, z29.d, lsl #2]	//  (*)
	.loc 39 1511 0
..LDL1130:
/*   1511 */	sub	x18, x1, 224
/*   1511 */	ld1sw	{z0.d}, p0/z, [x18, z29.d, lsl #2]	//  (*)
	.loc 39 1510 0
..LDL1131:
/*   1510 */	ld1d	{z26.d}, p0/z, [x3, z28.d, lsl #3]	//  (*)
/*   1510 */	ld1d	{z10.d}, p0/z, [x17, z29.d, lsl #3]	//  (*)
	.loc 39 1511 0
..LDL1132:
/*   1511 */	ld1d	{z9.d}, p0/z, [x3, z30.d, lsl #3]	//  (*)
/*   1511 */	ld1d	{z25.d}, p0/z, [x30, z29.d, lsl #3]	//  (*)
	.loc 39 1510 0
..LDL1133:
/*   1510 */	ld1d	{z30.d}, p0/z, [x3, z31.d, lsl #3]	//  (*)
/*   1510 */	sub	x17, x4, 320
/*   1510 */	ld1d	{z23.d}, p0/z, [x17, z29.d, lsl #3]	//  (*)
	.loc 39 1511 0
..LDL1134:
/*   1511 */	ld1d	{z28.d}, p0/z, [x3, z24.d, lsl #3]	//  (*)
/*   1511 */	sub	x17, x0, 320
/*   1511 */	ld1d	{z21.d}, p0/z, [x17, z29.d, lsl #3]	//  (*)
	.loc 39 1510 0
..LDL1135:
/*   1510 */	ld1d	{z18.d}, p0/z, [x3, z27.d, lsl #3]	//  (*)
/*   1510 */	sub	x17, x4, 384
/*   1510 */	ld1d	{z17.d}, p0/z, [x17, z29.d, lsl #3]	//  (*)
	.loc 39 1511 0
..LDL1136:
/*   1511 */	ld1d	{z7.d}, p0/z, [x3, z8.d, lsl #3]	//  (*)
/*   1511 */	sub	x17, x0, 384
/*   1511 */	ld1d	{z6.d}, p0/z, [x17, z29.d, lsl #3]	//  (*)
	.loc 39 1510 0
..LDL1137:
/*   1510 */	ld1d	{z4.d}, p0/z, [x3, z1.d, lsl #3]	//  (*)
/*   1510 */	sub	x17, x4, 448
/*   1510 */	ld1d	{z3.d}, p0/z, [x17, z29.d, lsl #3]	//  (*)
	.loc 39 1511 0
..LDL1138:
/*   1511 */	ld1d	{z0.d}, p0/z, [x3, z0.d, lsl #3]	//  (*)
/*   1511 */	sub	x17, x0, 448
/*   1511 */	ld1d	{z1.d}, p0/z, [x17, z29.d, lsl #3]	//  (*)
	.loc 39 1512 0
..LDL1139:
/*   1512 */	sub	x2, x2, 256
	.loc 39 1510 0
..LDL1140:
/*   1510 */	ld1sw	{z8.d}, p0/z, [x2, z29.d, lsl #2]	//  (*)
	.loc 39 1512 0
..LDL1141:
/*   1512 */	sub	x1, x1, 256
	.loc 39 1511 0
..LDL1142:
/*   1511 */	ld1sw	{z31.d}, p0/z, [x1, z29.d, lsl #2]	//  (*)
	.loc 39 1510 0
..LDL1143:
/*   1510 */	sub	x17, x2, 32
/*   1510 */	ld1sw	{z27.d}, p0/z, [x17, z29.d, lsl #2]	//  (*)
/*   1510 */	movprfx	z24.d, p0/z, z12.d
/*   1510 */	fmls	z24.d, p0/m, z10.d, z26.d
	.loc 39 1511 0
..LDL1144:
/*   1511 */	sub	x17, x1, 32
/*   1511 */	ld1sw	{z26.d}, p0/z, [x17, z29.d, lsl #2]	//  (*)
/*   1511 */	fmsb	z25.d, p0/m, z9.d, z11.d
	.loc 39 1510 0
..LDL1145:
/*   1510 */	fmsb	z23.d, p0/m, z30.d, z22.d
	.loc 39 1511 0
..LDL1146:
/*   1511 */	fmsb	z21.d, p0/m, z28.d, z20.d
	.loc 39 1510 0
..LDL1147:
/*   1510 */	sub	x17, x2, 64
	.loc 39 1511 0
..LDL1148:
/*   1511 */	sub	x18, x1, 64
	.loc 39 1510 0
..LDL1149:
/*   1510 */	ld1sw	{z28.d}, p0/z, [x17, z29.d, lsl #2]	//  (*)
/*   1510 */	fmsb	z17.d, p0/m, z18.d, z19.d
	.loc 39 1509 0
..LDL1150:
/*   1509 */	sub	x5, x5, 64
	.loc 39 1512 0
..LDL1151:
/*   1512 */	sub	x0, x0, 512
	.loc 39 1511 0
..LDL1152:
/*   1511 */	ld1sw	{z30.d}, p0/z, [x18, z29.d, lsl #2]	//  (*)
/*   1511 */	fmsb	z6.d, p0/m, z7.d, z16.d
	.loc 39 1512 0
..LDL1153:
/*   1512 */	sub	x4, x4, 512
	.loc 39 1510 0
..LDL1154:
/*   1510 */	fmsb	z3.d, p0/m, z4.d, z5.d
	.loc 39 1511 0
..LDL1155:
/*   1511 */	fmsb	z1.d, p0/m, z0.d, z2.d
	.loc 39 1512 0
..LDL1156:
/*   1512 */	sub	w6, w6, 8
	.loc 39 1509 0
..LDL1157:
/*   1509 */	cmp	w6, 8
/*   1509 */	bge	.L1567
	.loc 39 1510 0
..LDL1158:
/*   1510 */	sub	x17, x2, 96
/*   1510 */	ld1d	{z10.d}, p0/z, [x3, z8.d, lsl #3]	//  (*)
	.loc 39 1512 0
..LDL1159:
/*   1512 */	sub	w6, w6, 4
	.loc 39 1510 0
..LDL1160:
/*   1510 */	ld1sw	{z2.d}, p0/z, [x17, z29.d, lsl #2]	//  (*)
	.loc 39 1511 0
..LDL1161:
/*   1511 */	sub	x17, x1, 96
	.loc 39 1512 0
..LDL1162:
/*   1512 */	sub	x2, x2, 128
	.loc 39 1511 0
..LDL1163:
/*   1511 */	ld1sw	{z0.d}, p0/z, [x17, z29.d, lsl #2]	//  (*)
	.loc 39 1510 0
..LDL1164:
/*   1510 */	sub	x17, x4, 64
	.loc 39 1512 0
..LDL1165:
/*   1512 */	sub	x1, x1, 128
	.loc 39 1511 0
..LDL1166:
/*   1511 */	ld1d	{z8.d}, p0/z, [x3, z31.d, lsl #3]	//  (*)
	.loc 39 1509 0
..LDL1167:
/*   1509 */	sub	x5, x5, 32
	.loc 39 1512 0
..LDL1168:
/*   1512 */	cmp	w6, 0
	.loc 39 1510 0
..LDL1169:
/*   1510 */	ld1d	{z31.d}, p0/z, [x17, z29.d, lsl #3]	//  (*)
	.loc 39 1511 0
..LDL1170:
/*   1511 */	sub	x17, x0, 64
/*   1511 */	ld1d	{z22.d}, p0/z, [x17, z29.d, lsl #3]	//  (*)
	.loc 39 1510 0
..LDL1171:
/*   1510 */	sub	x17, x4, 128
/*   1510 */	ld1d	{z19.d}, p0/z, [x17, z29.d, lsl #3]	//  (*)
	.loc 39 1511 0
..LDL1172:
/*   1511 */	sub	x17, x0, 128
/*   1511 */	ld1d	{z16.d}, p0/z, [x17, z29.d, lsl #3]	//  (*)
	.loc 39 1510 0
..LDL1173:
/*   1510 */	sub	x17, x4, 192
/*   1510 */	ld1d	{z5.d}, p0/z, [x17, z29.d, lsl #3]	//  (*)
	.loc 39 1511 0
..LDL1174:
/*   1511 */	sub	x17, x0, 192
	.loc 39 1510 0
..LDL1175:
/*   1510 */	ld1d	{z11.d}, p0/z, [x4, z29.d, lsl #3]	//  (*)
	.loc 39 1512 0
..LDL1176:
/*   1512 */	sub	x4, x4, 256
	.loc 39 1511 0
..LDL1177:
/*   1511 */	ld1d	{z9.d}, p0/z, [x0, z29.d, lsl #3]	//  (*)
	.loc 39 1512 0
..LDL1178:
/*   1512 */	sub	x0, x0, 256
	.loc 39 1510 0
..LDL1179:
/*   1510 */	ld1d	{z27.d}, p0/z, [x3, z27.d, lsl #3]	//  (*)
	.loc 39 1511 0
..LDL1180:
/*   1511 */	ld1d	{z20.d}, p0/z, [x3, z26.d, lsl #3]	//  (*)
	.loc 39 1510 0
..LDL1181:
/*   1510 */	ld1d	{z18.d}, p0/z, [x3, z28.d, lsl #3]	//  (*)
	.loc 39 1511 0
..LDL1182:
/*   1511 */	ld1d	{z7.d}, p0/z, [x3, z30.d, lsl #3]	//  (*)
	.loc 39 1510 0
..LDL1183:
/*   1510 */	ld1d	{z4.d}, p0/z, [x3, z2.d, lsl #3]	//  (*)
	.loc 39 1511 0
..LDL1184:
/*   1511 */	ld1d	{z0.d}, p0/z, [x3, z0.d, lsl #3]	//  (*)
/*   1511 */	ld1d	{z2.d}, p0/z, [x17, z29.d, lsl #3]	//  (*)
	.loc 39 1510 0
..LDL1185:
/*   1510 */	fmls	z24.d, p0/m, z11.d, z10.d
	.loc 39 1511 0
..LDL1186:
/*   1511 */	fmls	z25.d, p0/m, z9.d, z8.d
	.loc 39 1510 0
..LDL1187:
/*   1510 */	fmls	z23.d, p0/m, z31.d, z27.d
	.loc 39 1511 0
..LDL1188:
/*   1511 */	fmls	z21.d, p0/m, z22.d, z20.d
	.loc 39 1510 0
..LDL1189:
/*   1510 */	fmls	z17.d, p0/m, z19.d, z18.d
	.loc 39 1511 0
..LDL1190:
/*   1511 */	fmls	z6.d, p0/m, z16.d, z7.d
	.loc 39 1510 0
..LDL1191:
/*   1510 */	fmls	z3.d, p0/m, z5.d, z4.d
	.loc 39 1511 0
..LDL1192:
/*   1511 */	fmls	z1.d, p0/m, z2.d, z0.d
	.loc 39 1512 0
..LDL1193:
/*   1512 */	blt	.L1771
.L1774:
	.p2align 5
.L1777:					// :entr:term:mod:swpl
	.loc 39 1510 0 is_stmt 1
..LDL1194:
/*   1510 */	ld1sw	{z0.d}, p0/z, [x2, z29.d, lsl #2]	//  (*)
/*   1510 */	sub	x17, x2, 32
	.loc 39 1509 0 is_stmt 0
..LDL1195:
/*   1509 */	sub	x5, x5, 32
	.loc 39 1512 0
..LDL1196:
/*   1512 */	subs	w6, w6, 4
	.loc 39 1510 0
..LDL1197:
/*   1510 */	ld1d	{z2.d}, p0/z, [x3, z0.d, lsl #3]	//  (*)
/*   1510 */	ld1d	{z0.d}, p0/z, [x4, z29.d, lsl #3]	//  (*)
/*   1510 */	fmls	z24.d, p0/m, z0.d, z2.d
	.loc 39 1511 0 is_stmt 1
..LDL1198:
/*   1511 */	ld1sw	{z0.d}, p0/z, [x1, z29.d, lsl #2]	//  (*)
/*   1511 */	ld1d	{z2.d}, p0/z, [x3, z0.d, lsl #3]	//  (*)
/*   1511 */	ld1d	{z0.d}, p0/z, [x0, z29.d, lsl #3]	//  (*)
/*   1511 */	fmls	z25.d, p0/m, z0.d, z2.d
	.loc 39 1510 0
..LDL1199:
/*   1510 */	ld1sw	{z0.d}, p0/z, [x17, z29.d, lsl #2]	//  (*)
/*   1510 */	sub	x17, x4, 64
/*   1510 */	ld1d	{z2.d}, p0/z, [x3, z0.d, lsl #3]	//  (*)
/*   1510 */	ld1d	{z0.d}, p0/z, [x17, z29.d, lsl #3]	//  (*)
	.loc 39 1511 0
..LDL1200:
/*   1511 */	sub	x17, x1, 32
	.loc 39 1510 0
..LDL1201:
/*   1510 */	fmls	z23.d, p0/m, z0.d, z2.d
	.loc 39 1511 0
..LDL1202:
/*   1511 */	ld1sw	{z0.d}, p0/z, [x17, z29.d, lsl #2]	//  (*)
/*   1511 */	sub	x17, x0, 64
/*   1511 */	ld1d	{z2.d}, p0/z, [x3, z0.d, lsl #3]	//  (*)
/*   1511 */	ld1d	{z0.d}, p0/z, [x17, z29.d, lsl #3]	//  (*)
	.loc 39 1510 0
..LDL1203:
/*   1510 */	sub	x17, x2, 64
	.loc 39 1511 0
..LDL1204:
/*   1511 */	fmls	z21.d, p0/m, z0.d, z2.d
	.loc 39 1510 0
..LDL1205:
/*   1510 */	ld1sw	{z0.d}, p0/z, [x17, z29.d, lsl #2]	//  (*)
/*   1510 */	sub	x17, x4, 128
/*   1510 */	ld1d	{z2.d}, p0/z, [x17, z29.d, lsl #3]	//  (*)
	.loc 39 1511 0
..LDL1206:
/*   1511 */	sub	x17, x1, 64
	.loc 39 1510 0
..LDL1207:
/*   1510 */	ld1d	{z0.d}, p0/z, [x3, z0.d, lsl #3]	//  (*)
/*   1510 */	fmls	z17.d, p0/m, z2.d, z0.d
	.loc 39 1511 0
..LDL1208:
/*   1511 */	ld1sw	{z0.d}, p0/z, [x17, z29.d, lsl #2]	//  (*)
/*   1511 */	sub	x17, x0, 128
/*   1511 */	ld1d	{z2.d}, p0/z, [x3, z0.d, lsl #3]	//  (*)
/*   1511 */	ld1d	{z0.d}, p0/z, [x17, z29.d, lsl #3]	//  (*)
	.loc 39 1510 0
..LDL1209:
/*   1510 */	sub	x17, x2, 96
	.loc 39 1512 0 is_stmt 0
..LDL1210:
/*   1512 */	sub	x2, x2, 128
	.loc 39 1511 0 is_stmt 1
..LDL1211:
/*   1511 */	fmls	z6.d, p0/m, z0.d, z2.d
	.loc 39 1510 0
..LDL1212:
/*   1510 */	ld1sw	{z0.d}, p0/z, [x17, z29.d, lsl #2]	//  (*)
/*   1510 */	sub	x17, x4, 192
	.loc 39 1512 0 is_stmt 0
..LDL1213:
/*   1512 */	sub	x4, x4, 256
	.loc 39 1510 0
..LDL1214:
/*   1510 */	ld1d	{z2.d}, p0/z, [x3, z0.d, lsl #3]	//  (*)
/*   1510 */	ld1d	{z0.d}, p0/z, [x17, z29.d, lsl #3]	//  (*)
	.loc 39 1511 0 is_stmt 1
..LDL1215:
/*   1511 */	sub	x17, x1, 96
	.loc 39 1512 0 is_stmt 0
..LDL1216:
/*   1512 */	sub	x1, x1, 128
	.loc 39 1510 0 is_stmt 1
..LDL1217:
/*   1510 */	fmls	z3.d, p0/m, z0.d, z2.d
	.loc 39 1511 0
..LDL1218:
/*   1511 */	ld1sw	{z0.d}, p0/z, [x17, z29.d, lsl #2]	//  (*)
/*   1511 */	sub	x17, x0, 192
	.loc 39 1512 0 is_stmt 0
..LDL1219:
/*   1512 */	sub	x0, x0, 256
	.loc 39 1511 0
..LDL1220:
/*   1511 */	ld1d	{z2.d}, p0/z, [x3, z0.d, lsl #3]	//  (*)
/*   1511 */	ld1d	{z0.d}, p0/z, [x17, z29.d, lsl #3]	//  (*)
/*   1511 */	fmls	z1.d, p0/m, z0.d, z2.d
	.loc 39 1512 0
..LDL1221:
/*   1512 */	bpl	.L1777
.L1771:
	.loc 39 1511 0
..LDL1222:
/*   1511 */	fadd	z0.d, z1.d, z6.d
/*   1511 */	fadd	z1.d, z25.d, z21.d
	.loc 39 1510 0
..LDL1223:
/*   1510 */	fadd	z2.d, z3.d, z17.d
/*   1510 */	fadd	z3.d, z24.d, z23.d
	.loc 39 1511 0
..LDL1224:
/*   1511 */	fadd	z0.d, z1.d, z0.d
	.loc 39 1510 0
..LDL1225:
/*   1510 */	fadd	z1.d, z3.d, z2.d
.L1581:
	.loc 39 1509 0 is_stmt 1
..LDL1226:
/*   1509 */	adds	w0, w6, 3
/*   1509 */	bmi	.L1568
	.loc 39 1510 0 is_stmt 0
..LDL1227:
/*   1510 */	ldr	x3, [x20, 8]	//  "xv"
	.p2align 5
.L1589:					// :entr:term:mod
	.loc 39 1510 0 is_stmt 1
..LDL1228:
/*   1510 */	index	z3.d, 0, -1
/*   1510 */	mov	x6, x5
	.loc 39 1509 0 is_stmt 0
..LDL1229:
/*   1509 */	sub	x5, x5, 8
	.loc 39 1510 0
..LDL1230:
/*   1510 */	add	x1, x8, x6, lsl #2
	.loc 39 1512 0
..LDL1231:
/*   1512 */	subs	w0, w0, 1
	.loc 39 1511 0 is_stmt 1
..LDL1232:
/*   1511 */	add	x4, x9, x6, lsl #2
	.loc 39 1510 0
..LDL1233:
/*   1510 */	add	x2, x11, x6, lsl #3
	.loc 39 1511 0
..LDL1234:
/*   1511 */	add	x6, x13, x6, lsl #3
	.loc 39 1510 0
..LDL1235:
/*   1510 */	ld1sw	{z5.d}, p0/z, [x1, z3.d, lsl #2]	//  (*)
	.loc 39 1511 0
..LDL1236:
/*   1511 */	ld1sw	{z4.d}, p0/z, [x4, z3.d, lsl #2]	//  (*)
	.loc 39 1510 0
..LDL1237:
/*   1510 */	ld1d	{z2.d}, p0/z, [x2, z3.d, lsl #3]	//  (*)
	.loc 39 1511 0
..LDL1238:
/*   1511 */	ld1d	{z3.d}, p0/z, [x6, z3.d, lsl #3]	//  (*)
	.loc 39 1510 0
..LDL1239:
/*   1510 */	ld1d	{z5.d}, p0/z, [x3, z5.d, lsl #3]	//  (*)
	.loc 39 1511 0
..LDL1240:
/*   1511 */	ld1d	{z4.d}, p0/z, [x3, z4.d, lsl #3]	//  (*)
	.loc 39 1510 0
..LDL1241:
/*   1510 */	fmls	z1.d, p0/m, z2.d, z5.d
	.loc 39 1511 0
..LDL1242:
/*   1511 */	fmls	z0.d, p0/m, z3.d, z4.d
	.loc 39 1509 0 is_stmt 0
..LDL1243:
/*   1509 */	bpl	.L1589
.L1568:
	.loc 39 1510 0
..LDL1244:
/*   1510 */	movprfx	z2, z1
/*   1510 */	ext	z2.b, z2.b, z1.b, 32
	.loc 39 1511 0
..LDL1245:
/*   1511 */	movprfx	z3, z0
/*   1511 */	ext	z3.b, z3.b, z0.b, 32
	.loc 39 1510 0
..LDL1246:
/*   1510 */	fadd	z1.d, z2.d, z1.d
	.loc 39 1511 0
..LDL1247:
/*   1511 */	fadd	z0.d, z3.d, z0.d
	.loc 39 1510 0
..LDL1248:
/*   1510 */	movprfx	z2, z1
/*   1510 */	ext	z2.b, z2.b, z1.b, 16
	.loc 39 1511 0
..LDL1249:
/*   1511 */	movprfx	z3, z0
/*   1511 */	ext	z3.b, z3.b, z0.b, 16
	.loc 39 1510 0
..LDL1250:
/*   1510 */	fadd	z2.d, z1.d, z2.d
	.loc 39 1511 0
..LDL1251:
/*   1511 */	fadd	z0.d, z0.d, z3.d
	.loc 39 1510 0
..LDL1252:
/*   1510 */	movprfx	z1, z2
/*   1510 */	ext	z1.b, z1.b, z2.b, 8
	.loc 39 1511 0
..LDL1253:
/*   1511 */	movprfx	z3, z0
/*   1511 */	ext	z3.b, z3.b, z0.b, 8
	.loc 39 1510 0
..LDL1254:
/*   1510 */	fadd	z1.d, z2.d, z1.d
	.loc 39 1511 0
..LDL1255:
/*    ??? */	ldr	d2, [x19, 16]	//  (*)
/*   1511 */	fadd	z0.d, z0.d, z3.d
/*   1511 */	fadd	d0, d2, d0
/*    ??? */	str	d0, [x19, 16]	//  (*)
	.loc 39 1510 0
..LDL1256:
/*    ??? */	ldr	d0, [x19, 24]	//  (*)
/*   1510 */	fadd	d0, d0, d1
/*    ??? */	str	d0, [x19, 24]	//  (*)
.L1569:
	.loc 39 1509 0 is_stmt 1
..LDL1257:
/*   1509 */	sbfiz	x0, x16, 3, 32
/*   1509 */	sub	x0, x24, x0
/*   1509 */	add	x0, x0, x15
/*   1509 */	cbz	w14, .L1572
/*   1509 */	whilelt	p1.d, wzr, w14
	.loc 39 1510 0
..LDL1258:
/*   1510 */	ldr	x1, [x20, 8]	//  "xv"
/*   1510 */	add	x2, x8, x0, lsl #2
	.loc 39 1511 0
..LDL1259:
/*   1511 */	add	x3, x9, x0, lsl #2
	.loc 39 1510 0
..LDL1260:
/*   1510 */	ld1sw	{z3.d}, p1/z, [x2, z29.d, lsl #2]	//  (*)
/*   1510 */	add	x2, x11, x0, lsl #3
	.loc 39 1511 0
..LDL1261:
/*   1511 */	ld1sw	{z0.d}, p1/z, [x3, z29.d, lsl #2]	//  (*)
	.loc 39 1510 0
..LDL1262:
/*   1510 */	ld1d	{z2.d}, p1/z, [x2, z29.d, lsl #3]	//  (*)
	.loc 39 1511 0
..LDL1263:
/*   1511 */	add	x0, x13, x0, lsl #3
/*   1511 */	ld1d	{z1.d}, p1/z, [x0, z29.d, lsl #3]	//  (*)
	.loc 39 1510 0
..LDL1264:
/*   1510 */	ld1d	{z3.d}, p1/z, [x1, z3.d, lsl #3]	//  (*)
	.loc 39 1511 0
..LDL1265:
/*   1511 */	ld1d	{z0.d}, p1/z, [x1, z0.d, lsl #3]	//  (*)
	.loc 39 1510 0
..LDL1266:
/*   1510 */	fmsb	z2.d, p1/m, z3.d, z13.d
	.loc 39 1511 0
..LDL1267:
/*   1511 */	fmsb	z1.d, p1/m, z0.d, z13.d
	.loc 39 1510 0 is_stmt 0
..LDL1268:
/*   1510 */	sel	z0.d, p1, z2.d, z13.d
	.loc 39 1511 0
..LDL1269:
/*   1511 */	sel	z1.d, p1, z1.d, z13.d
	.loc 39 1510 0
..LDL1270:
/*   1510 */	movprfx	z3, z0
/*   1510 */	ext	z3.b, z3.b, z0.b, 32
	.loc 39 1511 0
..LDL1271:
/*   1511 */	movprfx	z2, z1
/*   1511 */	ext	z2.b, z2.b, z1.b, 32
	.loc 39 1510 0
..LDL1272:
/*   1510 */	fadd	z0.d, z0.d, z3.d
	.loc 39 1511 0
..LDL1273:
/*   1511 */	fadd	z2.d, z1.d, z2.d
	.loc 39 1510 0
..LDL1274:
/*   1510 */	movprfx	z3, z0
/*   1510 */	ext	z3.b, z3.b, z0.b, 16
	.loc 39 1511 0
..LDL1275:
/*   1511 */	movprfx	z1, z2
/*   1511 */	ext	z1.b, z1.b, z2.b, 16
	.loc 39 1510 0
..LDL1276:
/*   1510 */	fadd	z0.d, z0.d, z3.d
	.loc 39 1511 0
..LDL1277:
/*   1511 */	fadd	z1.d, z2.d, z1.d
	.loc 39 1510 0
..LDL1278:
/*   1510 */	movprfx	z2, z0
/*   1510 */	ext	z2.b, z2.b, z0.b, 8
	.loc 39 1511 0
..LDL1279:
/*   1511 */	movprfx	z3, z1
/*   1511 */	ext	z3.b, z3.b, z1.b, 8
	.loc 39 1510 0
..LDL1280:
/*   1510 */	fadd	z2.d, z0.d, z2.d
	.loc 39 1511 0
..LDL1281:
/*   1511 */	fadd	z0.d, z1.d, z3.d
	.loc 39 1510 0
..LDL1282:
/*    ??? */	ldr	d1, [x19, 24]	//  (*)
/*   1510 */	fadd	d1, d1, d2
/*    ??? */	str	d1, [x19, 24]	//  (*)
	.loc 39 1511 0
..LDL1283:
/*    ??? */	ldr	d1, [x19, 16]	//  (*)
/*   1511 */	fadd	d0, d1, d0
/*    ??? */	str	d0, [x19, 16]	//  (*)
.L1572:
	.loc 39 1515 0 is_stmt 1
..LDL1284:
	.loc 39 1514 0 is_stmt 0
..LDL1285:
/*   1514 */	ldr	x0, [x20, 8]	//  "xv"
/*   1514 */	ldr	x1, [x20, 24]	//  "matrixDiagonal"
	.loc 39 1515 0
..LDL1286:
/*    ??? */	ldr	d1, [x19, 24]	//  (*)
	.loc 39 1514 0
..LDL1287:
/*   1514 */	ldr	x1, [x1, x7, lsl #3]	//  (*)
/*   1514 */	ldr	d2, [x0, x7, lsl #3]	//  (*)
/*   1514 */	ldr	d0, [x1]	//  (*)
	.loc 39 1515 0
..LDL1288:
/*   1515 */	fmadd	d2, d2, d0, d1
/*   1515 */	frecpe	d3, d0
/*   1515 */	fmsub	d1, d0, d3, d15
/*   1515 */	fmul	d2, d2, d3
/*   1515 */	fmadd	d3, d1, d1, d1
/*   1515 */	fmul	d0, d1, d1
/*   1515 */	fmadd	d3, d3, d2, d2
/*   1515 */	fmadd	d0, d0, d0, d1
	.loc 39 1518 0 is_stmt 1
..LDL1289:
/*    ??? */	ldr	d1, [x19, 16]	//  (*)
	.loc 39 1515 0
..LDL1290:
/*   1515 */	fmadd	d0, d0, d3, d2
/*   1515 */	str	d0, [x0, x7, lsl #3]	//  (*)
	.loc 39 1517 0
..LDL1291:
/*   1517 */	ldr	x1, [x20, 24]	//  "matrixDiagonal"
	.loc 39 1518 0
..LDL1292:
	.loc 39 1517 0 is_stmt 0
..LDL1293:
/*   1517 */	ldr	d2, [x0, x12, lsl #3]	//  (*)
	.loc 39 1517 0 is_stmt 1
..LDL1294:
/*   1517 */	ldr	x1, [x1, x12, lsl #3]	//  (*)
	.loc 39 1518 0
..LDL1295:
	.loc 39 1517 0 is_stmt 0
..LDL1296:
/*   1517 */	ldr	d0, [x1]	//  (*)
	.loc 39 1518 0
..LDL1297:
/*   1518 */	fmadd	d2, d2, d0, d1
/*   1518 */	frecpe	d1, d0
/*   1518 */	fmsub	d0, d0, d1, d15
/*   1518 */	fmul	d1, d2, d1
/*   1518 */	fmadd	d3, d0, d0, d0
/*   1518 */	fmul	d2, d0, d0
/*   1518 */	fmadd	d3, d3, d1, d1
/*   1518 */	fmadd	d0, d2, d2, d0
/*   1518 */	fmadd	d0, d0, d3, d1
/*   1518 */	str	d0, [x0, x12, lsl #3]	//  (*)
.L1573:					// :term
	.loc 39 1529 0 is_stmt 1
..LDL1298:
/*   1529 */	sub	w10, w10, 1
/*   1529 */	subs	w25, w25, 1
/*   1529 */	bne	.L1544
.L1575:					// :term
	.loc 39 1530 0
..LDL1299:
/*   1530 */	sub	w26, w26, w28
/*   1530 */	cmp	w26, w27
/*   1530 */	bge	.L1541
/*   1530 */	b	.L1539
.L1578:
/*   1530 */	add	x20, x19, 40
/*   1530 */	ldr	x0, [x20, 24]
/*   1530 */	bl	__mpc_obar
/*   1530 */	ldr	x0, [x20, 24]
/*   1530 */	bl	__mpc_obar
/*    ??? */	ldp	x19, x20, [x29, -16]	//  (*)
	.cfi_restore 19
	.cfi_restore 20
/*    ??? */	ldp	x21, x22, [x29, -32]	//  (*)
	.cfi_restore 21
	.cfi_restore 22
/*    ??? */	ldp	x23, x24, [x29, -48]	//  (*)
	.cfi_restore 23
	.cfi_restore 24
/*    ??? */	ldp	x25, x26, [x29, -64]	//  (*)
	.cfi_restore 25
	.cfi_restore 26
/*    ??? */	ldp	x27, x28, [x29, -80]	//  (*)
	.cfi_restore 27
	.cfi_restore 28
/*    ??? */	ldp	d8, d9, [x29, -96]	//  (*)
	.cfi_restore 72
	.cfi_restore 73
/*    ??? */	ldp	d10, d11, [x29, -112]	//  (*)
	.cfi_restore 74
	.cfi_restore 75
/*    ??? */	ldp	d12, d13, [x29, -128]	//  (*)
	.cfi_restore 76
	.cfi_restore 77
/*    ??? */	ldp	d14, d15, [x29, -144]	//  (*)
	.cfi_restore 78
	.cfi_restore 79
/*    ??? */	add	sp, x29, 0
/*    ??? */	ldp	x29, x30, [sp], 16	//  (*)
	.cfi_restore 29
	.cfi_restore 30
	.cfi_def_cfa_offset 0
/*   1530 */	ret	
..D8.pchi:
	.cfi_endproc
.LFE7:
	.size	_Z18ComputeSYMGS_BLOCKRK19SparseMatrix_STRUCTRK13Vector_STRUCTRS2_R9TraceData._OMP_5, .-_Z18ComputeSYMGS_BLOCKRK19SparseMatrix_STRUCTRK13Vector_STRUCTRS2_R9TraceData._OMP_5
	.ident	"$Compiler: Fujitsu C/C++ Compiler 4.7.0 (Nov 10 2021 09:37:15) ../src/ComputeSYMGS.cpp _Z12ComputeSYMGSRK19SparseMatrix_STRUCTRK13Vector_STRUCTRS2_R9TraceData $"
	.text
	.align	2
	.global	_Z12ComputeSYMGSRK19SparseMatrix_STRUCTRK13Vector_STRUCTRS2_R9TraceData
	.type	_Z12ComputeSYMGSRK19SparseMatrix_STRUCTRK13Vector_STRUCTRS2_R9TraceData, %function
_Z12ComputeSYMGSRK19SparseMatrix_STRUCTRK13Vector_STRUCTRS2_R9TraceData:
	.loc 39 1565 0
..LDL1300:
.LFB8:
	.cfi_startproc
/*   1534 */	sub	sp, sp, 64
	.cfi_def_cfa_offset 64
/*    ??? */	str	x30, [sp, 48]	//  (*)
	.cfi_offset 30, -16
	.loc 39 1568 0
..LDL1301:
/*   1568 */	ldrb	w4, [x0, 328]	//  (*)
/*   1568 */	cbnz	w4, .L613
	.loc 39 1582 0
..LDL1302:
/*   1582 */	bl	_Z18ComputeSYMGS_BLOCKRK19SparseMatrix_STRUCTRK13Vector_STRUCTRS2_R9TraceData
/*   1582 */	b	.L615
.L613:
	.loc 39 1574 0
..LDL1303:
/*   1574 */	bl	_Z16ComputeSYMGS_TDGRK19SparseMatrix_STRUCTRK13Vector_STRUCTRS2_R9TraceData
.L615:					// :epi:term
	.loc 39 1584 0
..LDL1304:
/*    ??? */	ldr	x30, [sp, 48]	//  (*)
	.cfi_restore 30
/*   1584 */	add	sp, sp, 64
	.cfi_def_cfa_offset 0
/*   1584 */	ret	
..D9.pchi:
	.cfi_endproc
.LFE8:
	.size	_Z12ComputeSYMGSRK19SparseMatrix_STRUCTRK13Vector_STRUCTRS2_R9TraceData, .-_Z12ComputeSYMGSRK19SparseMatrix_STRUCTRK13Vector_STRUCTRS2_R9TraceData
	.ident	"$Compiler: Fujitsu C/C++ Compiler 4.7.0 (Nov 10 2021 09:37:15) ../src/ComputeSYMGS.cpp __sti___16_ComputeSYMGS_cpp_49bfd29d $"
	.text
	.align	2
	.type	__sti___16_ComputeSYMGS_cpp_49bfd29d, %function
__sti___16_ComputeSYMGS_cpp_49bfd29d:
	.loc 39 1585 0
..LDL1305:
.LFB9:
	.cfi_startproc
/*   1585 */	ret	
..D10.pchi:
	.cfi_endproc
.LFE9:
	.size	__sti___16_ComputeSYMGS_cpp_49bfd29d, .-__sti___16_ComputeSYMGS_cpp_49bfd29d
	.section	.init_array,"aw"
	.align	3
	.xword		__sti___16_ComputeSYMGS_cpp_49bfd29d
	.file 40 "../src/InstrumentationData.hpp"
	.file 41 "/usr/include/bits/stdint-uintn.h"
	.file 42 "/opt/FJSVstclanga/cp-1.0.21.01/bin/../include/libc++/v371/utility"
	.file 43 "/opt/FJSVstclanga/cp-1.0.21.01/bin/../include/libc++/v371/limits"
	.file 44 "/usr/include/stdint.h"
	.file 45 "/usr/include/alloca.h"
	.file 46 "/usr/include/bits/types/locale_t.h"
	.file 47 "/usr/include/bits/types/__locale_t.h"
	.file 48 "/usr/include/bits/floatn-common.h"
	.file 49 "/usr/include/bits/floatn.h"
	.file 50 "/usr/include/sys/select.h"
	.file 51 "/usr/include/bits/types/struct_timeval.h"
	.file 52 "/usr/include/bits/types/struct_timespec.h"
	.file 53 "/usr/include/bits/types/__sigset_t.h"
	.file 54 "/usr/include/bits/stdint-intn.h"
	.file 55 "/usr/include/bits/types/__FILE.h"
	.file 56 "/opt/FJSVstclanga/cp-1.0.21.01/bin/../include/stdarg.h"
	.file 57 "/usr/include/assert.h"
	.file 58 "/usr/include/bits/mathcalls-helper-functions.h"
	.file 59 "/usr/include/bits/mathcalls.h"
	.file 60 "/usr/include/bits/mathcalls-narrow.h"
	.file 61 "../src/ComputeSYMGS_ref.hpp"
	.file 62 "/usr/include/errno.h"
	.file 63 "/lustre/software/likwid/5.2.2//include/bstrlib.h"
	.file 64 "/lustre/software/likwid/5.2.2//include/likwid.h"
	.file 65 "/usr/include/sys/types.h"
	.file 66 "/usr/include/bits/types/clock_t.h"
	.file 67 "/usr/include/bits/types/clockid_t.h"
	.file 68 "/usr/include/bits/types/time_t.h"
	.file 69 "/usr/include/bits/types/timer_t.h"
	.file 70 "/usr/include/bits/types/sigset_t.h"
	.file 71 "/usr/include/bits/pthreadtypes-arch.h"
	.file 72 "/usr/include/bits/thread-shared-types.h"
	.file 73 "/usr/include/bits/pthreadtypes.h"
	.file 74 "/usr/include/bits/types/FILE.h"
	.file 75 "/usr/include/bits/types/error_t.h"
	.pushsection	.text
..text.e:
	.popsection
	.section	.rodata
	.align	3
.LR.1:
	.ascii "x.localLength\040>=\040A.localNumberOfColumns\000"
	.type	.LR.1, %object
	.size	.LR.1,.-.LR.1
	.section	.rodata
	.align	3
.LR.2:
	.ascii "../src/ComputeSYMGS.cpp\000"
	.type	.LR.2, %object
	.size	.LR.2,.-.LR.2
	.section	.rodata
	.align	3
.LR.3:
	.ascii "x.localLength\040==\040A.localNumberOfColumns\000"
	.type	.LR.3, %object
	.size	.LR.3,.-.LR.3
	.section	.rodata
	.align	3
.LR.4:
	.byte	105
	.byte	110
	.byte	116
	.byte	32
	.byte	67
	.byte	111
	.byte	109
	.byte	112
	.byte	117
	.byte	116
	.byte	101
	.byte	83
	.byte	89
	.byte	77
	.byte	71
	.byte	83
	.byte	95
	.byte	66
	.byte	76
	.byte	79
	.byte	67
	.byte	75
	.byte	40
	.byte	99
	.byte	111
	.byte	110
	.byte	115
	.byte	116
	.byte	32
	.byte	83
	.byte	112
	.byte	97
	.byte	114
	.byte	115
	.byte	101
	.byte	77
	.byte	97
	.byte	116
	.byte	114
	.byte	105
	.byte	120
	.byte	95
	.byte	83
	.byte	84
	.byte	82
	.byte	85
	.byte	67
	.byte	84
	.byte	32
	.byte	38
	.byte	44
	.byte	32
	.byte	99
	.byte	111
	.byte	110
	.byte	115
	.byte	116
	.byte	32
	.byte	86
	.byte	101
	.byte	99
	.byte	116
	.byte	111
	.byte	114
	.byte	95
	.byte	83
	.byte	84
	.byte	82
	.byte	85
	.byte	67
	.byte	84
	.byte	32
	.byte	38
	.byte	44
	.byte	32
	.byte	86
	.byte	101
	.byte	99
	.byte	116
	.byte	111
	.byte	114
	.byte	95
	.byte	83
	.byte	84
	.byte	82
	.byte	85
	.byte	67
	.byte	84
	.byte	32
	.byte	38
	.byte	44
	.byte	32
	.byte	84
	.byte	114
	.byte	97
	.byte	99
	.byte	101
	.byte	68
	.byte	97
	.byte	116
	.byte	97
	.byte	32
	.byte	38
	.byte	41
	.zero	1
	.type	.LR.4, %object
	.size	.LR.4,.-.LR.4
	.section	.rodata
	.align	3
.LR.5:
	.byte	105
	.byte	110
	.byte	116
	.byte	32
	.byte	67
	.byte	111
	.byte	109
	.byte	112
	.byte	117
	.byte	116
	.byte	101
	.byte	83
	.byte	89
	.byte	77
	.byte	71
	.byte	83
	.byte	95
	.byte	84
	.byte	68
	.byte	71
	.byte	40
	.byte	99
	.byte	111
	.byte	110
	.byte	115
	.byte	116
	.byte	32
	.byte	83
	.byte	112
	.byte	97
	.byte	114
	.byte	115
	.byte	101
	.byte	77
	.byte	97
	.byte	116
	.byte	114
	.byte	105
	.byte	120
	.byte	95
	.byte	83
	.byte	84
	.byte	82
	.byte	85
	.byte	67
	.byte	84
	.byte	32
	.byte	38
	.byte	44
	.byte	32
	.byte	99
	.byte	111
	.byte	110
	.byte	115
	.byte	116
	.byte	32
	.byte	86
	.byte	101
	.byte	99
	.byte	116
	.byte	111
	.byte	114
	.byte	95
	.byte	83
	.byte	84
	.byte	82
	.byte	85
	.byte	67
	.byte	84
	.byte	32
	.byte	38
	.byte	44
	.byte	32
	.byte	86
	.byte	101
	.byte	99
	.byte	116
	.byte	111
	.byte	114
	.byte	95
	.byte	83
	.byte	84
	.byte	82
	.byte	85
	.byte	67
	.byte	84
	.byte	32
	.byte	38
	.byte	44
	.byte	32
	.byte	84
	.byte	114
	.byte	97
	.byte	99
	.byte	101
	.byte	68
	.byte	97
	.byte	116
	.byte	97
	.byte	32
	.byte	38
	.byte	41
	.zero	1
	.type	.LR.5, %object
	.size	.LR.5,.-.LR.5
	.section	.rodata
	.align	3
.LR.6:
	.byte	105
	.byte	110
	.byte	116
	.byte	32
	.byte	67
	.byte	111
	.byte	109
	.byte	112
	.byte	117
	.byte	116
	.byte	101
	.byte	70
	.byte	117
	.byte	115
	.byte	101
	.byte	100
	.byte	83
	.byte	89
	.byte	77
	.byte	71
	.byte	83
	.byte	95
	.byte	83
	.byte	80
	.byte	77
	.byte	86
	.byte	40
	.byte	99
	.byte	111
	.byte	110
	.byte	115
	.byte	116
	.byte	32
	.byte	83
	.byte	112
	.byte	97
	.byte	114
	.byte	115
	.byte	101
	.byte	77
	.byte	97
	.byte	116
	.byte	114
	.byte	105
	.byte	120
	.byte	95
	.byte	83
	.byte	84
	.byte	82
	.byte	85
	.byte	67
	.byte	84
	.byte	32
	.byte	38
	.byte	44
	.byte	32
	.byte	99
	.byte	111
	.byte	110
	.byte	115
	.byte	116
	.byte	32
	.byte	86
	.byte	101
	.byte	99
	.byte	116
	.byte	111
	.byte	114
	.byte	95
	.byte	83
	.byte	84
	.byte	82
	.byte	85
	.byte	67
	.byte	84
	.byte	32
	.byte	38
	.byte	44
	.byte	32
	.byte	86
	.byte	101
	.byte	99
	.byte	116
	.byte	111
	.byte	114
	.byte	95
	.byte	83
	.byte	84
	.byte	82
	.byte	85
	.byte	67
	.byte	84
	.byte	32
	.byte	38
	.byte	44
	.byte	32
	.byte	86
	.byte	101
	.byte	99
	.byte	116
	.byte	111
	.byte	114
	.byte	95
	.byte	83
	.byte	84
	.byte	82
	.byte	85
	.byte	67
	.byte	84
	.byte	32
	.byte	38
	.byte	41
	.zero	1
	.type	.LR.6, %object
	.size	.LR.6,.-.LR.6
	.section	.note.GNU-stack,"",%progbits
	.section	.fj.compile_info, "e"
	.ascii	"C++::trad-libc++"
