..text.b:
	.ident	"$Options: Fujitsu C/C++ Compiler 4.7.0 (Nov 10 2021 09:37:15) --preinclude /opt/FJSVstclanga/cp-1.0.21.01/bin/../lib/FCC.pre --g++ -Dunix -Dlinux -D__FUJITSU -D__FCC_major__=4 -D__FCC_minor__=7 -D__FCC_patchlevel__=0 -D__FCC_version__=\"4.7.0\" -D__aarch64__ -D__unix -D_OPENMP=201107 -D__PRAGMA_REDEFINE_EXTNAME -D__FCC_VERSION=800 -D__USER_LABEL_PREFIX__= -D__OPTIMIZE__ -D__ARM_ARCH=8 -D__ARM_FEATURE_SVE -D__FP_FAST_FMA -D__ELF__ -D__linux -Asystem(unix) -D__LIBC_6B -D_LP64 -D__LP64__ -DHPCG_CONTIGUOUS_ARRAYS -DHPCG_NO_MPI -DHPCG_MAN_OPT_SPMV_UNROLL -DSPMV_4_UNROLL -DHPCG_MAN_OPT_SCHEDULE_ON -I./src -I./src/OOKAMI_OMP_FJ -DLIKWID_PERFMON -DLIKWID_INSTRUMENTATION --K=omp -I../src --K=ocl -D_REENTRANT -D__MT__ --zmode=64 -I/lustre/software/arm/22.1/arm-linux-compiler-22.1_Generic-AArch64_RHEL-8_aarch64-linux/include -I/lustre/software/arm/22.1/gcc-11.2.0_Generic-AArch64_RHEL-8_aarch64-linux/include -I/lustre/software/likwid/5.2.2//include -I/cm/shared/apps/slurm/current/include -I/lustre/software/likwid/5.2.2//include --sys_include=/opt/FJSVstclanga/cp-1.0.21.01/bin/../include/libc++/v371 --sys_include=/opt/FJSVstclanga/cp-1.0.21.01/bin/../include --K=opt --exceptions ../src/ComputeSYMGS.cpp -- -ncmdname=FCC -nspopt=\"-c -DHPCG_CONTIGUOUS_ARRAYS -DHPCG_NO_MPI -DHPCG_MAN_OPT_SPMV_UNROLL -DSPMV_4_UNROLL -DHPCG_MAN_OPT_SCHEDULE_ON -I./src -I./src/OOKAMI_OMP_FJ -DLIKWID_PERFMON -DLIKWID_INSTRUMENTATION -Kfast -KSVE -Kopenmp -Koptmsg=2 -Nlst=t -Kocl -I../src -S -o ComputeSYMGS.asm.out\" -zobe=cplus -zcfc=target_sve -O3 -x- -Komitfp,mfunc,eval,fp_relaxed,fz,fast_matmul,fp_contract,ilfunc,simd_packed_promotion -KSVE -Kopenmp,threadsafe -Koptmsg=2 -Nlst=t -Kocl -zsta=am -Klargepage -zsrc=../src/ComputeSYMGS.cpp ComputeSYMGS.asm.out $"
	.file	"ComputeSYMGS.cpp"
	.ident	"$Compiler: Fujitsu C/C++ Compiler 4.7.0 (Nov 10 2021 09:37:15) ../src/ComputeSYMGS.cpp _Z22ComputeFusedSYMGS_SPMVRK19SparseMatrix_STRUCTRK13Vector_STRUCTRS2_S5_ $"
	.text
	.align	2
	.global	_Z22ComputeFusedSYMGS_SPMVRK19SparseMatrix_STRUCTRK13Vector_STRUCTRS2_S5_
	.type	_Z22ComputeFusedSYMGS_SPMVRK19SparseMatrix_STRUCTRK13Vector_STRUCTRS2_S5_, %function
_Z22ComputeFusedSYMGS_SPMVRK19SparseMatrix_STRUCTRK13Vector_STRUCTRS2_S5_:
	.file 1 "/usr/include/bits/byteswap.h"
	.file 2 "/usr/include/bits/types.h"
	.file 3 "/usr/include/bits/uintn-identity.h"
	.file 4 "/opt/FJSVstclanga/cp-1.0.21.01/bin/../include/libc++/v371/__config_fujitsu"
	.file 5 "/opt/FJSVstclanga/cp-1.0.21.01/bin/../include/libc++/v371/type_traits"
	.file 6 "/usr/include/string.h"
	.file 7 "/opt/FJSVstclanga/cp-1.0.21.01/bin/../include/stddef.h"
	.file 8 "/usr/include/strings.h"
	.file 9 "/usr/include/stdlib.h"
	.file 10 "/usr/include/bits/stdlib-bsearch.h"
	.file 11 "/usr/include/bits/stdlib-float.h"
	.file 12 "/opt/FJSVstclanga/cp-1.0.21.01/bin/../include/libc++/v371/cstdlib"
	.file 13 "/opt/FJSVstclanga/cp-1.0.21.01/bin/../include/libc++/v371/exception"
	.file 14 "/opt/FJSVstclanga/cp-1.0.21.01/bin/../include/libc++/v371/cstddef"
	.file 15 "/opt/FJSVstclanga/cp-1.0.21.01/bin/../include/libc++/v371/typeinfo"
	.file 16 "/opt/FJSVstclanga/cp-1.0.21.01/bin/../include/libc++/v371/new"
	.file 17 "/usr/include/wchar.h"
	.file 18 "/usr/include/bits/types/mbstate_t.h"
	.file 19 "/usr/include/bits/types/__mbstate_t.h"
	.file 20 "/opt/FJSVstclanga/cp-1.0.21.01/bin/../include/libc++/v371/iterator"
	.file 21 "/opt/FJSVstclanga/cp-1.0.21.01/bin/../include/libc++/v371/tuple"
	.file 22 "/opt/FJSVstclanga/cp-1.0.21.01/bin/../include/libc++/v371/atomic"
	.file 23 "/opt/FJSVstclanga/cp-1.0.21.01/bin/../include/libc++/v371/memory"
	.file 24 "/opt/FJSVstclanga/cp-1.0.21.01/bin/../include/libc++/v371/algorithm"
	.file 25 "/opt/FJSVstclanga/cp-1.0.21.01/bin/../include/libc++/v371/__bit_reference"
	.file 26 "/opt/FJSVstclanga/cp-1.0.21.01/bin/../include/libc++/v371/stdexcept"
	.file 27 "/opt/FJSVstclanga/cp-1.0.21.01/bin/../include/libc++/v371/iosfwd"
	.file 28 "../src/Geometry.hpp"
	.file 29 "../src/Vector.hpp"
	.file 30 "../src/MGData.hpp"
	.file 31 "/usr/include/math.h"
	.file 32 "/opt/FJSVstclanga/cp-1.0.21.01/bin/../include/libc++/v371/cmath"
	.file 33 "/opt/FJSVstclanga/cp-1.0.21.01/bin/../include/libc++/v371/__hash_table"
	.file 34 "/opt/FJSVstclanga/cp-1.0.21.01/bin/../include/libc++/v371/functional"
	.file 35 "/opt/FJSVstclanga/cp-1.0.21.01/bin/../include/libc++/v371/unordered_map"
	.file 36 "../src/SparseMatrix.hpp"
	.file 37 "/opt/FJSVstclanga/cp-1.0.21.01/bin/../include/libc++/v371/vector"
	.file 38 "/usr/include/ctype.h"
	.file 39 "../src/ComputeSYMGS.cpp"
	.loc 39 1239 0
..LDL1:
.LFB0:
	.cfi_startproc
/*   1298 */	sub	sp, sp, 48
	.cfi_def_cfa_offset 48
/*    ??? */	str	x30, [sp, 32]	//  (*)
	.cfi_offset 30, -16
/*    ??? */	stp	x19, x20, [sp, 16]	//  (*)
	.cfi_offset 19, -32
	.cfi_offset 20, -24
/*    ??? */	stp	x21, x22, [sp]	//  (*)
	.cfi_offset 21, -48
	.cfi_offset 22, -40
/*    ??? */	sub	sp, sp, 80
	.cfi_def_cfa_offset 128
/*   1239 */	add	x19, sp, 16
/*   1239 */	str	x0, [x19, 40]
	.loc 39 1240 0
..LDL2:
/*   1240 */	ldr	w5, [x2]	//  (*)
/*   1240 */	ldr	w4, [x0, 36]	//  (*)
/*   1240 */	cmp	w5, w4
/*   1240 */	bne	.L1331
	.loc 39 1246 0
..LDL3:
/*   1246 */	ldr	x1, [x1, 8]	//  (*)
/*   1246 */	str	x1, [x19, 32]
	.loc 39 1247 0
..LDL4:
/*   1247 */	ldr	x1, [x2, 8]	//  (*)
/*   1247 */	str	x1, [x19, 24]
	.loc 39 1248 0
..LDL5:
/*   1248 */	ldr	x1, [x3, 8]	//  (*)
/*   1248 */	str	x1, [x19, 16]
	.loc 39 1249 0
..LDL6:
/*   1249 */	ldr	x1, [x0, 80]	//  (*)
/*   1249 */	str	x1, [x19, 8]
	.loc 39 1254 0
..LDL7:
/*   1254 */	str	wzr, [x19, 4]
	.loc 37 641 0
..LDL8:
/*    641 */	ldp	x0, x1, [x0, 280]	//  (*)
/*    641 */	sub	x0, x1, x0
/*    641 */	mov	x1, 24
/*    641 */	sdiv	x0, x0, x1
	.loc 39 1254 0
..LDL9:
/*   1254 */	cbz	x0, .L1325
	.loc 39 1256 0 is_stmt 0
..LDL10:
/*   1256 */	adrp	x0, _Z22ComputeFusedSYMGS_SPMVRK19SparseMatrix_STRUCTRK13Vector_STRUCTRS2_S5_._OMP_1
	.loc 37 641 0
..LDL11:
/*    641 */	mov	x20, 24
	.loc 39 1273 0
..LDL12:
/*   1273 */	add	x22, x19, 40
	.loc 39 1256 0
..LDL13:
/*   1256 */	add	x21, x0, :lo12:_Z22ComputeFusedSYMGS_SPMVRK19SparseMatrix_STRUCTRK13Vector_STRUCTRS2_S5_._OMP_1
	.p2align 5
.L1323:					// :entr:term
	.loc 39 1256 0 is_stmt 0
..LDL14:
/*   1256 */	mov	x2, 0
/*   1256 */	mov	x0, x21
/*   1256 */	mov	x1, x19
/*   1256 */	bl	__mpc_opar
	.loc 39 1273 0 is_stmt 1
..LDL15:
/*   1273 */	ldr	w0, [x22, -36]
/*   1273 */	add	w0, w0, 1
/*   1273 */	str	w0, [x22, -36]
/*   1273 */	sxtw	x1, w0
	.loc 37 641 0
..LDL16:
/*    641 */	ldr	x0, [x22]
/*    641 */	ldp	x0, x2, [x0, 280]	//  (*)
/*    641 */	sub	x0, x2, x0
/*    641 */	sdiv	x0, x0, x20
	.loc 39 1273 0
..LDL17:
/*   1273 */	cmp	x1, x0
/*   1273 */	bcc	.L1323
.L1325:
	.loc 37 641 0
..LDL18:
/*    641 */	ldr	x0, [x19, 40]
/*    641 */	ldp	x0, x1, [x0, 280]	//  (*)
/*    641 */	sub	x0, x1, x0
/*    641 */	mov	x1, 24
/*    641 */	sdiv	x0, x0, x1
	.loc 39 1278 0
..LDL19:
/*   1278 */	sub	x0, x0, 1
/*   1278 */	str	w0, [x19]
/*   1278 */	cmp	w0, 0
/*   1278 */	blt	.L1330
	.loc 39 1280 0 is_stmt 0
..LDL20:
/*   1280 */	adrp	x0, _Z22ComputeFusedSYMGS_SPMVRK19SparseMatrix_STRUCTRK13Vector_STRUCTRS2_S5_._OMP_2
/*   1280 */	add	x20, x0, :lo12:_Z22ComputeFusedSYMGS_SPMVRK19SparseMatrix_STRUCTRK13Vector_STRUCTRS2_S5_._OMP_2
	.p2align 5
.L1328:					// :entr:term
	.loc 39 1280 0 is_stmt 0
..LDL21:
/*   1280 */	mov	x2, 0
/*   1280 */	mov	x0, x20
/*   1280 */	mov	x1, x19
/*   1280 */	bl	__mpc_opar
	.loc 39 1299 0 is_stmt 1
..LDL22:
/*   1299 */	ldr	w0, [x19]
/*   1299 */	sub	w0, w0, 1
/*   1299 */	str	w0, [x19]
/*   1299 */	cmp	w0, 0
/*   1299 */	bge	.L1328
.L1330:
	.loc 39 1301 0
..LDL23:
/*   1301 */	mov	w0, 0
/*   1301 */	b	.L1332
.L1331:
	.loc 39 1240 0
..LDL24:
/*   1240 */	adrp	x0, .LR.3
/*   1240 */	adrp	x1, .LR.2
/*   1240 */	mov	w2, 1240
/*   1240 */	add	x0, x0, :lo12:.LR.3
/*   1240 */	add	x1, x1, :lo12:.LR.2
/*   1240 */	adrp	x3, .LR.6
/*   1240 */	add	x3, x3, :lo12:.LR.6
/*   1240 */	bl	__assert_fail
.L1332:					// :epi:term
	.loc 39 1302 0
..LDL25:
/*    ??? */	add	sp, sp, 80
	.cfi_def_cfa_offset 48
/*    ??? */	ldp	x19, x20, [sp, 16]	//  (*)
	.cfi_restore 19
	.cfi_restore 20
/*    ??? */	ldp	x21, x22, [sp]	//  (*)
	.cfi_restore 21
	.cfi_restore 22
/*    ??? */	ldr	x30, [sp, 32]	//  (*)
	.cfi_restore 30
/*   1302 */	add	sp, sp, 48
	.cfi_def_cfa_offset 0
/*   1302 */	ret	
..D1.pchi:
	.cfi_endproc
.LFE0:
	.size	_Z22ComputeFusedSYMGS_SPMVRK19SparseMatrix_STRUCTRK13Vector_STRUCTRS2_S5_, .-_Z22ComputeFusedSYMGS_SPMVRK19SparseMatrix_STRUCTRK13Vector_STRUCTRS2_S5_
	.ident	"$Compiler: Fujitsu C/C++ Compiler 4.7.0 (Nov 10 2021 09:37:15) ../src/ComputeSYMGS.cpp _Z22ComputeFusedSYMGS_SPMVRK19SparseMatrix_STRUCTRK13Vector_STRUCTRS2_S5_._OMP_1 $"
	.text
	.align	2
	.type	_Z22ComputeFusedSYMGS_SPMVRK19SparseMatrix_STRUCTRK13Vector_STRUCTRS2_S5_._OMP_1, %function
_Z22ComputeFusedSYMGS_SPMVRK19SparseMatrix_STRUCTRK13Vector_STRUCTRS2_S5_._OMP_1:
	.loc 39 1256 0
..LDL26:
.LFB1:
	.cfi_startproc
/*    ??? */	stp	x29, x30, [sp, -16]!	//  (*)
/*   1256 */	add	x29, sp, 0
	.cfi_def_cfa 29, 16
	.cfi_offset 29, -16
	.cfi_offset 30, -8
/*   1256 */	sub	sp, sp, 176
/*    ??? */	stp	x23, x24, [x29, -48]	//  (*)
	.cfi_offset 23, -64
	.cfi_offset 24, -56
/*    ??? */	stp	d12, d13, [x29, -104]	//  (*)
	.cfi_offset 76, -120
	.cfi_offset 77, -112
/*    ??? */	stp	x19, x20, [x29, -16]	//  (*)
	.cfi_offset 19, -32
	.cfi_offset 20, -24
/*    ??? */	stp	d8, d9, [x29, -72]	//  (*)
	.cfi_offset 72, -88
	.cfi_offset 73, -80
/*   1256 */	add	x19, sp, 0
/*    ??? */	stp	x21, x22, [x29, -32]	//  (*)
	.cfi_offset 21, -48
	.cfi_offset 22, -40
/*    ??? */	stp	d10, d11, [x29, -88]	//  (*)
	.cfi_offset 74, -104
	.cfi_offset 75, -96
/*   1256 */	mov	x21, x0
/*    ??? */	str	x25, [x29, -56]	//  (*)
	.cfi_offset 25, -72
/*    ??? */	str	d14, [x29, -112]	//  (*)
	.cfi_offset 78, -128
/*    ??? */	sub	sp, sp, 32
/*   1256 */	mov	x5, sp
/*   1256 */	and	sp, x5, -64
/*   1256 */	str	x1, [x19, 48]
/*   1256 */	str	x2, [x19, 40]
/*   1256 */	str	x3, [x19, 32]
/*   1256 */	str	x4, [x19, 24]
	.loc 39 1256 0 is_stmt 0
..LDL27:
	.loc 39 1256 0 is_stmt 0
..LDL28:
	.loc 39 1258 0 is_stmt 1
..LDL29:
/*   1258 */	mov	w1, 0
/*   1258 */	ldrsw	x2, [x21, 4]	//  "l"
	.loc 37 1506 0
..LDL30:
/*   1506 */	ldr	x0, [x21, 40]	//  "A"
/*   1506 */	add	x3, x2, x2
/*   1506 */	ldr	x0, [x0, 280]	//  (*)
/*   1506 */	add	x2, x3, x2
/*   1506 */	lsl	x3, x2, 3
	.loc 37 641 0
..LDL31:
/*    641 */	add	x2, x3, 8
/*    641 */	ldr	x2, [x0, x2]	//  (*)
/*    641 */	ldr	x0, [x0, x3]	//  (*)
/*    641 */	sub	x0, x2, x0
/*    641 */	asr	x2, x0, 1
/*    641 */	add	x0, x0, x2, lsr #62
/*    641 */	asr	x20, x0, 2
/*   1258 */	cbz	x20, .L1349
	.loc 39 1258 0
..LDL32:
/*   1258 */	add	x2, x19, 8
/*   1258 */	mov	x0, 1
	.loc 39 1271 0 is_stmt 0
..LDL33:
/*   1271 */	fmov	d12, 1.000000e+00
	.loc 39 1258 0
..LDL34:
/*   1258 */	str	x0, [x2]
/*   1258 */	add	x24, x19, 0
/*   1258 */	add	x25, x19, 16
/*   1258 */	add	x22, x24, 16
/*   1258 */	add	x23, x24, 8
.L1336:
/*   1258 */	sxtw	x0, w1
/*   1258 */	ldr	x1, [x24, 32]
/*   1258 */	mov	x7, 0
/*   1258 */	mov	x2, 1
/*   1258 */	mov	x3, x7
/*   1258 */	mov	x4, x24
/*   1258 */	mov	x5, x22
/*   1258 */	mov	x6, x7
/*   1258 */	str	x1, [sp, 8]	//  (*)
/*   1258 */	mov	x1, x20
/*   1258 */	str	x23, [sp]	//  (*)
/*   1258 */	bl	__mpc_ortd_th
/*   1258 */	ldr	x0, [x24, 8]
/*   1258 */	cmp	x0, 0
/*   1258 */	ble	.L1349
/*   1258 */	ldr	x1, [x24]
	.loc 39 1259 0
..LDL35:
/*   1259 */	ldrsw	x0, [x21, 4]	//  "l"
	.loc 39 1267 0
..LDL36:
/*   1267 */	ptrue	p1.d, ALL
	.loc 39 1268 0
..LDL37:
/*   1268 */	fmov	z27.d, 0.000000e+00
	.loc 39 1264 0
..LDL38:
/*   1264 */	ldr	x8, [x21, 32]	//  "rv"
	.loc 39 1270 0
..LDL39:
/*   1270 */	ldr	x9, [x21, 24]	//  "xv"
	.loc 37 1506 0
..LDL40:
/*   1506 */	add	x2, x0, x0
/*   1506 */	add	x0, x2, x0
	.loc 39 1259 0
..LDL41:
/*   1259 */	sxtw	x6, w1
	.loc 37 1506 0
..LDL42:
/*   1506 */	lsl	x14, x0, 3
.L1338:					// :entr
	.loc 37 1506 0 is_stmt 1
..LDL43:
/*   1506 */	ldr	x2, [x21, 40]	//  "A"
	.loc 39 1263 0
..LDL44:
/*   1263 */	ldr	x5, [x21, 8]	//  "matrixDiagonal"
	.loc 37 1506 0
..LDL45:
/*   1506 */	ldr	x3, [x2, 280]	//  (*)
	.loc 39 1262 0
..LDL46:
/*   1262 */	ldr	x0, [x2, 48]	//  (*)
	.loc 39 1260 0
..LDL47:
/*   1260 */	ldp	x2, x4, [x2, 64]	//  (*)
	.loc 37 1506 0
..LDL48:
/*   1506 */	ldr	x3, [x3, x14]	//  (*)
	.loc 39 1259 0
..LDL49:
/*   1259 */	ldrsw	x7, [x3, x6, lsl #2]	//  (*)
	.loc 39 1262 0
..LDL50:
/*   1262 */	ldrb	w3, [x0, x7]	//  (*)
	.loc 39 1263 0
..LDL51:
/*   1263 */	ldr	x0, [x5, x7, lsl #3]	//  (*)
	.loc 39 1264 0
..LDL52:
/*   1264 */	ldr	d26, [x8, x7, lsl #3]	//  (*)
	.loc 39 1261 0
..LDL53:
/*   1261 */	ldr	x12, [x2, x7, lsl #3]	//  (*)
	.loc 39 1260 0
..LDL54:
/*   1260 */	ldr	x10, [x4, x7, lsl #3]	//  (*)
	.loc 39 1262 0
..LDL55:
/*   1262 */	uxtb	w2, w3
	.loc 39 1263 0
..LDL56:
/*   1263 */	ldr	d28, [x0]	//  (*)
	.loc 39 1266 0
..LDL57:
/*   1266 */	uxtb	w3, w3
/*   1266 */	cmp	w2, 0
/*   1266 */	csel	w0, w2, wzr, ge
/*   1266 */	cbz	w3, .L1346
/*   1266 */	asr	w2, w0, 2
/*   1266 */	mov	x4, 0
/*   1266 */	add	w2, w0, w2, lsr #29
/*   1266 */	asr	w11, w2, 3
/*   1266 */	sub	w5, w0, w11, lsl #3
/*   1266 */	cbz	w11, .L1343
/*   1266 */	sub	w2, w11, 8
/*   1266 */	mov	z0.d, z27.d
/*   1266 */	cmp	w2, 0
/*   1266 */	blt	.L1352
	.loc 39 1268 0 is_stmt 0
..LDL58:
/*   1268 */	ldr	x13, [x21, 24]	//  "xv"
	.loc 39 1267 0
..LDL59:
/*   1267 */	add	x3, x12, 224
	.loc 39 1268 0
..LDL60:
/*   1268 */	mov	z19.d, z27.d
/*   1268 */	mov	z18.d, z27.d
/*   1268 */	add	x0, x10, 448
/*   1268 */	mov	z16.d, z27.d
/*   1268 */	mov	z6.d, z27.d
	.loc 39 1266 0
..LDL61:
/*   1266 */	cmp	w2, 16
	.loc 39 1268 0
..LDL62:
/*   1268 */	mov	z5.d, z27.d
/*   1268 */	mov	z3.d, z27.d
/*   1268 */	mov	z2.d, z27.d
/*   1268 */	mov	z0.d, z27.d
	.loc 39 1266 0
..LDL63:
/*   1266 */	blt	.L1672
	.loc 39 1269 0
..LDL64:
/*   1269 */	mov	z1.d, z0.d
	.loc 39 1267 0
..LDL65:
/*   1267 */	ld1sw	{z31.d}, p1/z, [x3, -7, mul vl]	//  (*)
	.loc 39 1269 0
..LDL66:
/*   1269 */	mov	z22.d, z16.d
/*   1269 */	mov	z4.d, z2.d
/*   1269 */	mov	z7.d, z3.d
	.loc 39 1267 0
..LDL67:
/*   1267 */	ld1sw	{z30.d}, p1/z, [x3, -6, mul vl]	//  (*)
/*   1267 */	ld1sw	{z29.d}, p1/z, [x3, -5, mul vl]	//  (*)
	.loc 39 1269 0
..LDL68:
/*   1269 */	mov	z17.d, z5.d
/*   1269 */	mov	z20.d, z6.d
	.loc 39 1267 0
..LDL69:
/*   1267 */	ld1sw	{z8.d}, p1/z, [x3, -4, mul vl]	//  (*)
/*   1267 */	ld1sw	{z9.d}, p1/z, [x3, -3, mul vl]	//  (*)
	.loc 39 1269 0
..LDL70:
/*   1269 */	mov	z24.d, z18.d
/*   1269 */	mov	z25.d, z19.d
	.loc 39 1267 0
..LDL71:
/*   1267 */	ld1sw	{z10.d}, p1/z, [x3, -2, mul vl]	//  (*)
/*   1267 */	ld1sw	{z16.d}, p1/z, [x3, -1, mul vl]	//  (*)
	.p2align 5
.L1341:					// :entr:term:body:swpl
/*   1267 */	ld1sw	{z0.d}, p1/z, [x3, 0, mul vl]	//  (*)
	.loc 39 1268 0
..LDL72:
/*   1268 */	ld1d	{z31.d}, p1/z, [x13, z31.d, lsl #3]	//  (*)
/*   1268 */	ld1d	{z11.d}, p1/z, [x13, z30.d, lsl #3]	//  (*)
/*   1268 */	ld1d	{z23.d}, p1/z, [x13, z29.d, lsl #3]	//  (*)
/*   1268 */	ld1d	{z21.d}, p1/z, [x13, z8.d, lsl #3]	//  (*)
/*   1268 */	ld1d	{z18.d}, p1/z, [x13, z9.d, lsl #3]	//  (*)
/*   1268 */	ld1d	{z6.d}, p1/z, [x13, z10.d, lsl #3]	//  (*)
/*   1268 */	ld1d	{z3.d}, p1/z, [x13, z16.d, lsl #3]	//  (*)
/*   1268 */	ld1d	{z0.d}, p1/z, [x13, z0.d, lsl #3]	//  (*)
/*   1268 */	ld1d	{z14.d}, p1/z, [x0, -7, mul vl]	//  (*)
/*   1268 */	ld1d	{z13.d}, p1/z, [x0, -6, mul vl]	//  (*)
/*   1268 */	ld1d	{z9.d}, p1/z, [x0, -5, mul vl]	//  (*)
/*   1268 */	ld1d	{z10.d}, p1/z, [x0, -4, mul vl]	//  (*)
/*   1268 */	ld1d	{z19.d}, p1/z, [x0, -3, mul vl]	//  (*)
/*   1268 */	ld1d	{z16.d}, p1/z, [x0, -2, mul vl]	//  (*)
/*   1268 */	ld1d	{z5.d}, p1/z, [x0, -1, mul vl]	//  (*)
/*   1268 */	ld1d	{z2.d}, p1/z, [x0, 0, mul vl]	//  (*)
	.loc 39 1269 0
..LDL73:
/*   1269 */	add	x15, x3, 256
	.loc 39 1267 0
..LDL74:
/*   1267 */	ld1sw	{z29.d}, p1/z, [x3, 1, mul vl]	//  (*)
/*   1267 */	ld1sw	{z8.d}, p1/z, [x3, 2, mul vl]	//  (*)
/*   1267 */	ld1sw	{z30.d}, p1/z, [x3, 3, mul vl]	//  (*)
	.loc 39 1268 0
..LDL75:
/*   1268 */	fmls	z25.d, p1/m, z14.d, z31.d
/*   1268 */	fmls	z24.d, p1/m, z13.d, z11.d
	.loc 39 1267 0
..LDL76:
/*   1267 */	ld1sw	{z31.d}, p1/z, [x3, 4, mul vl]	//  (*)
	.loc 39 1268 0
..LDL77:
/*   1268 */	fmls	z22.d, p1/m, z9.d, z23.d
	.loc 39 1267 0
..LDL78:
/*   1267 */	ld1sw	{z9.d}, p1/z, [x3, 5, mul vl]	//  (*)
	.loc 39 1268 0
..LDL79:
/*   1268 */	fmls	z20.d, p1/m, z10.d, z21.d
	.loc 39 1267 0
..LDL80:
/*   1267 */	ld1sw	{z10.d}, p1/z, [x3, 6, mul vl]	//  (*)
	.loc 39 1268 0
..LDL81:
/*   1268 */	fmsb	z19.d, p1/m, z18.d, z17.d
/*   1268 */	fmsb	z16.d, p1/m, z6.d, z7.d
	.loc 39 1267 0
..LDL82:
/*   1267 */	ld1sw	{z7.d}, p1/z, [x3, 7, mul vl]	//  (*)
	.loc 39 1269 0
..LDL83:
/*   1269 */	add	x16, x0, 512
	.loc 39 1268 0
..LDL84:
/*   1268 */	fmls	z4.d, p1/m, z5.d, z3.d
/*   1268 */	fmls	z1.d, p1/m, z2.d, z0.d
	.loc 39 1267 0
..LDL85:
/*   1267 */	ld1sw	{z0.d}, p1/z, [x15, 0, mul vl]	//  (*)
	.loc 39 1268 0
..LDL86:
/*   1268 */	ld1d	{z11.d}, p1/z, [x13, z29.d, lsl #3]	//  (*)
/*   1268 */	ld1d	{z8.d}, p1/z, [x13, z8.d, lsl #3]	//  (*)
/*   1268 */	ld1d	{z23.d}, p1/z, [x13, z30.d, lsl #3]	//  (*)
/*   1268 */	ld1d	{z21.d}, p1/z, [x13, z31.d, lsl #3]	//  (*)
/*   1268 */	ld1d	{z18.d}, p1/z, [x13, z9.d, lsl #3]	//  (*)
/*   1268 */	ld1d	{z6.d}, p1/z, [x13, z10.d, lsl #3]	//  (*)
/*   1268 */	ld1d	{z3.d}, p1/z, [x13, z7.d, lsl #3]	//  (*)
/*   1268 */	ld1d	{z0.d}, p1/z, [x13, z0.d, lsl #3]	//  (*)
/*   1268 */	ld1d	{z14.d}, p1/z, [x0, 1, mul vl]	//  (*)
/*   1268 */	ld1d	{z13.d}, p1/z, [x0, 2, mul vl]	//  (*)
/*   1268 */	ld1d	{z9.d}, p1/z, [x0, 3, mul vl]	//  (*)
/*   1268 */	ld1d	{z10.d}, p1/z, [x0, 4, mul vl]	//  (*)
/*   1268 */	ld1d	{z17.d}, p1/z, [x0, 5, mul vl]	//  (*)
/*   1268 */	ld1d	{z7.d}, p1/z, [x0, 6, mul vl]	//  (*)
/*   1268 */	ld1d	{z5.d}, p1/z, [x0, 7, mul vl]	//  (*)
/*   1268 */	ld1d	{z2.d}, p1/z, [x16, 0, mul vl]	//  (*)
	.loc 39 1269 0
..LDL87:
/*   1269 */	add	x3, x15, 256
	.loc 39 1267 0
..LDL88:
/*   1267 */	ld1sw	{z31.d}, p1/z, [x15, 1, mul vl]	//  (*)
/*   1267 */	ld1sw	{z30.d}, p1/z, [x15, 2, mul vl]	//  (*)
/*   1267 */	ld1sw	{z29.d}, p1/z, [x15, 3, mul vl]	//  (*)
	.loc 39 1268 0
..LDL89:
/*   1268 */	fmls	z25.d, p1/m, z14.d, z11.d
/*   1268 */	fmls	z24.d, p1/m, z13.d, z8.d
	.loc 39 1267 0
..LDL90:
/*   1267 */	ld1sw	{z8.d}, p1/z, [x15, 4, mul vl]	//  (*)
	.loc 39 1268 0
..LDL91:
/*   1268 */	fmls	z22.d, p1/m, z9.d, z23.d
	.loc 39 1267 0
..LDL92:
/*   1267 */	ld1sw	{z9.d}, p1/z, [x15, 5, mul vl]	//  (*)
	.loc 39 1268 0
..LDL93:
/*   1268 */	fmls	z20.d, p1/m, z10.d, z21.d
	.loc 39 1267 0
..LDL94:
/*   1267 */	ld1sw	{z10.d}, p1/z, [x15, 6, mul vl]	//  (*)
	.loc 39 1268 0
..LDL95:
/*   1268 */	fmsb	z17.d, p1/m, z18.d, z19.d
/*   1268 */	fmsb	z7.d, p1/m, z6.d, z16.d
	.loc 39 1267 0
..LDL96:
/*   1267 */	ld1sw	{z16.d}, p1/z, [x15, 7, mul vl]	//  (*)
/*   1267 */	add	x4, x4, 128
	.loc 39 1269 0
..LDL97:
/*   1269 */	add	x0, x16, 512
	.loc 39 1268 0
..LDL98:
/*   1268 */	fmls	z4.d, p1/m, z5.d, z3.d
/*   1268 */	fmls	z1.d, p1/m, z2.d, z0.d
	.loc 39 1269 0
..LDL99:
/*   1269 */	sub	w2, w2, 16
	.loc 39 1267 0
..LDL100:
/*   1267 */	cmp	w2, 16
/*   1267 */	bge	.L1341
/*   1267 */	ld1sw	{z0.d}, p1/z, [x3, 0, mul vl]	//  (*)
	.loc 39 1268 0
..LDL101:
/*   1268 */	ld1d	{z11.d}, p1/z, [x13, z31.d, lsl #3]	//  (*)
	.loc 39 1269 0
..LDL102:
/*   1269 */	add	x3, x3, 256
/*   1269 */	sub	w2, w2, 8
	.loc 39 1268 0
..LDL103:
/*   1268 */	ld1d	{z13.d}, p1/z, [x13, z30.d, lsl #3]	//  (*)
/*   1268 */	ld1d	{z19.d}, p1/z, [x0, -7, mul vl]	//  (*)
	.loc 39 1267 0
..LDL104:
/*   1267 */	add	x4, x4, 64
	.loc 39 1269 0
..LDL105:
/*   1269 */	cmp	w2, 0
	.loc 39 1268 0
..LDL106:
/*   1268 */	ld1d	{z14.d}, p1/z, [x13, z29.d, lsl #3]	//  (*)
/*   1268 */	ld1d	{z18.d}, p1/z, [x0, -6, mul vl]	//  (*)
/*   1268 */	ld1d	{z23.d}, p1/z, [x13, z16.d, lsl #3]	//  (*)
/*   1268 */	ld1d	{z16.d}, p1/z, [x0, -5, mul vl]	//  (*)
/*   1268 */	ld1d	{z31.d}, p1/z, [x13, z8.d, lsl #3]	//  (*)
/*   1268 */	ld1d	{z6.d}, p1/z, [x0, -4, mul vl]	//  (*)
/*   1268 */	ld1d	{z30.d}, p1/z, [x13, z9.d, lsl #3]	//  (*)
/*   1268 */	ld1d	{z5.d}, p1/z, [x0, -3, mul vl]	//  (*)
/*   1268 */	ld1d	{z29.d}, p1/z, [x13, z10.d, lsl #3]	//  (*)
/*   1268 */	ld1d	{z3.d}, p1/z, [x0, -2, mul vl]	//  (*)
/*   1268 */	ld1d	{z2.d}, p1/z, [x0, -1, mul vl]	//  (*)
/*   1268 */	ld1d	{z21.d}, p1/z, [x13, z0.d, lsl #3]	//  (*)
/*   1268 */	ld1d	{z0.d}, p1/z, [x0, 0, mul vl]	//  (*)
	.loc 39 1269 0
..LDL107:
/*   1269 */	add	x0, x0, 512
	.loc 39 1268 0
..LDL108:
/*   1268 */	fmsb	z19.d, p1/m, z11.d, z25.d
/*   1268 */	fmsb	z18.d, p1/m, z13.d, z24.d
/*   1268 */	fmsb	z16.d, p1/m, z14.d, z22.d
/*   1268 */	fmsb	z2.d, p1/m, z23.d, z4.d
/*   1268 */	fmsb	z6.d, p1/m, z31.d, z20.d
/*   1268 */	fmsb	z5.d, p1/m, z30.d, z17.d
/*   1268 */	fmsb	z3.d, p1/m, z29.d, z7.d
/*   1268 */	fmsb	z0.d, p1/m, z21.d, z1.d
	.loc 39 1269 0
..LDL109:
/*   1269 */	blt	.L1669
.L1672:
	.p2align 5
.L1675:					// :entr:term:mod:swpl
	.loc 39 1267 0 is_stmt 1
..LDL110:
/*   1267 */	ld1sw	{z25.d}, p1/z, [x3, -7, mul vl]	//  (*)
/*   1267 */	ld1sw	{z30.d}, p1/z, [x3, -6, mul vl]	//  (*)
/*   1267 */	add	x4, x4, 64
	.loc 39 1269 0 is_stmt 0
..LDL111:
/*   1269 */	subs	w2, w2, 8
	.loc 39 1267 0
..LDL112:
/*   1267 */	ld1sw	{z21.d}, p1/z, [x3, -5, mul vl]	//  (*)
/*   1267 */	ld1sw	{z24.d}, p1/z, [x3, -4, mul vl]	//  (*)
/*   1267 */	ld1sw	{z10.d}, p1/z, [x3, -3, mul vl]	//  (*)
/*   1267 */	ld1sw	{z23.d}, p1/z, [x3, -2, mul vl]	//  (*)
/*   1267 */	ld1sw	{z17.d}, p1/z, [x3, -1, mul vl]	//  (*)
/*   1267 */	ld1sw	{z29.d}, p1/z, [x3, 0, mul vl]	//  (*)
	.loc 39 1269 0
..LDL113:
/*   1269 */	add	x3, x3, 256
	.loc 39 1268 0 is_stmt 1
..LDL114:
/*   1268 */	ld1d	{z20.d}, p1/z, [x0, -7, mul vl]	//  (*)
/*   1268 */	ld1d	{z22.d}, p1/z, [x0, -6, mul vl]	//  (*)
/*   1268 */	ld1d	{z1.d}, p1/z, [x0, -5, mul vl]	//  (*)
/*   1268 */	ld1d	{z4.d}, p1/z, [x0, -4, mul vl]	//  (*)
/*   1268 */	ld1d	{z7.d}, p1/z, [x0, -3, mul vl]	//  (*)
/*   1268 */	ld1d	{z9.d}, p1/z, [x0, -2, mul vl]	//  (*)
/*   1268 */	ld1d	{z8.d}, p1/z, [x0, -1, mul vl]	//  (*)
/*   1268 */	ld1d	{z31.d}, p1/z, [x0, 0, mul vl]	//  (*)
	.loc 39 1269 0 is_stmt 0
..LDL115:
/*   1269 */	add	x0, x0, 512
	.loc 39 1268 0
..LDL116:
/*   1268 */	ld1d	{z25.d}, p1/z, [x13, z25.d, lsl #3]	//  (*)
/*   1268 */	ld1d	{z30.d}, p1/z, [x13, z30.d, lsl #3]	//  (*)
/*   1268 */	ld1d	{z21.d}, p1/z, [x13, z21.d, lsl #3]	//  (*)
/*   1268 */	ld1d	{z24.d}, p1/z, [x13, z24.d, lsl #3]	//  (*)
/*   1268 */	ld1d	{z10.d}, p1/z, [x13, z10.d, lsl #3]	//  (*)
/*   1268 */	ld1d	{z23.d}, p1/z, [x13, z23.d, lsl #3]	//  (*)
/*   1268 */	ld1d	{z17.d}, p1/z, [x13, z17.d, lsl #3]	//  (*)
/*   1268 */	ld1d	{z29.d}, p1/z, [x13, z29.d, lsl #3]	//  (*)
/*   1268 */	fmls	z19.d, p1/m, z20.d, z25.d
/*   1268 */	fmls	z18.d, p1/m, z22.d, z30.d
/*   1268 */	fmls	z16.d, p1/m, z1.d, z21.d
/*   1268 */	fmls	z6.d, p1/m, z4.d, z24.d
/*   1268 */	fmls	z5.d, p1/m, z7.d, z10.d
/*   1268 */	fmls	z3.d, p1/m, z9.d, z23.d
/*   1268 */	fmls	z2.d, p1/m, z8.d, z17.d
/*   1268 */	fmls	z0.d, p1/m, z31.d, z29.d
	.loc 39 1269 0
..LDL117:
/*   1269 */	bpl	.L1675
.L1669:
	.loc 39 1268 0
..LDL118:
/*   1268 */	fadd	z0.d, z0.d, z2.d
/*   1268 */	fadd	z1.d, z3.d, z5.d
/*   1268 */	fadd	z2.d, z6.d, z16.d
/*   1268 */	fadd	z3.d, z19.d, z18.d
/*   1268 */	fadd	z0.d, z1.d, z0.d
/*   1268 */	fadd	z1.d, z3.d, z2.d
/*   1268 */	fadd	z0.d, z1.d, z0.d
.L1352:
	.loc 39 1266 0 is_stmt 1
..LDL119:
/*   1266 */	adds	w0, w2, 7
/*   1266 */	bmi	.L1342
	.loc 39 1268 0 is_stmt 0
..LDL120:
/*   1268 */	ldr	x2, [x21, 24]	//  "xv"
	.p2align 5
.L1364:					// :entr:term:mod
	.loc 39 1267 0 is_stmt 1
..LDL121:
/*   1267 */	ld1sw	{z1.d}, p1/z, [x12, x4, lsl #2]	//  (*)
	.loc 39 1269 0 is_stmt 0
..LDL122:
/*   1269 */	subs	w0, w0, 1
	.loc 39 1268 0 is_stmt 1
..LDL123:
/*   1268 */	ld1d	{z2.d}, p1/z, [x2, z1.d, lsl #3]	//  (*)
/*   1268 */	ld1d	{z1.d}, p1/z, [x10, x4, lsl #3]	//  (*)
	.loc 39 1267 0 is_stmt 0
..LDL124:
/*   1267 */	add	x4, x4, 8
	.loc 39 1268 0
..LDL125:
/*   1268 */	fmls	z0.d, p1/m, z1.d, z2.d
	.loc 39 1267 0
..LDL126:
/*   1267 */	bpl	.L1364
.L1342:
	.loc 39 1268 0
..LDL127:
/*   1268 */	movprfx	z1, z0
/*   1268 */	ext	z1.b, z1.b, z0.b, 32
/*   1268 */	fadd	z1.d, z1.d, z0.d
/*   1268 */	movprfx	z0, z1
/*   1268 */	ext	z0.b, z0.b, z1.b, 16
/*   1268 */	fadd	z1.d, z1.d, z0.d
/*   1268 */	movprfx	z0, z1
/*   1268 */	ext	z0.b, z0.b, z1.b, 8
/*   1268 */	fadd	z0.d, z1.d, z0.d
/*   1268 */	fadd	d26, d26, d0
.L1343:
	.loc 39 1266 0 is_stmt 1
..LDL128:
/*   1266 */	sbfiz	x0, x11, 3, 32
/*   1266 */	cbz	w5, .L1346
	.loc 39 1267 0 is_stmt 0
..LDL129:
/*   1267 */	whilelt	p0.d, wzr, w5
	.loc 39 1268 0 is_stmt 1
..LDL130:
/*   1268 */	ldr	x2, [x21, 24]	//  "xv"
	.loc 39 1267 0
..LDL131:
/*   1267 */	ld1sw	{z0.d}, p0/z, [x12, x0, lsl #2]	//  (*)
	.loc 39 1268 0
..LDL132:
/*   1268 */	ld1d	{z1.d}, p0/z, [x10, x0, lsl #3]	//  (*)
/*   1268 */	ld1d	{z0.d}, p0/z, [x2, z0.d, lsl #3]	//  (*)
/*   1268 */	fmsb	z1.d, p0/m, z0.d, z27.d
/*   1268 */	sel	z1.d, p0, z1.d, z27.d
/*   1268 */	movprfx	z0, z1
/*   1268 */	ext	z0.b, z0.b, z1.b, 32
/*   1268 */	fadd	z1.d, z1.d, z0.d
/*   1268 */	movprfx	z0, z1
/*   1268 */	ext	z0.b, z0.b, z1.b, 16
/*   1268 */	fadd	z1.d, z1.d, z0.d
/*   1268 */	movprfx	z0, z1
/*   1268 */	ext	z0.b, z0.b, z1.b, 8
/*   1268 */	fadd	z0.d, z1.d, z0.d
/*   1268 */	fadd	d26, d26, d0
.L1346:					// :term
	.loc 39 1271 0
..LDL133:
	.loc 39 1270 0 is_stmt 0
..LDL134:
/*   1270 */	ldr	d1, [x9, x7, lsl #3]	//  (*)
	.loc 39 1271 0
..LDL135:
/*   1271 */	frecpe	d0, d28
	.loc 39 1272 0 is_stmt 1
..LDL136:
/*   1272 */	add	w1, w1, 1
/*   1272 */	add	x6, x6, 1
	.loc 39 1271 0
..LDL137:
/*   1271 */	fmsub	d2, d28, d0, d12
/*   1271 */	fmadd	d4, d1, d28, d26
/*   1271 */	fmadd	d1, d2, d2, d2
/*   1271 */	fmul	d3, d2, d2
/*   1271 */	fmul	d0, d4, d0
/*   1271 */	fmadd	d2, d3, d3, d2
/*   1271 */	fmadd	d1, d1, d0, d0
/*   1271 */	fmadd	d0, d2, d1, d0
/*   1271 */	str	d0, [x9, x7, lsl #3]	//  (*)
	.loc 39 1272 0
..LDL138:
/*   1272 */	ldr	x0, [x25]
/*   1272 */	cmp	x6, x0
/*   1272 */	bls	.L1338
/*   1272 */	b	.L1336
.L1349:
/*   1272 */	add	x20, x19, 8
/*   1272 */	ldr	x0, [x20, 24]
/*   1272 */	bl	__mpc_obar
/*   1272 */	ldr	x0, [x20, 24]
/*   1272 */	bl	__mpc_obar
/*    ??? */	ldp	x19, x20, [x29, -16]	//  (*)
	.cfi_restore 19
	.cfi_restore 20
/*    ??? */	ldr	d14, [x29, -112]	//  (*)
	.cfi_restore 78
/*    ??? */	ldp	x21, x22, [x29, -32]	//  (*)
	.cfi_restore 21
	.cfi_restore 22
/*    ??? */	ldp	x23, x24, [x29, -48]	//  (*)
	.cfi_restore 23
	.cfi_restore 24
/*    ??? */	ldr	x25, [x29, -56]	//  (*)
	.cfi_restore 25
/*    ??? */	ldp	d8, d9, [x29, -72]	//  (*)
	.cfi_restore 72
	.cfi_restore 73
/*    ??? */	ldp	d10, d11, [x29, -88]	//  (*)
	.cfi_restore 74
	.cfi_restore 75
/*    ??? */	ldp	d12, d13, [x29, -104]	//  (*)
	.cfi_restore 76
	.cfi_restore 77
/*    ??? */	add	sp, x29, 0
/*    ??? */	ldp	x29, x30, [sp], 16	//  (*)
	.cfi_restore 29
	.cfi_restore 30
	.cfi_def_cfa_offset 0
/*   1272 */	ret	
..D2.pchi:
	.cfi_endproc
.LFE1:
	.size	_Z22ComputeFusedSYMGS_SPMVRK19SparseMatrix_STRUCTRK13Vector_STRUCTRS2_S5_._OMP_1, .-_Z22ComputeFusedSYMGS_SPMVRK19SparseMatrix_STRUCTRK13Vector_STRUCTRS2_S5_._OMP_1
	.ident	"$Compiler: Fujitsu C/C++ Compiler 4.7.0 (Nov 10 2021 09:37:15) ../src/ComputeSYMGS.cpp _Z22ComputeFusedSYMGS_SPMVRK19SparseMatrix_STRUCTRK13Vector_STRUCTRS2_S5_._OMP_2 $"
	.text
	.align	2
	.type	_Z22ComputeFusedSYMGS_SPMVRK19SparseMatrix_STRUCTRK13Vector_STRUCTRS2_S5_._OMP_2, %function
_Z22ComputeFusedSYMGS_SPMVRK19SparseMatrix_STRUCTRK13Vector_STRUCTRS2_S5_._OMP_2:
	.loc 39 1280 0
..LDL139:
.LFB2:
	.cfi_startproc
/*    ??? */	stp	x29, x30, [sp, -16]!	//  (*)
/*   1272 */	add	x29, sp, 0
	.cfi_def_cfa 29, 16
	.cfi_offset 29, -16
	.cfi_offset 30, -8
/*   1272 */	sub	sp, sp, 192
/*    ??? */	stp	x19, x20, [x29, -16]	//  (*)
	.cfi_offset 19, -32
	.cfi_offset 20, -24
/*    ??? */	stp	d8, d9, [x29, -96]	//  (*)
	.cfi_offset 72, -112
	.cfi_offset 73, -104
/*   1272 */	add	x19, sp, 0
/*   1272 */	mov	x20, x0
/*    ??? */	stp	x21, x22, [x29, -32]	//  (*)
	.cfi_offset 21, -48
	.cfi_offset 22, -40
/*    ??? */	stp	d10, d11, [x29, -112]	//  (*)
	.cfi_offset 74, -128
	.cfi_offset 75, -120
/*    ??? */	stp	x23, x24, [x29, -48]	//  (*)
	.cfi_offset 23, -64
	.cfi_offset 24, -56
/*    ??? */	stp	d12, d13, [x29, -128]	//  (*)
	.cfi_offset 76, -144
	.cfi_offset 77, -136
/*    ??? */	stp	x25, x26, [x29, -64]	//  (*)
	.cfi_offset 25, -80
	.cfi_offset 26, -72
/*    ??? */	stp	x27, x28, [x29, -80]	//  (*)
	.cfi_offset 27, -96
	.cfi_offset 28, -88
/*    ??? */	sub	sp, sp, 32
/*   1272 */	mov	x5, sp
/*   1272 */	and	sp, x5, -64
/*   1272 */	str	x1, [x19, 48]
/*   1272 */	str	x2, [x19, 40]
/*   1272 */	str	x3, [x19, 32]
/*   1272 */	str	x4, [x19, 24]
	.loc 39 1280 0 is_stmt 0
..LDL140:
	.loc 39 1280 0 is_stmt 0
..LDL141:
	.loc 39 1282 0 is_stmt 1
..LDL142:
/*   1282 */	ldrsw	x2, [x20]	//  "l"
	.loc 37 1506 0
..LDL143:
/*   1506 */	ldr	x0, [x20, 40]	//  "A"
/*   1506 */	add	x1, x2, x2
/*   1506 */	ldr	x0, [x0, 280]	//  (*)
/*   1506 */	add	x1, x1, x2
/*   1506 */	lsl	x1, x1, 3
	.loc 37 641 0
..LDL144:
/*    641 */	add	x2, x1, 8
/*    641 */	ldr	x2, [x0, x2]	//  (*)
/*    641 */	ldr	x0, [x0, x1]	//  (*)
/*    641 */	sub	x0, x2, x0
/*    641 */	asr	x1, x0, 1
/*    641 */	add	x0, x0, x1, lsr #62
/*    641 */	asr	x0, x0, 2
	.loc 39 1282 0
..LDL145:
/*   1282 */	sub	x17, x0, 1
/*   1282 */	cmp	w17, 0
/*   1282 */	blt	.L1382
/*   1282 */	add	x1, x19, 8
/*   1282 */	mov	x0, 1
	.loc 39 1295 0 is_stmt 0
..LDL146:
/*   1295 */	fmov	d13, 1.000000e+00
	.loc 39 1282 0
..LDL147:
/*   1282 */	str	x0, [x1]
/*   1282 */	add	x25, x19, 0
	.loc 39 1290 0
..LDL148:
/*   1290 */	mov	x24, 0
	.loc 39 1282 0
..LDL149:
/*   1282 */	add	x26, x25, 16
/*   1282 */	add	x27, x25, 8
.L1369:
/*   1282 */	sxtw	x0, w17
/*   1282 */	ldr	x1, [x25, 32]
/*   1282 */	mov	x7, 0
/*   1282 */	mov	x2, -1
/*   1282 */	mov	x3, x7
/*   1282 */	mov	x4, x25
/*   1282 */	mov	x5, x26
/*   1282 */	mov	x6, x7
/*   1282 */	str	x1, [sp, 8]	//  (*)
/*   1282 */	mov	x1, x7
/*   1282 */	str	x27, [sp]	//  (*)
/*   1282 */	bl	__mpc_ortd
/*   1282 */	ldr	x0, [x25, 8]
/*   1282 */	cmp	x0, 0
/*   1282 */	ble	.L1382
/*   1282 */	ldr	x17, [x25]
/*   1282 */	ldr	x0, [x25, 16]
	.loc 39 1290 0
..LDL150:
/*   1290 */	ptrue	p0.d, ALL
	.loc 39 1291 0
..LDL151:
/*   1291 */	index	z11.d, 0, -1
	.loc 39 1283 0
..LDL152:
/*   1283 */	ldrsw	x1, [x20]	//  "l"
	.loc 39 1295 0
..LDL153:
/*   1295 */	ldr	x21, [x20, 32]	//  "rv"
	.loc 39 1297 0
..LDL154:
/*   1297 */	ldr	x22, [x20, 16]	//  "yv"
	.loc 39 1294 0
..LDL155:
/*   1294 */	ldr	x18, [x20, 24]	//  "xv"
	.loc 39 1282 0
..LDL156:
/*   1282 */	sub	w2, w17, w0
	.loc 37 1506 0
..LDL157:
/*   1506 */	add	x3, x1, x1
	.loc 39 1282 0
..LDL158:
/*   1282 */	add	w2, w2, 1
/*   1282 */	cmp	w17, w0
/*   1282 */	csinc	w30, w2, wzr, ge
	.loc 37 1506 0
..LDL159:
/*   1506 */	add	x0, x3, x1
/*   1506 */	lsl	x23, x0, 3
	.loc 39 1283 0
..LDL160:
/*   1283 */	sxtw	x15, w17
.L1371:					// :entr
	.loc 37 1506 0 is_stmt 1
..LDL161:
/*   1506 */	ldr	x0, [x20, 40]	//  "A"
	.loc 39 1287 0
..LDL162:
/*   1287 */	ldr	x4, [x20, 8]	//  "matrixDiagonal"
	.loc 39 1288 0
..LDL163:
/*   1288 */	eor	v1.8b, v1.8b, v1.8b
	.loc 37 1506 0
..LDL164:
/*   1506 */	ldr	x3, [x0, 280]	//  (*)
	.loc 39 1286 0
..LDL165:
/*   1286 */	ldr	x2, [x0, 48]	//  (*)
	.loc 39 1284 0
..LDL166:
/*   1284 */	ldp	x0, x1, [x0, 64]	//  (*)
	.loc 37 1506 0
..LDL167:
/*   1506 */	ldr	x3, [x3, x23]	//  (*)
	.loc 39 1283 0
..LDL168:
/*   1283 */	ldrsw	x12, [x3, x15, lsl #2]	//  (*)
	.loc 39 1286 0
..LDL169:
/*   1286 */	ldrb	w2, [x2, x12]	//  (*)
	.loc 39 1287 0
..LDL170:
/*   1287 */	ldr	x3, [x4, x12, lsl #3]	//  (*)
	.loc 39 1284 0
..LDL171:
/*   1284 */	ldr	x10, [x1, x12, lsl #3]	//  (*)
	.loc 39 1285 0
..LDL172:
/*   1285 */	ldr	x11, [x0, x12, lsl #3]	//  (*)
	.loc 39 1287 0
..LDL173:
/*   1287 */	ldr	d12, [x3]	//  (*)
	.loc 39 1290 0
..LDL174:
/*   1290 */	sub	w1, w2, 1
/*   1290 */	cmp	w2, 0
/*   1290 */	csel	w0, w2, wzr, ge
/*   1290 */	cmp	w1, 0
/*   1290 */	blt	.L1379
	.loc 39 1291 0 is_stmt 0
..LDL175:
/*   1291 */	sxtw	x13, w1
	.loc 39 1290 0
..LDL176:
/*   1290 */	asr	w1, w0, 2
	.loc 39 1292 0
..LDL177:
/*   1292 */	fmov	z0.d, 0.000000e+00
	.loc 39 1290 0
..LDL178:
/*   1290 */	add	w1, w0, w1, lsr #29
/*   1290 */	asr	w14, w1, 3
/*   1290 */	sub	w16, w0, w14, lsl #3
/*   1290 */	cbz	w14, .L1376
/*   1290 */	sub	w4, w14, 8
/*   1290 */	mov	x0, x13
/*   1290 */	cmp	w4, 0
/*   1290 */	blt	.L1385
	.loc 39 1292 0
..LDL179:
/*   1292 */	ldr	x9, [x20, 24]	//  "xv"
/*   1292 */	lsl	x3, x13, 3
/*   1292 */	mov	z21.d, z0.d
/*   1292 */	mov	z20.d, z0.d
	.loc 39 1291 0
..LDL180:
/*   1291 */	lsl	x1, x13, 2
	.loc 39 1292 0
..LDL181:
/*   1292 */	sub	x2, x3, 192
/*   1292 */	mov	z19.d, z0.d
/*   1292 */	mov	z18.d, z0.d
/*   1292 */	mov	z16.d, z0.d
/*   1292 */	mov	z17.d, z0.d
	.loc 39 1291 0
..LDL182:
/*   1291 */	add	x1, x1, x11
	.loc 39 1292 0
..LDL183:
/*   1292 */	mov	z7.d, z0.d
/*   1292 */	add	x3, x3, x10
/*   1292 */	add	x2, x2, x10
	.loc 39 1290 0
..LDL184:
/*   1290 */	cmp	w4, 16
/*   1290 */	blt	.L1683
	.loc 39 1291 0
..LDL185:
/*   1291 */	ld1sw	{z24.d}, p0/z, [x1, z11.d, lsl #2]	//  (*)
/*   1291 */	sub	x6, x1, 32
/*   1291 */	sub	x5, x1, 64
	.loc 39 1293 0
..LDL186:
/*   1293 */	mov	z23.d, z0.d
	.loc 39 1291 0
..LDL187:
/*   1291 */	ld1sw	{z29.d}, p0/z, [x6, z11.d, lsl #2]	//  (*)
/*   1291 */	sub	x7, x1, 96
/*   1291 */	sub	x6, x1, 128
	.loc 39 1293 0
..LDL188:
/*   1293 */	mov	z1.d, z7.d
	.loc 39 1291 0
..LDL189:
/*   1291 */	ld1sw	{z28.d}, p0/z, [x5, z11.d, lsl #2]	//  (*)
/*   1291 */	sub	x5, x1, 160
	.loc 39 1293 0
..LDL190:
/*   1293 */	mov	z2.d, z17.d
	.loc 39 1291 0
..LDL191:
/*   1291 */	ld1sw	{z27.d}, p0/z, [x7, z11.d, lsl #2]	//  (*)
	.loc 39 1293 0
..LDL192:
/*   1293 */	mov	z3.d, z16.d
	.loc 39 1291 0
..LDL193:
/*   1291 */	ld1sw	{z26.d}, p0/z, [x6, z11.d, lsl #2]	//  (*)
	.loc 39 1293 0
..LDL194:
/*   1293 */	mov	z4.d, z18.d
	.loc 39 1291 0
..LDL195:
/*   1291 */	ld1sw	{z25.d}, p0/z, [x5, z11.d, lsl #2]	//  (*)
	.loc 39 1293 0
..LDL196:
/*   1293 */	mov	z5.d, z19.d
/*   1293 */	mov	z6.d, z20.d
/*   1293 */	mov	z22.d, z21.d
	.p2align 5
.L1374:					// :entr:term:body:swpl
	.loc 39 1291 0
..LDL197:
/*   1291 */	sub	x5, x1, 192
/*   1291 */	ld1sw	{z0.d}, p0/z, [x5, z11.d, lsl #2]	//  (*)
/*   1291 */	sub	x5, x1, 224
/*   1291 */	ld1sw	{z31.d}, p0/z, [x5, z11.d, lsl #2]	//  (*)
	.loc 39 1292 0
..LDL198:
/*   1292 */	ld1d	{z10.d}, p0/z, [x9, z24.d, lsl #3]	//  (*)
/*   1292 */	ld1d	{z21.d}, p0/z, [x3, z11.d, lsl #3]	//  (*)
/*   1292 */	ld1d	{z30.d}, p0/z, [x9, z29.d, lsl #3]	//  (*)
/*   1292 */	sub	x5, x3, 64
/*   1292 */	ld1d	{z20.d}, p0/z, [x5, z11.d, lsl #3]	//  (*)
/*   1292 */	ld1d	{z29.d}, p0/z, [x9, z28.d, lsl #3]	//  (*)
/*   1292 */	sub	x5, x3, 128
/*   1292 */	ld1d	{z19.d}, p0/z, [x5, z11.d, lsl #3]	//  (*)
/*   1292 */	ld1d	{z28.d}, p0/z, [x9, z27.d, lsl #3]	//  (*)
/*   1292 */	ld1d	{z18.d}, p0/z, [x2, z11.d, lsl #3]	//  (*)
/*   1292 */	ld1d	{z27.d}, p0/z, [x9, z26.d, lsl #3]	//  (*)
/*   1292 */	sub	x5, x2, 64
/*   1292 */	ld1d	{z17.d}, p0/z, [x5, z11.d, lsl #3]	//  (*)
/*   1292 */	ld1d	{z26.d}, p0/z, [x9, z25.d, lsl #3]	//  (*)
/*   1292 */	sub	x5, x2, 128
/*   1292 */	ld1d	{z16.d}, p0/z, [x5, z11.d, lsl #3]	//  (*)
/*   1292 */	ld1d	{z25.d}, p0/z, [x9, z0.d, lsl #3]	//  (*)
/*   1292 */	sub	x5, x2, 192
/*   1292 */	ld1d	{z7.d}, p0/z, [x5, z11.d, lsl #3]	//  (*)
/*   1292 */	ld1d	{z24.d}, p0/z, [x9, z31.d, lsl #3]	//  (*)
/*   1292 */	sub	x5, x2, 256
/*   1292 */	ld1d	{z0.d}, p0/z, [x5, z11.d, lsl #3]	//  (*)
	.loc 39 1293 0
..LDL199:
/*   1293 */	sub	x5, x1, 256
	.loc 39 1291 0
..LDL200:
/*   1291 */	ld1sw	{z8.d}, p0/z, [x5, z11.d, lsl #2]	//  (*)
/*   1291 */	sub	x5, x1, 288
/*   1291 */	ld1sw	{z9.d}, p0/z, [x5, z11.d, lsl #2]	//  (*)
/*   1291 */	sub	x5, x1, 320
/*   1291 */	ld1sw	{z31.d}, p0/z, [x5, z11.d, lsl #2]	//  (*)
	.loc 39 1292 0
..LDL201:
/*   1292 */	fmad	z21.d, p0/m, z10.d, z23.d
	.loc 39 1291 0
..LDL202:
/*   1291 */	sub	x5, x1, 352
	.loc 39 1292 0
..LDL203:
/*   1292 */	fmad	z20.d, p0/m, z30.d, z22.d
	.loc 39 1291 0
..LDL204:
/*   1291 */	ld1sw	{z30.d}, p0/z, [x5, z11.d, lsl #2]	//  (*)
	.loc 39 1292 0
..LDL205:
/*   1292 */	fmad	z19.d, p0/m, z29.d, z6.d
	.loc 39 1291 0
..LDL206:
/*   1291 */	sub	x5, x1, 384
	.loc 39 1292 0
..LDL207:
/*   1292 */	fmad	z18.d, p0/m, z28.d, z5.d
	.loc 39 1291 0
..LDL208:
/*   1291 */	ld1sw	{z29.d}, p0/z, [x5, z11.d, lsl #2]	//  (*)
	.loc 39 1292 0
..LDL209:
/*   1292 */	fmad	z17.d, p0/m, z27.d, z4.d
	.loc 39 1291 0
..LDL210:
/*   1291 */	sub	x5, x1, 416
/*   1291 */	ld1sw	{z28.d}, p0/z, [x5, z11.d, lsl #2]	//  (*)
	.loc 39 1292 0
..LDL211:
/*   1292 */	fmad	z16.d, p0/m, z26.d, z3.d
	.loc 39 1293 0
..LDL212:
/*   1293 */	sub	x6, x2, 512
/*   1293 */	sub	x5, x3, 512
	.loc 39 1292 0
..LDL213:
/*   1292 */	fmad	z7.d, p0/m, z25.d, z2.d
/*   1292 */	fmad	z0.d, p0/m, z24.d, z1.d
	.loc 39 1291 0
..LDL214:
/*   1291 */	sub	x7, x1, 448
/*   1291 */	ld1sw	{z1.d}, p0/z, [x7, z11.d, lsl #2]	//  (*)
/*   1291 */	sub	x7, x1, 480
/*   1291 */	ld1sw	{z24.d}, p0/z, [x7, z11.d, lsl #2]	//  (*)
	.loc 39 1292 0
..LDL215:
/*   1292 */	ld1d	{z23.d}, p0/z, [x9, z8.d, lsl #3]	//  (*)
/*   1292 */	ld1d	{z22.d}, p0/z, [x5, z11.d, lsl #3]	//  (*)
/*   1292 */	ld1d	{z27.d}, p0/z, [x9, z9.d, lsl #3]	//  (*)
/*   1292 */	sub	x5, x3, 576
/*   1292 */	ld1d	{z10.d}, p0/z, [x5, z11.d, lsl #3]	//  (*)
/*   1292 */	ld1d	{z9.d}, p0/z, [x9, z31.d, lsl #3]	//  (*)
/*   1292 */	sub	x5, x3, 640
/*   1292 */	ld1d	{z6.d}, p0/z, [x5, z11.d, lsl #3]	//  (*)
/*   1292 */	ld1d	{z26.d}, p0/z, [x9, z30.d, lsl #3]	//  (*)
/*   1292 */	ld1d	{z5.d}, p0/z, [x6, z11.d, lsl #3]	//  (*)
/*   1292 */	ld1d	{z25.d}, p0/z, [x9, z29.d, lsl #3]	//  (*)
/*   1292 */	sub	x5, x2, 576
/*   1292 */	ld1d	{z4.d}, p0/z, [x5, z11.d, lsl #3]	//  (*)
/*   1292 */	ld1d	{z8.d}, p0/z, [x9, z28.d, lsl #3]	//  (*)
/*   1292 */	sub	x5, x2, 640
/*   1292 */	ld1d	{z3.d}, p0/z, [x5, z11.d, lsl #3]	//  (*)
/*   1292 */	ld1d	{z31.d}, p0/z, [x9, z1.d, lsl #3]	//  (*)
/*   1292 */	sub	x5, x2, 704
/*   1292 */	ld1d	{z2.d}, p0/z, [x5, z11.d, lsl #3]	//  (*)
/*   1292 */	ld1d	{z30.d}, p0/z, [x9, z24.d, lsl #3]	//  (*)
/*   1292 */	sub	x5, x2, 768
/*   1292 */	ld1d	{z1.d}, p0/z, [x5, z11.d, lsl #3]	//  (*)
	.loc 39 1293 0
..LDL216:
/*   1293 */	sub	x1, x1, 512
	.loc 39 1291 0
..LDL217:
/*   1291 */	ld1sw	{z24.d}, p0/z, [x1, z11.d, lsl #2]	//  (*)
/*   1291 */	sub	x5, x1, 32
/*   1291 */	ld1sw	{z29.d}, p0/z, [x5, z11.d, lsl #2]	//  (*)
/*   1291 */	sub	x5, x1, 64
/*   1291 */	ld1sw	{z28.d}, p0/z, [x5, z11.d, lsl #2]	//  (*)
	.loc 39 1292 0
..LDL218:
/*   1292 */	fmad	z23.d, p0/m, z22.d, z21.d
	.loc 39 1291 0
..LDL219:
/*   1291 */	sub	x5, x1, 96
	.loc 39 1292 0
..LDL220:
/*   1292 */	movprfx	z22.d, p0/z, z20.d
/*   1292 */	fmla	z22.d, p0/m, z10.d, z27.d
	.loc 39 1291 0
..LDL221:
/*   1291 */	ld1sw	{z27.d}, p0/z, [x5, z11.d, lsl #2]	//  (*)
	.loc 39 1292 0
..LDL222:
/*   1292 */	fmad	z6.d, p0/m, z9.d, z19.d
	.loc 39 1291 0
..LDL223:
/*   1291 */	sub	x5, x1, 128
	.loc 39 1292 0
..LDL224:
/*   1292 */	fmad	z5.d, p0/m, z26.d, z18.d
	.loc 39 1291 0
..LDL225:
/*   1291 */	ld1sw	{z26.d}, p0/z, [x5, z11.d, lsl #2]	//  (*)
	.loc 39 1292 0
..LDL226:
/*   1292 */	fmad	z4.d, p0/m, z25.d, z17.d
	.loc 39 1291 0
..LDL227:
/*   1291 */	sub	x5, x1, 160
	.loc 39 1290 0
..LDL228:
/*   1290 */	sub	x0, x0, 128
	.loc 39 1291 0
..LDL229:
/*   1291 */	ld1sw	{z25.d}, p0/z, [x5, z11.d, lsl #2]	//  (*)
	.loc 39 1292 0
..LDL230:
/*   1292 */	fmad	z3.d, p0/m, z8.d, z16.d
	.loc 39 1293 0
..LDL231:
/*   1293 */	sub	x2, x2, 1024
/*   1293 */	sub	x3, x3, 1024
	.loc 39 1292 0
..LDL232:
/*   1292 */	fmad	z2.d, p0/m, z31.d, z7.d
/*   1292 */	fmad	z1.d, p0/m, z30.d, z0.d
	.loc 39 1293 0
..LDL233:
/*   1293 */	sub	w4, w4, 16
	.loc 39 1290 0
..LDL234:
/*   1290 */	cmp	w4, 16
/*   1290 */	bge	.L1374
	.loc 39 1291 0
..LDL235:
/*   1291 */	sub	x5, x1, 192
	.loc 39 1292 0
..LDL236:
/*   1292 */	ld1d	{z30.d}, p0/z, [x9, z29.d, lsl #3]	//  (*)
	.loc 39 1293 0
..LDL237:
/*   1293 */	sub	w4, w4, 8
	.loc 39 1291 0
..LDL238:
/*   1291 */	ld1sw	{z7.d}, p0/z, [x5, z11.d, lsl #2]	//  (*)
/*   1291 */	sub	x5, x1, 224
	.loc 39 1293 0
..LDL239:
/*   1293 */	sub	x1, x1, 256
	.loc 39 1291 0
..LDL240:
/*   1291 */	ld1sw	{z8.d}, p0/z, [x5, z11.d, lsl #2]	//  (*)
	.loc 39 1292 0
..LDL241:
/*   1292 */	sub	x5, x3, 64
	.loc 39 1290 0
..LDL242:
/*   1290 */	sub	x0, x0, 64
	.loc 39 1292 0
..LDL243:
/*   1292 */	ld1d	{z21.d}, p0/z, [x5, z11.d, lsl #3]	//  (*)
/*   1292 */	sub	x5, x3, 128
	.loc 39 1293 0
..LDL244:
/*   1293 */	cmp	w4, 0
	.loc 39 1292 0
..LDL245:
/*   1292 */	ld1d	{z29.d}, p0/z, [x9, z28.d, lsl #3]	//  (*)
/*   1292 */	ld1d	{z20.d}, p0/z, [x5, z11.d, lsl #3]	//  (*)
/*   1292 */	sub	x5, x2, 64
/*   1292 */	ld1d	{z28.d}, p0/z, [x9, z27.d, lsl #3]	//  (*)
/*   1292 */	ld1d	{z18.d}, p0/z, [x5, z11.d, lsl #3]	//  (*)
/*   1292 */	sub	x5, x2, 128
/*   1292 */	ld1d	{z27.d}, p0/z, [x9, z26.d, lsl #3]	//  (*)
/*   1292 */	ld1d	{z16.d}, p0/z, [x5, z11.d, lsl #3]	//  (*)
/*   1292 */	sub	x5, x2, 192
/*   1292 */	ld1d	{z26.d}, p0/z, [x9, z25.d, lsl #3]	//  (*)
/*   1292 */	ld1d	{z17.d}, p0/z, [x5, z11.d, lsl #3]	//  (*)
/*   1292 */	sub	x5, x2, 256
/*   1292 */	ld1d	{z31.d}, p0/z, [x9, z24.d, lsl #3]	//  (*)
/*   1292 */	ld1d	{z0.d}, p0/z, [x3, z11.d, lsl #3]	//  (*)
	.loc 39 1293 0
..LDL246:
/*   1293 */	sub	x3, x3, 512
	.loc 39 1292 0
..LDL247:
/*   1292 */	ld1d	{z19.d}, p0/z, [x2, z11.d, lsl #3]	//  (*)
	.loc 39 1293 0
..LDL248:
/*   1293 */	sub	x2, x2, 512
	.loc 39 1292 0
..LDL249:
/*   1292 */	ld1d	{z25.d}, p0/z, [x9, z7.d, lsl #3]	//  (*)
/*   1292 */	ld1d	{z24.d}, p0/z, [x9, z8.d, lsl #3]	//  (*)
/*   1292 */	ld1d	{z7.d}, p0/z, [x5, z11.d, lsl #3]	//  (*)
/*   1292 */	fmad	z21.d, p0/m, z30.d, z22.d
/*   1292 */	fmad	z20.d, p0/m, z29.d, z6.d
/*   1292 */	fmad	z18.d, p0/m, z27.d, z4.d
/*   1292 */	fmad	z16.d, p0/m, z26.d, z3.d
/*   1292 */	fmad	z0.d, p0/m, z31.d, z23.d
/*   1292 */	fmad	z19.d, p0/m, z28.d, z5.d
/*   1292 */	fmad	z17.d, p0/m, z25.d, z2.d
/*   1292 */	fmad	z7.d, p0/m, z24.d, z1.d
	.loc 39 1293 0
..LDL250:
/*   1293 */	blt	.L1680
.L1683:
	.p2align 5
.L1686:					// :entr:term:mod:swpl
	.loc 39 1291 0 is_stmt 1
..LDL251:
/*   1291 */	sub	x7, x1, 64
/*   1291 */	sub	x28, x1, 32
/*   1291 */	ld1sw	{z1.d}, p0/z, [x1, z11.d, lsl #2]	//  (*)
/*   1291 */	sub	x6, x1, 128
	.loc 39 1292 0
..LDL252:
/*   1292 */	sub	x5, x3, 128
	.loc 39 1291 0
..LDL253:
/*   1291 */	ld1sw	{z3.d}, p0/z, [x28, z11.d, lsl #2]	//  (*)
/*   1291 */	sub	x8, x1, 96
	.loc 39 1292 0
..LDL254:
/*   1292 */	sub	x28, x3, 64
	.loc 39 1291 0
..LDL255:
/*   1291 */	ld1sw	{z22.d}, p0/z, [x6, z11.d, lsl #2]	//  (*)
	.loc 39 1290 0 is_stmt 0
..LDL256:
/*   1290 */	sub	x0, x0, 64
	.loc 39 1292 0 is_stmt 1
..LDL257:
/*   1292 */	ld1d	{z6.d}, p0/z, [x28, z11.d, lsl #3]	//  (*)
	.loc 39 1293 0 is_stmt 0
..LDL258:
/*   1293 */	subs	w4, w4, 8
	.loc 39 1292 0
..LDL259:
/*   1292 */	ld1d	{z2.d}, p0/z, [x9, z1.d, lsl #3]	//  (*)
/*   1292 */	ld1d	{z1.d}, p0/z, [x3, z11.d, lsl #3]	//  (*)
	.loc 39 1293 0
..LDL260:
/*   1293 */	sub	x3, x3, 512
	.loc 39 1292 0
..LDL261:
/*   1292 */	ld1d	{z5.d}, p0/z, [x9, z3.d, lsl #3]	//  (*)
/*   1292 */	ld1d	{z3.d}, p0/z, [x5, z11.d, lsl #3]	//  (*)
/*   1292 */	sub	x5, x2, 64
/*   1292 */	ld1d	{z22.d}, p0/z, [x9, z22.d, lsl #3]	//  (*)
/*   1292 */	fmla	z0.d, p0/m, z1.d, z2.d
	.loc 39 1291 0 is_stmt 1
..LDL262:
/*   1291 */	ld1sw	{z1.d}, p0/z, [x7, z11.d, lsl #2]	//  (*)
	.loc 39 1292 0
..LDL263:
/*   1292 */	fmla	z21.d, p0/m, z6.d, z5.d
	.loc 39 1291 0
..LDL264:
/*   1291 */	ld1sw	{z2.d}, p0/z, [x8, z11.d, lsl #2]	//  (*)
	.loc 39 1292 0
..LDL265:
/*   1292 */	ld1d	{z1.d}, p0/z, [x9, z1.d, lsl #3]	//  (*)
/*   1292 */	ld1d	{z4.d}, p0/z, [x9, z2.d, lsl #3]	//  (*)
/*   1292 */	ld1d	{z2.d}, p0/z, [x2, z11.d, lsl #3]	//  (*)
/*   1292 */	fmla	z20.d, p0/m, z3.d, z1.d
/*   1292 */	ld1d	{z1.d}, p0/z, [x5, z11.d, lsl #3]	//  (*)
	.loc 39 1291 0
..LDL266:
/*   1291 */	sub	x5, x1, 160
	.loc 39 1292 0
..LDL267:
/*   1292 */	fmla	z19.d, p0/m, z2.d, z4.d
/*   1292 */	fmla	z18.d, p0/m, z1.d, z22.d
	.loc 39 1291 0
..LDL268:
/*   1291 */	ld1sw	{z1.d}, p0/z, [x5, z11.d, lsl #2]	//  (*)
	.loc 39 1292 0
..LDL269:
/*   1292 */	sub	x5, x2, 128
/*   1292 */	ld1d	{z2.d}, p0/z, [x9, z1.d, lsl #3]	//  (*)
/*   1292 */	ld1d	{z1.d}, p0/z, [x5, z11.d, lsl #3]	//  (*)
	.loc 39 1291 0
..LDL270:
/*   1291 */	sub	x5, x1, 192
	.loc 39 1292 0
..LDL271:
/*   1292 */	fmla	z16.d, p0/m, z1.d, z2.d
	.loc 39 1291 0
..LDL272:
/*   1291 */	ld1sw	{z1.d}, p0/z, [x5, z11.d, lsl #2]	//  (*)
	.loc 39 1292 0
..LDL273:
/*   1292 */	sub	x5, x2, 192
/*   1292 */	ld1d	{z2.d}, p0/z, [x5, z11.d, lsl #3]	//  (*)
	.loc 39 1291 0
..LDL274:
/*   1291 */	sub	x5, x1, 224
	.loc 39 1293 0 is_stmt 0
..LDL275:
/*   1293 */	sub	x1, x1, 256
	.loc 39 1292 0 is_stmt 1
..LDL276:
/*   1292 */	ld1d	{z3.d}, p0/z, [x9, z1.d, lsl #3]	//  (*)
	.loc 39 1291 0
..LDL277:
/*   1291 */	ld1sw	{z1.d}, p0/z, [x5, z11.d, lsl #2]	//  (*)
	.loc 39 1292 0
..LDL278:
/*   1292 */	sub	x5, x2, 256
	.loc 39 1293 0 is_stmt 0
..LDL279:
/*   1293 */	sub	x2, x2, 512
	.loc 39 1292 0
..LDL280:
/*   1292 */	fmla	z17.d, p0/m, z2.d, z3.d
/*   1292 */	ld1d	{z2.d}, p0/z, [x9, z1.d, lsl #3]	//  (*)
/*   1292 */	ld1d	{z1.d}, p0/z, [x5, z11.d, lsl #3]	//  (*)
/*   1292 */	fmla	z7.d, p0/m, z1.d, z2.d
	.loc 39 1293 0
..LDL281:
/*   1293 */	bpl	.L1686
.L1680:
	.loc 39 1292 0
..LDL282:
/*   1292 */	fadd	z4.d, z7.d, z17.d
/*   1292 */	fadd	z3.d, z16.d, z18.d
/*   1292 */	fadd	z2.d, z19.d, z20.d
/*   1292 */	fadd	z1.d, z0.d, z21.d
/*   1292 */	fadd	z0.d, z3.d, z4.d
/*   1292 */	fadd	z1.d, z1.d, z2.d
/*   1292 */	fadd	z0.d, z1.d, z0.d
.L1385:
	.loc 39 1290 0 is_stmt 1
..LDL283:
/*   1290 */	adds	w1, w4, 7
/*   1290 */	bmi	.L1376
	.loc 39 1292 0 is_stmt 0
..LDL284:
/*   1292 */	ldr	x4, [x20, 24]	//  "xv"
	.p2align 5
.L1397:					// :entr:term:mod
	.loc 39 1291 0 is_stmt 1
..LDL285:
/*   1291 */	index	z1.d, 0, -1
/*   1291 */	mov	x2, x0
	.loc 39 1290 0 is_stmt 0
..LDL286:
/*   1290 */	sub	x0, x0, 8
	.loc 39 1291 0
..LDL287:
/*   1291 */	add	x3, x11, x2, lsl #2
	.loc 39 1293 0
..LDL288:
/*   1293 */	subs	w1, w1, 1
	.loc 39 1292 0 is_stmt 1
..LDL289:
/*   1292 */	add	x2, x10, x2, lsl #3
	.loc 39 1291 0
..LDL290:
/*   1291 */	ld1sw	{z2.d}, p0/z, [x3, z1.d, lsl #2]	//  (*)
	.loc 39 1292 0
..LDL291:
/*   1292 */	ld1d	{z1.d}, p0/z, [x2, z1.d, lsl #3]	//  (*)
/*   1292 */	ld1d	{z2.d}, p0/z, [x4, z2.d, lsl #3]	//  (*)
/*   1292 */	fmla	z0.d, p0/m, z1.d, z2.d
	.loc 39 1290 0 is_stmt 0
..LDL292:
/*   1290 */	bpl	.L1397
.L1376:
	.loc 39 1290 0 is_stmt 1
..LDL293:
/*   1290 */	sbfiz	x0, x14, 3, 32
/*   1290 */	sub	x0, x24, x0
/*   1290 */	add	x0, x0, x13
/*   1290 */	cbz	w16, .L1378
/*   1290 */	whilelt	p1.d, wzr, w16
	.loc 39 1292 0
..LDL294:
/*   1292 */	ldr	x2, [x20, 24]	//  "xv"
	.loc 39 1291 0
..LDL295:
/*   1291 */	add	x1, x11, x0, lsl #2
	.loc 39 1292 0
..LDL296:
/*   1292 */	add	x0, x10, x0, lsl #3
	.loc 39 1291 0
..LDL297:
/*   1291 */	ld1sw	{z2.d}, p1/z, [x1, z11.d, lsl #2]	//  (*)
	.loc 39 1292 0
..LDL298:
/*   1292 */	ld1d	{z1.d}, p1/z, [x0, z11.d, lsl #3]	//  (*)
/*   1292 */	ld1d	{z2.d}, p1/z, [x2, z2.d, lsl #3]	//  (*)
/*   1292 */	fmla	z0.d, p1/m, z2.d, z1.d
.L1378:
/*   1292 */	movprfx	z1, z0
/*   1292 */	ext	z1.b, z1.b, z0.b, 32
/*   1292 */	fadd	z0.d, z1.d, z0.d
/*   1292 */	movprfx	z1, z0
/*   1292 */	ext	z1.b, z1.b, z0.b, 16
/*   1292 */	fadd	z1.d, z0.d, z1.d
/*   1292 */	movprfx	z0, z1
/*   1292 */	ext	z0.b, z0.b, z1.b, 8
/*   1292 */	fadd	z1.d, z1.d, z0.d
.L1379:					// :term
	.loc 39 1294 0
..LDL299:
/*   1294 */	ldr	d2, [x18, x12, lsl #3]	//  (*)
	.loc 39 1295 0
..LDL300:
/*   1295 */	frecpe	d5, d12
	.loc 39 1298 0
..LDL301:
/*   1298 */	sub	w17, w17, 1
/*   1298 */	sub	x15, x15, 1
	.loc 39 1295 0
..LDL302:
/*   1295 */	ldr	d6, [x21, x12, lsl #3]	//  (*)
	.loc 39 1298 0
..LDL303:
/*   1298 */	subs	w30, w30, 1
	.loc 39 1295 0
..LDL304:
/*   1295 */	fmsub	d0, d12, d5, d13
	.loc 39 1294 0
..LDL305:
/*   1294 */	fmsub	d3, d2, d12, d1
	.loc 39 1295 0
..LDL306:
/*   1295 */	fmadd	d2, d0, d0, d0
/*   1295 */	fmul	d4, d0, d0
/*   1295 */	fsub	d1, d6, d3
/*   1295 */	fmadd	d4, d4, d4, d0
/*   1295 */	fmul	d0, d1, d5
/*   1295 */	fmadd	d1, d2, d0, d0
/*   1295 */	fmadd	d1, d4, d1, d0
	.loc 39 1296 0
..LDL307:
/*   1296 */	fmadd	d0, d1, d12, d3
	.loc 39 1295 0
..LDL308:
/*   1295 */	str	d1, [x18, x12, lsl #3]	//  (*)
	.loc 39 1297 0
..LDL309:
/*   1297 */	str	d0, [x22, x12, lsl #3]	//  (*)
	.loc 39 1298 0 is_stmt 0
..LDL310:
/*   1298 */	bne	.L1371
	.loc 39 1298 0 is_stmt 1
..LDL311:
/*   1298 */	b	.L1369
.L1382:
/*   1298 */	add	x20, x19, 8
/*   1298 */	ldr	x0, [x20, 24]
/*   1298 */	bl	__mpc_obar
/*   1298 */	ldr	x0, [x20, 24]
/*   1298 */	bl	__mpc_obar
/*    ??? */	ldp	x19, x20, [x29, -16]	//  (*)
	.cfi_restore 19
	.cfi_restore 20
/*    ??? */	ldp	x21, x22, [x29, -32]	//  (*)
	.cfi_restore 21
	.cfi_restore 22
/*    ??? */	ldp	x23, x24, [x29, -48]	//  (*)
	.cfi_restore 23
	.cfi_restore 24
/*    ??? */	ldp	x25, x26, [x29, -64]	//  (*)
	.cfi_restore 25
	.cfi_restore 26
/*    ??? */	ldp	x27, x28, [x29, -80]	//  (*)
	.cfi_restore 27
	.cfi_restore 28
/*    ??? */	ldp	d8, d9, [x29, -96]	//  (*)
	.cfi_restore 72
	.cfi_restore 73
/*    ??? */	ldp	d10, d11, [x29, -112]	//  (*)
	.cfi_restore 74
	.cfi_restore 75
/*    ??? */	ldp	d12, d13, [x29, -128]	//  (*)
	.cfi_restore 76
	.cfi_restore 77
/*    ??? */	add	sp, x29, 0
/*    ??? */	ldp	x29, x30, [sp], 16	//  (*)
	.cfi_restore 29
	.cfi_restore 30
	.cfi_def_cfa_offset 0
/*   1298 */	ret	
..D3.pchi:
	.cfi_endproc
.LFE2:
	.size	_Z22ComputeFusedSYMGS_SPMVRK19SparseMatrix_STRUCTRK13Vector_STRUCTRS2_S5_._OMP_2, .-_Z22ComputeFusedSYMGS_SPMVRK19SparseMatrix_STRUCTRK13Vector_STRUCTRS2_S5_._OMP_2
	.ident	"$Compiler: Fujitsu C/C++ Compiler 4.7.0 (Nov 10 2021 09:37:15) ../src/ComputeSYMGS.cpp _Z16ComputeSYMGS_TDGRK19SparseMatrix_STRUCTRK13Vector_STRUCTRS2_R9TraceData $"
	.text
	.align	2
	.global	_Z16ComputeSYMGS_TDGRK19SparseMatrix_STRUCTRK13Vector_STRUCTRS2_R9TraceData
	.type	_Z16ComputeSYMGS_TDGRK19SparseMatrix_STRUCTRK13Vector_STRUCTRS2_R9TraceData, %function
_Z16ComputeSYMGS_TDGRK19SparseMatrix_STRUCTRK13Vector_STRUCTRS2_R9TraceData:
	.loc 39 1304 0
..LDL312:
.LFB3:
	.cfi_startproc
/*    ??? */	str	x30, [sp, -16]!	//  (*)
	.cfi_def_cfa_offset 16
	.cfi_offset 30, -16
/*   1372 */	mov	x3, x1
/*    ??? */	sub	sp, sp, 48
	.cfi_def_cfa_offset 64
/*   1304 */	add	x1, sp, 16
/*   1304 */	str	x0, [x1, 24]
	.loc 39 1306 0
..LDL313:
/*   1306 */	ldr	w4, [x2]	//  (*)
/*   1306 */	ldr	w5, [x0, 36]	//  (*)
/*   1306 */	cmp	w4, w5
/*   1306 */	beq	.L424
/*   1306 */	adrp	x0, .LR.3
/*   1306 */	adrp	x1, .LR.2
/*   1306 */	mov	w2, 1306
/*   1306 */	add	x0, x0, :lo12:.LR.3
/*   1306 */	add	x1, x1, :lo12:.LR.2
/*   1306 */	adrp	x3, .LR.5
/*   1306 */	add	x3, x3, :lo12:.LR.5
/*   1306 */	bl	__assert_fail
.L424:
	.loc 39 1312 0
..LDL314:
/*   1312 */	ldr	x3, [x3, 8]	//  (*)
/*   1312 */	str	x3, [x1, 16]
	.loc 39 1313 0
..LDL315:
/*   1313 */	ldr	x2, [x2, 8]	//  (*)
/*   1313 */	str	x2, [x1, 8]
	.loc 39 1314 0
..LDL316:
/*   1314 */	ldr	x0, [x0, 80]	//  (*)
/*   1314 */	str	x0, [x1]
	.loc 39 1316 0 is_stmt 0
..LDL317:
/*   1316 */	mov	x2, 0
/*   1316 */	adrp	x0, _Z16ComputeSYMGS_TDGRK19SparseMatrix_STRUCTRK13Vector_STRUCTRS2_R9TraceData._OMP_3
/*   1316 */	add	x0, x0, :lo12:_Z16ComputeSYMGS_TDGRK19SparseMatrix_STRUCTRK13Vector_STRUCTRS2_R9TraceData._OMP_3
/*   1316 */	bl	__mpc_opar
	.loc 39 1375 0 is_stmt 1
..LDL318:
/*   1375 */	mov	w0, 0
	.loc 39 1376 0
..LDL319:
/*    ??? */	add	sp, sp, 48
	.cfi_def_cfa_offset 16
/*    ??? */	ldr	x30, [sp], 16	//  (*)
	.cfi_restore 30
	.cfi_def_cfa_offset 0
/*   1376 */	ret	
..D4.pchi:
	.cfi_endproc
.LFE3:
	.size	_Z16ComputeSYMGS_TDGRK19SparseMatrix_STRUCTRK13Vector_STRUCTRS2_R9TraceData, .-_Z16ComputeSYMGS_TDGRK19SparseMatrix_STRUCTRK13Vector_STRUCTRS2_R9TraceData
	.ident	"$Compiler: Fujitsu C/C++ Compiler 4.7.0 (Nov 10 2021 09:37:15) ../src/ComputeSYMGS.cpp _Z16ComputeSYMGS_TDGRK19SparseMatrix_STRUCTRK13Vector_STRUCTRS2_R9TraceData._OMP_3 $"
	.text
	.align	2
	.type	_Z16ComputeSYMGS_TDGRK19SparseMatrix_STRUCTRK13Vector_STRUCTRS2_R9TraceData._OMP_3, %function
_Z16ComputeSYMGS_TDGRK19SparseMatrix_STRUCTRK13Vector_STRUCTRS2_R9TraceData._OMP_3:
	.loc 39 1316 0
..LDL320:
.LFB4:
	.cfi_startproc
/*   1302 */	sub	sp, sp, 112
	.cfi_def_cfa_offset 112
/*    ??? */	stp	x29, x30, [sp, 96]	//  (*)
	.cfi_offset 29, -16
	.cfi_offset 30, -8
/*    ??? */	stp	x19, x20, [sp, 80]	//  (*)
	.cfi_offset 19, -32
	.cfi_offset 20, -24
/*   1302 */	mov	x19, x0
/*    ??? */	stp	x21, x22, [sp, 64]	//  (*)
	.cfi_offset 21, -48
	.cfi_offset 22, -40
/*    ??? */	stp	x23, x24, [sp, 48]	//  (*)
	.cfi_offset 23, -64
	.cfi_offset 24, -56
/*    ??? */	stp	x25, x26, [sp, 32]	//  (*)
	.cfi_offset 25, -80
	.cfi_offset 26, -72
/*    ??? */	stp	d8, d9, [sp, 16]	//  (*)
	.cfi_offset 72, -96
	.cfi_offset 73, -88
/*    ??? */	str	d10, [sp, 8]	//  (*)
	.cfi_offset 74, -104
/*    ??? */	sub	sp, sp, 80
	.cfi_def_cfa_offset 192
/*   1302 */	str	x1, [sp, 32]
/*   1302 */	str	x2, [sp, 24]
/*   1302 */	str	x3, [sp, 16]
/*   1302 */	str	x4, [sp, 8]
	.loc 39 1323 0
..LDL321:
/*   1323 */	mov	w20, 0
	.loc 37 641 0
..LDL322:
/*    641 */	ldr	x1, [x19, 24]	//  "A"
/*    641 */	ldp	x1, x0, [x1, 280]	//  (*)
/*    641 */	sub	x0, x0, x1
/*    641 */	mov	x1, 24
/*    641 */	sdiv	x0, x0, x1
	.loc 39 1323 0
..LDL323:
/*   1323 */	cbz	x0, .L1425
/*   1323 */	add	x22, sp, 32
	.loc 37 641 0 is_stmt 0
..LDL324:
/*    641 */	mov	x21, 24
	.loc 39 1342 0
..LDL325:
/*   1342 */	fmov	d8, 1.000000e+00
.L1404:					// :entr
	.loc 39 1325 0 is_stmt 0
..LDL326:
	.loc 39 1325 0 is_stmt 0
..LDL327:
	.loc 39 1328 0 is_stmt 1
..LDL328:
/*   1328 */	sxtw	x2, w20
	.loc 37 1506 0
..LDL329:
/*   1506 */	ldr	x0, [x19, 24]	//  "A"
/*   1506 */	add	x1, x2, x2
/*   1506 */	add	x1, x1, x2
/*   1506 */	lsl	x2, x1, 3
	.loc 37 641 0
..LDL330:
/*    641 */	add	x1, x2, 8
	.loc 37 1506 0
..LDL331:
/*   1506 */	ldr	x3, [x0, 280]	//  (*)
	.loc 37 641 0
..LDL332:
/*    641 */	ldr	x0, [x3, x1]	//  (*)
/*    641 */	ldr	x1, [x3, x2]	//  (*)
/*    641 */	sub	x0, x0, x1
/*    641 */	asr	x1, x0, 1
/*    641 */	add	x0, x0, x1, lsr #62
/*    641 */	asr	x0, x0, 2
/*   1328 */	cbz	x0, .L1423
	.loc 39 1328 0
..LDL333:
/*   1328 */	ldr	x1, [x22]
/*   1328 */	sdiv	x3, x0, x1
/*   1328 */	msub	x0, x1, x3, x0
/*   1328 */	cbnz	x0, .L1407
/*   1328 */	ldr	x0, [x22, -8]
/*   1328 */	mul	x1, x0, x3
/*   1328 */	b	.L1410
.L1407:
/*   1328 */	ldr	x1, [x22, -8]
/*   1328 */	cmp	x1, x0
/*   1328 */	blt	.L1409
/*   1328 */	madd	x1, x1, x3, x0
/*   1328 */	b	.L1410
.L1409:
/*   1328 */	add	x3, x3, 1
/*   1328 */	mul	x1, x1, x3
.L1410:
/*   1328 */	sub	x0, x3, 1
/*   1328 */	add	x0, x0, x1
/*   1328 */	cbz	x3, .L1423
	.loc 39 1338 0 is_stmt 0
..LDL334:
/*   1338 */	ptrue	p0.d, ALL
	.loc 39 1334 0
..LDL335:
/*   1334 */	ldr	x6, [x19, 16]	//  "rv"
	.loc 39 1339 0
..LDL336:
/*   1339 */	fmov	z22.d, 0.000000e+00
	.loc 39 1341 0
..LDL337:
/*   1341 */	ldr	x7, [x19, 8]	//  "xv"
	.loc 39 1329 0
..LDL338:
/*   1329 */	sxtw	x5, w1
.L1412:					// :entr
	.loc 37 1506 0 is_stmt 1
..LDL339:
/*   1506 */	ldr	x3, [x19, 24]	//  "A"
	.loc 39 1333 0
..LDL340:
/*   1333 */	ldr	x4, [x19]	//  "matrixDiagonal"
	.loc 37 1506 0
..LDL341:
/*   1506 */	ldr	x9, [x3, 280]	//  (*)
	.loc 39 1332 0
..LDL342:
/*   1332 */	ldr	x1, [x3, 48]	//  (*)
	.loc 39 1330 0
..LDL343:
/*   1330 */	ldp	x3, x8, [x3, 64]	//  (*)
	.loc 37 1506 0
..LDL344:
/*   1506 */	ldr	x9, [x9, x2]	//  (*)
	.loc 39 1329 0
..LDL345:
/*   1329 */	ldrsw	x16, [x9, x5, lsl #2]	//  (*)
	.loc 39 1332 0
..LDL346:
/*   1332 */	ldrb	w1, [x1, x16]	//  (*)
	.loc 39 1333 0
..LDL347:
/*   1333 */	ldr	x4, [x4, x16, lsl #3]	//  (*)
	.loc 39 1330 0
..LDL348:
/*   1330 */	ldr	x12, [x8, x16, lsl #3]	//  (*)
	.loc 39 1334 0
..LDL349:
/*   1334 */	ldr	d21, [x6, x16, lsl #3]	//  (*)
	.loc 39 1331 0
..LDL350:
/*   1331 */	ldr	x3, [x3, x16, lsl #3]	//  (*)
	.loc 39 1332 0
..LDL351:
/*   1332 */	uxtb	w8, w1
	.loc 39 1333 0
..LDL352:
/*   1333 */	ldr	d23, [x4]	//  (*)
	.loc 39 1337 0
..LDL353:
/*   1337 */	uxtb	w4, w1
/*   1337 */	cmp	w8, 0
/*   1337 */	csel	w1, w8, wzr, ge
/*   1337 */	cbz	w4, .L1420
/*   1337 */	asr	w4, w1, 2
/*   1337 */	mov	x11, 0
/*   1337 */	add	w4, w1, w4, lsr #29
/*   1337 */	asr	w4, w4, 3
/*   1337 */	sub	w13, w1, w4, lsl #3
/*   1337 */	cbz	w4, .L1417
	.loc 39 1339 0 is_stmt 0
..LDL354:
/*   1339 */	ldr	x10, [x19, 8]	//  "xv"
/*   1339 */	mov	w1, w4
/*   1339 */	mov	z0.d, z22.d
	.loc 39 1337 0
..LDL355:
/*   1337 */	cmp	w1, 17
/*   1337 */	blt	.L1694
	.loc 39 1338 0
..LDL356:
/*   1338 */	mov	x14, x11
/*   1338 */	ld1sw	{z28.d}, p0/z, [x3, x14, lsl #2]	//  (*)
/*   1338 */	add	x15, x14, 8
/*   1338 */	add	x11, x14, 24
/*   1338 */	add	x9, x14, 16
/*   1338 */	ld1sw	{z27.d}, p0/z, [x3, x15, lsl #2]	//  (*)
/*   1338 */	add	x18, x14, 32
/*   1338 */	ld1sw	{z7.d}, p0/z, [x3, x11, lsl #2]	//  (*)
/*   1338 */	ld1sw	{z26.d}, p0/z, [x3, x9, lsl #2]	//  (*)
/*   1338 */	add	x17, x14, 40
/*   1338 */	add	x8, x14, 48
/*   1338 */	ld1sw	{z6.d}, p0/z, [x3, x18, lsl #2]	//  (*)
/*   1338 */	ld1sw	{z5.d}, p0/z, [x3, x17, lsl #2]	//  (*)
	.loc 39 1339 0
..LDL357:
/*   1339 */	ld1d	{z4.d}, p0/z, [x12, x14, lsl #3]	//  (*)
	.loc 39 1338 0
..LDL358:
/*   1338 */	add	x14, x14, 56
	.loc 39 1339 0
..LDL359:
/*   1339 */	ld1d	{z2.d}, p0/z, [x12, x15, lsl #3]	//  (*)
	.loc 39 1338 0
..LDL360:
/*   1338 */	add	x15, x14, 8
	.loc 39 1339 0
..LDL361:
/*   1339 */	ld1d	{z25.d}, p0/z, [x12, x9, lsl #3]	//  (*)
	.loc 39 1338 0
..LDL362:
/*   1338 */	add	x9, x14, 16
/*   1338 */	ld1sw	{z29.d}, p0/z, [x3, x8, lsl #2]	//  (*)
	.loc 39 1339 0
..LDL363:
/*   1339 */	ld1d	{z3.d}, p0/z, [x10, z28.d, lsl #3]	//  (*)
	.loc 39 1338 0
..LDL364:
/*   1338 */	ld1sw	{z28.d}, p0/z, [x3, x14, lsl #2]	//  (*)
	.loc 39 1339 0
..LDL365:
/*   1339 */	ld1d	{z19.d}, p0/z, [x10, z7.d, lsl #3]	//  (*)
/*   1339 */	ld1d	{z1.d}, p0/z, [x10, z27.d, lsl #3]	//  (*)
	.loc 39 1338 0
..LDL366:
/*   1338 */	ld1sw	{z27.d}, p0/z, [x3, x15, lsl #2]	//  (*)
	.loc 39 1339 0
..LDL367:
/*   1339 */	ld1d	{z24.d}, p0/z, [x10, z26.d, lsl #3]	//  (*)
	.loc 39 1338 0
..LDL368:
/*   1338 */	ld1sw	{z26.d}, p0/z, [x3, x9, lsl #2]	//  (*)
	.loc 39 1339 0
..LDL369:
/*   1339 */	ld1d	{z17.d}, p0/z, [x10, z6.d, lsl #3]	//  (*)
/*   1339 */	ld1d	{z7.d}, p0/z, [x10, z5.d, lsl #3]	//  (*)
	.p2align 5
.L1415:					// :entr:term:swpl
/*   1339 */	ld1d	{z18.d}, p0/z, [x12, x11, lsl #3]	//  (*)
	.loc 39 1338 0
..LDL370:
/*   1338 */	add	x11, x9, 8
	.loc 39 1339 0
..LDL371:
/*   1339 */	ld1d	{z20.d}, p0/z, [x10, z29.d, lsl #3]	//  (*)
	.loc 39 1338 0
..LDL372:
/*   1338 */	ld1sw	{z30.d}, p0/z, [x3, x11, lsl #2]	//  (*)
	.loc 39 1339 0
..LDL373:
/*   1339 */	fmls	z0.d, p0/m, z4.d, z3.d
/*   1339 */	ld1d	{z16.d}, p0/z, [x12, x18, lsl #3]	//  (*)
	.loc 39 1338 0
..LDL374:
/*   1338 */	add	x18, x9, 16
	.loc 39 1339 0
..LDL375:
/*   1339 */	ld1d	{z3.d}, p0/z, [x10, z28.d, lsl #3]	//  (*)
	.loc 39 1338 0
..LDL376:
/*   1338 */	ld1sw	{z31.d}, p0/z, [x3, x18, lsl #2]	//  (*)
	.loc 39 1339 0
..LDL377:
/*   1339 */	fmls	z0.d, p0/m, z2.d, z1.d
/*   1339 */	ld1d	{z6.d}, p0/z, [x12, x17, lsl #3]	//  (*)
	.loc 39 1338 0
..LDL378:
/*   1338 */	add	x17, x9, 24
	.loc 39 1339 0
..LDL379:
/*   1339 */	ld1d	{z1.d}, p0/z, [x10, z27.d, lsl #3]	//  (*)
	.loc 39 1338 0
..LDL380:
/*   1338 */	ld1sw	{z9.d}, p0/z, [x3, x17, lsl #2]	//  (*)
	.loc 39 1339 0
..LDL381:
/*   1339 */	fmls	z0.d, p0/m, z25.d, z24.d
/*   1339 */	ld1d	{z5.d}, p0/z, [x12, x8, lsl #3]	//  (*)
	.loc 39 1338 0
..LDL382:
/*   1338 */	add	x8, x9, 32
	.loc 39 1339 0
..LDL383:
/*   1339 */	ld1d	{z24.d}, p0/z, [x10, z26.d, lsl #3]	//  (*)
	.loc 39 1338 0
..LDL384:
/*   1338 */	ld1sw	{z29.d}, p0/z, [x3, x8, lsl #2]	//  (*)
	.loc 39 1339 0
..LDL385:
/*   1339 */	fmls	z0.d, p0/m, z18.d, z19.d
/*   1339 */	ld1d	{z4.d}, p0/z, [x12, x14, lsl #3]	//  (*)
	.loc 39 1338 0
..LDL386:
/*   1338 */	add	x14, x9, 40
	.loc 39 1339 0
..LDL387:
/*   1339 */	ld1d	{z19.d}, p0/z, [x10, z30.d, lsl #3]	//  (*)
	.loc 39 1338 0
..LDL388:
/*   1338 */	ld1sw	{z28.d}, p0/z, [x3, x14, lsl #2]	//  (*)
	.loc 39 1339 0
..LDL389:
/*   1339 */	fmls	z0.d, p0/m, z16.d, z17.d
/*   1339 */	ld1d	{z2.d}, p0/z, [x12, x15, lsl #3]	//  (*)
	.loc 39 1338 0
..LDL390:
/*   1338 */	add	x15, x9, 48
	.loc 39 1339 0
..LDL391:
/*   1339 */	ld1d	{z17.d}, p0/z, [x10, z31.d, lsl #3]	//  (*)
	.loc 39 1338 0
..LDL392:
/*   1338 */	ld1sw	{z27.d}, p0/z, [x3, x15, lsl #2]	//  (*)
	.loc 39 1339 0
..LDL393:
/*   1339 */	fmls	z0.d, p0/m, z6.d, z7.d
/*   1339 */	ld1d	{z25.d}, p0/z, [x12, x9, lsl #3]	//  (*)
	.loc 39 1338 0
..LDL394:
/*   1338 */	add	x9, x9, 56
	.loc 39 1339 0
..LDL395:
/*   1339 */	ld1d	{z7.d}, p0/z, [x10, z9.d, lsl #3]	//  (*)
	.loc 39 1338 0
..LDL396:
/*   1338 */	ld1sw	{z26.d}, p0/z, [x3, x9, lsl #2]	//  (*)
	.loc 39 1339 0
..LDL397:
/*   1339 */	fmls	z0.d, p0/m, z5.d, z20.d
	.loc 39 1338 0
..LDL398:
/*   1338 */	sub	w1, w1, 7
/*   1338 */	cmp	w1, 17
/*   1338 */	bge	.L1415
	.loc 39 1339 0
..LDL399:
/*   1339 */	ld1d	{z20.d}, p0/z, [x12, x11, lsl #3]	//  (*)
	.loc 39 1338 0
..LDL400:
/*   1338 */	add	x11, x9, 8
	.loc 39 1339 0
..LDL401:
/*   1339 */	fmls	z0.d, p0/m, z4.d, z3.d
	.loc 39 1338 0
..LDL402:
/*   1338 */	sub	w1, w1, 7
	.loc 39 1339 0
..LDL403:
/*   1339 */	ld1d	{z18.d}, p0/z, [x12, x18, lsl #3]	//  (*)
/*   1339 */	ld1d	{z16.d}, p0/z, [x12, x17, lsl #3]	//  (*)
	.loc 39 1338 0
..LDL404:
/*   1338 */	sub	w1, w1, 3
	.loc 39 1339 0
..LDL405:
/*   1339 */	ld1d	{z5.d}, p0/z, [x10, z29.d, lsl #3]	//  (*)
/*   1339 */	ld1d	{z6.d}, p0/z, [x12, x8, lsl #3]	//  (*)
/*   1339 */	ld1d	{z3.d}, p0/z, [x10, z28.d, lsl #3]	//  (*)
/*   1339 */	ld1d	{z4.d}, p0/z, [x12, x14, lsl #3]	//  (*)
/*   1339 */	fmls	z0.d, p0/m, z2.d, z1.d
/*   1339 */	ld1d	{z2.d}, p0/z, [x12, x15, lsl #3]	//  (*)
/*   1339 */	ld1d	{z1.d}, p0/z, [x10, z27.d, lsl #3]	//  (*)
/*   1339 */	fmls	z0.d, p0/m, z25.d, z24.d
/*   1339 */	ld1d	{z25.d}, p0/z, [x12, x9, lsl #3]	//  (*)
/*   1339 */	ld1d	{z24.d}, p0/z, [x10, z26.d, lsl #3]	//  (*)
/*   1339 */	fmls	z0.d, p0/m, z20.d, z19.d
/*   1339 */	fmls	z0.d, p0/m, z18.d, z17.d
/*   1339 */	fmls	z0.d, p0/m, z16.d, z7.d
/*   1339 */	fmls	z0.d, p0/m, z6.d, z5.d
/*   1339 */	fmls	z0.d, p0/m, z4.d, z3.d
/*   1339 */	fmls	z0.d, p0/m, z2.d, z1.d
/*   1339 */	fmls	z0.d, p0/m, z25.d, z24.d
	.loc 39 1338 0
..LDL406:
/*   1338 */	cbz	w1, .L1691
.L1694:
	.p2align 5
.L1697:					// :entr:term:mod:swpl
	.loc 39 1338 0 is_stmt 1
..LDL407:
/*   1338 */	ld1sw	{z1.d}, p0/z, [x3, x11, lsl #2]	//  (*)
/*   1338 */	subs	w1, w1, 1
	.loc 39 1339 0
..LDL408:
/*   1339 */	ld1d	{z2.d}, p0/z, [x10, z1.d, lsl #3]	//  (*)
/*   1339 */	ld1d	{z1.d}, p0/z, [x12, x11, lsl #3]	//  (*)
	.loc 39 1338 0 is_stmt 0
..LDL409:
/*   1338 */	add	x11, x11, 8
	.loc 39 1339 0
..LDL410:
/*   1339 */	fmls	z0.d, p0/m, z1.d, z2.d
	.loc 39 1338 0
..LDL411:
/*   1338 */	bne	.L1697
.L1691:
	.loc 39 1339 0
..LDL412:
/*   1339 */	movprfx	z1, z0
/*   1339 */	ext	z1.b, z1.b, z0.b, 32
/*   1339 */	fadd	z1.d, z1.d, z0.d
/*   1339 */	movprfx	z0, z1
/*   1339 */	ext	z0.b, z0.b, z1.b, 16
/*   1339 */	fadd	z1.d, z1.d, z0.d
/*   1339 */	movprfx	z0, z1
/*   1339 */	ext	z0.b, z0.b, z1.b, 8
/*   1339 */	fadd	z0.d, z1.d, z0.d
/*   1339 */	fadd	d21, d21, d0
.L1417:
	.loc 39 1337 0 is_stmt 1
..LDL413:
/*   1337 */	sbfiz	x1, x4, 3, 32
/*   1337 */	cbz	w13, .L1420
	.loc 39 1338 0 is_stmt 0
..LDL414:
/*   1338 */	whilelt	p1.d, wzr, w13
	.loc 39 1338 0 is_stmt 1
..LDL415:
/*   1338 */	ld1sw	{z0.d}, p1/z, [x3, x1, lsl #2]	//  (*)
	.loc 39 1339 0
..LDL416:
/*   1339 */	ldr	x3, [x19, 8]	//  "xv"
/*   1339 */	ld1d	{z1.d}, p1/z, [x12, x1, lsl #3]	//  (*)
/*   1339 */	ld1d	{z0.d}, p1/z, [x3, z0.d, lsl #3]	//  (*)
/*   1339 */	fmsb	z1.d, p1/m, z0.d, z22.d
/*   1339 */	sel	z1.d, p1, z1.d, z22.d
/*   1339 */	movprfx	z0, z1
/*   1339 */	ext	z0.b, z0.b, z1.b, 32
/*   1339 */	fadd	z1.d, z1.d, z0.d
/*   1339 */	movprfx	z0, z1
/*   1339 */	ext	z0.b, z0.b, z1.b, 16
/*   1339 */	fadd	z1.d, z1.d, z0.d
/*   1339 */	movprfx	z0, z1
/*   1339 */	ext	z0.b, z0.b, z1.b, 8
/*   1339 */	fadd	z0.d, z1.d, z0.d
/*   1339 */	fadd	d21, d21, d0
.L1420:					// :term
	.loc 39 1342 0
..LDL417:
	.loc 39 1341 0 is_stmt 0
..LDL418:
/*   1341 */	ldr	d2, [x7, x16, lsl #3]	//  (*)
	.loc 39 1342 0
..LDL419:
/*   1342 */	frecpe	d0, d23
	.loc 39 1343 0 is_stmt 1
..LDL420:
/*   1343 */	add	x5, x5, 1
/*   1343 */	cmp	x5, x0
	.loc 39 1342 0
..LDL421:
/*   1342 */	fmsub	d1, d23, d0, d8
/*   1342 */	fmadd	d4, d2, d23, d21
/*   1342 */	fmadd	d3, d1, d1, d1
/*   1342 */	fmul	d2, d1, d1
/*   1342 */	fmul	d0, d4, d0
/*   1342 */	fmadd	d1, d2, d2, d1
/*   1342 */	fmadd	d2, d3, d0, d0
/*   1342 */	fmadd	d0, d1, d2, d0
/*   1342 */	str	d0, [x7, x16, lsl #3]	//  (*)
	.loc 39 1343 0 is_stmt 0
..LDL422:
/*   1343 */	bls	.L1412
.L1423:					// :term
/*   1343 */	ldr	x0, [x22, -16]
/*   1343 */	bl	__mpc_obar
	.loc 39 1344 0 is_stmt 1
..LDL423:
/*   1344 */	add	w20, w20, 1
	.loc 37 641 0
..LDL424:
/*    641 */	ldr	x2, [x19, 24]	//  "A"
	.loc 39 1344 0
..LDL425:
/*   1344 */	sxtw	x1, w20
	.loc 37 641 0
..LDL426:
/*    641 */	ldp	x2, x0, [x2, 280]	//  (*)
/*    641 */	sub	x0, x0, x2
/*    641 */	sdiv	x0, x0, x21
	.loc 39 1344 0
..LDL427:
/*   1344 */	cmp	x1, x0
/*   1344 */	bcc	.L1404
.L1425:
	.loc 37 641 0
..LDL428:
/*    641 */	ldr	x1, [x19, 24]	//  "A"
/*    641 */	ldp	x1, x0, [x1, 280]	//  (*)
/*    641 */	sub	x0, x0, x1
/*    641 */	mov	x1, 24
/*    641 */	sdiv	x0, x0, x1
	.loc 39 1349 0
..LDL429:
/*   1349 */	sub	x20, x0, 1
/*   1349 */	cmp	w20, 0
/*   1349 */	blt	.L1450
/*   1349 */	add	x22, sp, 32
	.loc 39 1354 0 is_stmt 0
..LDL430:
/*   1354 */	mov	x21, 0
	.loc 39 1368 0
..LDL431:
/*   1368 */	fmov	d8, 1.000000e+00
.L1428:					// :entr
	.loc 39 1351 0 is_stmt 0
..LDL432:
	.loc 39 1351 0 is_stmt 0
..LDL433:
	.loc 39 1354 0 is_stmt 1
..LDL434:
/*   1354 */	sxtw	x2, w20
	.loc 37 1506 0
..LDL435:
/*   1506 */	ldr	x1, [x19, 24]	//  "A"
/*   1506 */	add	x0, x2, x2
/*   1506 */	add	x0, x0, x2
/*   1506 */	lsl	x7, x0, 3
	.loc 37 641 0
..LDL436:
/*    641 */	add	x0, x7, 8
	.loc 37 1506 0
..LDL437:
/*   1506 */	ldr	x1, [x1, 280]	//  (*)
	.loc 37 641 0
..LDL438:
/*    641 */	ldr	x0, [x1, x0]	//  (*)
/*    641 */	ldr	x1, [x1, x7]	//  (*)
/*    641 */	sub	x0, x0, x1
/*    641 */	asr	x1, x0, 1
/*    641 */	add	x0, x0, x1, lsr #62
/*    641 */	asr	x0, x0, 2
	.loc 39 1354 0
..LDL439:
/*   1354 */	sub	x0, x0, 1
/*   1354 */	cmp	w0, 0
/*   1354 */	blt	.L1448
/*   1354 */	sxtw	x0, w0
/*   1354 */	ldr	x3, [x22]
/*   1354 */	add	x1, x0, 1
/*   1354 */	sdiv	x2, x1, x3
/*   1354 */	msub	x1, x3, x2, x1
/*   1354 */	cbnz	x1, .L1431
/*   1354 */	ldr	x1, [x22, -8]
/*   1354 */	sub	x1, x21, x1
/*   1354 */	madd	x1, x1, x2, x0
/*   1354 */	b	.L1434
.L1431:
/*   1354 */	ldr	x3, [x22, -8]
/*   1354 */	cmp	x3, x1
/*   1354 */	blt	.L1433
/*   1354 */	madd	x1, x3, x2, x1
/*   1354 */	sub	x1, x0, x1
/*   1354 */	b	.L1434
.L1433:
/*   1354 */	add	x2, x2, 1
/*   1354 */	sub	x1, x21, x3
/*   1354 */	madd	x1, x1, x2, x0
.L1434:
/*   1354 */	sub	x0, x21, x2
/*   1354 */	add	x0, x0, 1
/*   1354 */	add	x0, x0, x1
/*   1354 */	cbz	x2, .L1448
	.loc 39 1363 0 is_stmt 0
..LDL440:
/*   1363 */	ptrue	p0.d, ALL
	.loc 39 1354 0
..LDL441:
/*   1354 */	sub	w2, w1, w0
/*   1354 */	cmp	w1, w0
/*   1354 */	add	w0, w2, 1
/*   1354 */	csinc	w12, w0, wzr, ge
	.loc 39 1363 0 is_stmt 1
..LDL442:
	.loc 39 1360 0 is_stmt 0
..LDL443:
/*   1360 */	ldr	x9, [x19, 16]	//  "rv"
	.loc 39 1364 0
..LDL444:
/*   1364 */	index	z22.d, 0, -1
	.loc 39 1367 0
..LDL445:
/*   1367 */	ldr	x10, [x19, 8]	//  "xv"
	.loc 39 1365 0
..LDL446:
/*   1365 */	fmov	z23.d, 0.000000e+00
.L1437:					// :entr
	.loc 39 1355 0 is_stmt 1
..LDL447:
/*   1355 */	sxtw	x5, w1
	.loc 37 1506 0
..LDL448:
/*   1506 */	ldr	x0, [x19, 24]	//  "A"
	.loc 39 1359 0
..LDL449:
/*   1359 */	ldr	x4, [x19]	//  "matrixDiagonal"
	.loc 37 1506 0
..LDL450:
/*   1506 */	ldr	x6, [x0, 280]	//  (*)
	.loc 39 1358 0
..LDL451:
/*   1358 */	ldr	x3, [x0, 48]	//  (*)
	.loc 39 1356 0
..LDL452:
/*   1356 */	ldp	x0, x2, [x0, 64]	//  (*)
	.loc 37 1506 0
..LDL453:
/*   1506 */	ldr	x6, [x6, x7]	//  (*)
	.loc 39 1355 0
..LDL454:
/*   1355 */	ldrsw	x11, [x6, x5, lsl #2]	//  (*)
	.loc 39 1358 0
..LDL455:
/*   1358 */	ldrb	w3, [x3, x11]	//  (*)
	.loc 39 1359 0
..LDL456:
/*   1359 */	ldr	x4, [x4, x11, lsl #3]	//  (*)
	.loc 39 1356 0
..LDL457:
/*   1356 */	ldr	x8, [x2, x11, lsl #3]	//  (*)
	.loc 39 1360 0
..LDL458:
/*   1360 */	ldr	d21, [x9, x11, lsl #3]	//  (*)
	.loc 39 1357 0
..LDL459:
/*   1357 */	ldr	x13, [x0, x11, lsl #3]	//  (*)
	.loc 39 1359 0
..LDL460:
/*   1359 */	ldr	d24, [x4]	//  (*)
	.loc 39 1363 0
..LDL461:
/*   1363 */	sub	w2, w3, 1
/*   1363 */	cmp	w3, 0
/*   1363 */	csel	w0, w3, wzr, ge
/*   1363 */	cmp	w2, 0
/*   1363 */	blt	.L1445
	.loc 39 1364 0 is_stmt 0
..LDL462:
/*   1364 */	sxtw	x16, w2
	.loc 39 1363 0
..LDL463:
/*   1363 */	asr	w2, w0, 2
/*   1363 */	add	w2, w0, w2, lsr #29
/*   1363 */	asr	w18, w2, 3
/*   1363 */	sub	w14, w0, w18, lsl #3
/*   1363 */	cbz	w18, .L1442
	.loc 39 1365 0
..LDL464:
/*   1365 */	ldr	x15, [x19, 8]	//  "xv"
/*   1365 */	mov	w17, w18
/*   1365 */	mov	x3, x16
/*   1365 */	mov	z0.d, z23.d
	.loc 39 1363 0
..LDL465:
/*   1363 */	cmp	w17, 18
/*   1363 */	blt	.L1705
/*   1363 */	sub	x4, x3, 16
	.loc 39 1364 0
..LDL466:
/*   1364 */	mov	x6, x3
/*   1364 */	add	x0, x13, x6, lsl #2
	.loc 39 1363 0
..LDL467:
/*   1363 */	sub	x30, x3, 24
	.loc 39 1364 0
..LDL468:
/*   1364 */	mov	x29, x30
	.loc 39 1363 0
..LDL469:
/*   1363 */	sub	x5, x3, 8
	.loc 39 1364 0
..LDL470:
/*   1364 */	ld1sw	{z29.d}, p0/z, [x0, z22.d, lsl #2]	//  (*)
/*   1364 */	add	x30, x13, x4, lsl #2
	.loc 39 1363 0
..LDL471:
/*   1363 */	mov	x23, x3
/*   1363 */	sub	x3, x3, 32
	.loc 39 1364 0
..LDL472:
/*   1364 */	ld1sw	{z27.d}, p0/z, [x30, z22.d, lsl #2]	//  (*)
/*   1364 */	add	x0, x13, x5, lsl #2
	.loc 39 1363 0
..LDL473:
/*   1363 */	sub	x2, x23, 40
	.loc 39 1364 0
..LDL474:
/*   1364 */	ld1sw	{z28.d}, p0/z, [x0, z22.d, lsl #2]	//  (*)
	.loc 39 1363 0
..LDL475:
/*   1363 */	sub	x0, x23, 48
	.loc 39 1364 0
..LDL476:
/*   1364 */	add	x25, x13, x3, lsl #2
	.loc 39 1363 0
..LDL477:
/*   1363 */	sub	x23, x23, 56
	.loc 39 1364 0
..LDL478:
/*   1364 */	add	x30, x13, x29, lsl #2
	.loc 39 1363 0
..LDL479:
/*   1363 */	sub	x24, x23, 8
	.loc 39 1364 0
..LDL480:
/*   1364 */	ld1sw	{z7.d}, p0/z, [x25, z22.d, lsl #2]	//  (*)
	.loc 39 1363 0
..LDL481:
/*   1363 */	sub	x26, x23, 16
	.loc 39 1364 0
..LDL482:
/*   1364 */	ld1sw	{z16.d}, p0/z, [x30, z22.d, lsl #2]	//  (*)
	.loc 39 1363 0
..LDL483:
/*   1363 */	sub	x30, x23, 24
	.loc 39 1365 0
..LDL484:
/*   1365 */	add	x25, x8, x6, lsl #3
	.loc 39 1364 0
..LDL485:
/*   1364 */	mov	x6, x23
	.loc 39 1365 0
..LDL486:
/*   1365 */	ld1d	{z6.d}, p0/z, [x25, z22.d, lsl #3]	//  (*)
/*   1365 */	add	x23, x8, x5, lsl #3
	.loc 39 1364 0
..LDL487:
/*   1364 */	mov	x5, x24
	.loc 39 1365 0
..LDL488:
/*   1365 */	ld1d	{z4.d}, p0/z, [x23, z22.d, lsl #3]	//  (*)
/*   1365 */	add	x23, x8, x4, lsl #3
	.loc 39 1364 0
..LDL489:
/*   1364 */	mov	x4, x26
	.loc 39 1365 0
..LDL490:
/*   1365 */	ld1d	{z2.d}, p0/z, [x23, z22.d, lsl #3]	//  (*)
	.loc 39 1364 0
..LDL491:
/*   1364 */	add	x23, x13, x0, lsl #2
/*   1364 */	ld1sw	{z30.d}, p0/z, [x23, z22.d, lsl #2]	//  (*)
/*   1364 */	add	x23, x13, x6, lsl #2
/*   1364 */	add	x24, x13, x2, lsl #2
	.loc 39 1365 0
..LDL492:
/*   1365 */	ld1d	{z5.d}, p0/z, [x15, z29.d, lsl #3]	//  (*)
	.loc 39 1364 0
..LDL493:
/*   1364 */	ld1sw	{z29.d}, p0/z, [x23, z22.d, lsl #2]	//  (*)
/*   1364 */	ld1sw	{z31.d}, p0/z, [x24, z22.d, lsl #2]	//  (*)
/*   1364 */	add	x23, x13, x5, lsl #2
	.loc 39 1365 0
..LDL494:
/*   1365 */	ld1d	{z1.d}, p0/z, [x15, z27.d, lsl #3]	//  (*)
	.loc 39 1364 0
..LDL495:
/*   1364 */	add	x24, x13, x4, lsl #2
	.loc 39 1365 0
..LDL496:
/*   1365 */	ld1d	{z3.d}, p0/z, [x15, z28.d, lsl #3]	//  (*)
	.loc 39 1364 0
..LDL497:
/*   1364 */	ld1sw	{z28.d}, p0/z, [x23, z22.d, lsl #2]	//  (*)
	.loc 39 1365 0
..LDL498:
/*   1365 */	add	x23, x8, x29, lsl #3
	.loc 39 1364 0
..LDL499:
/*   1364 */	mov	x29, x30
/*   1364 */	ld1sw	{z27.d}, p0/z, [x24, z22.d, lsl #2]	//  (*)
	.loc 39 1365 0
..LDL500:
/*   1365 */	ld1d	{z25.d}, p0/z, [x23, z22.d, lsl #3]	//  (*)
/*   1365 */	add	x3, x8, x3, lsl #3
/*   1365 */	ld1d	{z26.d}, p0/z, [x15, z16.d, lsl #3]	//  (*)
/*   1365 */	ld1d	{z19.d}, p0/z, [x15, z7.d, lsl #3]	//  (*)
	.p2align 5
.L1440:					// :entr:term:swpl
	.loc 39 1364 0
..LDL501:
/*   1364 */	add	x23, x13, x29, lsl #2
	.loc 39 1365 0
..LDL502:
/*   1365 */	ld1d	{z20.d}, p0/z, [x3, z22.d, lsl #3]	//  (*)
	.loc 39 1363 0
..LDL503:
/*   1363 */	sub	x3, x30, 8
	.loc 39 1364 0
..LDL504:
/*   1364 */	ld1sw	{z10.d}, p0/z, [x23, z22.d, lsl #2]	//  (*)
	.loc 39 1365 0
..LDL505:
/*   1365 */	add	x2, x8, x2, lsl #3
/*   1365 */	ld1d	{z17.d}, p0/z, [x15, z31.d, lsl #3]	//  (*)
/*   1365 */	fmls	z0.d, p0/m, z6.d, z5.d
	.loc 39 1364 0
..LDL506:
/*   1364 */	add	x23, x13, x3, lsl #2
	.loc 39 1365 0
..LDL507:
/*   1365 */	ld1d	{z18.d}, p0/z, [x2, z22.d, lsl #3]	//  (*)
	.loc 39 1363 0
..LDL508:
/*   1363 */	sub	x2, x30, 16
	.loc 39 1364 0
..LDL509:
/*   1364 */	ld1sw	{z9.d}, p0/z, [x23, z22.d, lsl #2]	//  (*)
	.loc 39 1365 0
..LDL510:
/*   1365 */	add	x0, x8, x0, lsl #3
/*   1365 */	ld1d	{z7.d}, p0/z, [x15, z30.d, lsl #3]	//  (*)
/*   1365 */	fmls	z0.d, p0/m, z4.d, z3.d
	.loc 39 1364 0
..LDL511:
/*   1364 */	add	x23, x13, x2, lsl #2
	.loc 39 1365 0
..LDL512:
/*   1365 */	ld1d	{z16.d}, p0/z, [x0, z22.d, lsl #3]	//  (*)
	.loc 39 1363 0
..LDL513:
/*   1363 */	sub	x0, x30, 24
	.loc 39 1364 0
..LDL514:
/*   1364 */	ld1sw	{z31.d}, p0/z, [x23, z22.d, lsl #2]	//  (*)
	.loc 39 1365 0
..LDL515:
/*   1365 */	add	x6, x8, x6, lsl #3
/*   1365 */	ld1d	{z5.d}, p0/z, [x15, z29.d, lsl #3]	//  (*)
/*   1365 */	fmls	z0.d, p0/m, z2.d, z1.d
	.loc 39 1364 0
..LDL516:
/*   1364 */	add	x23, x13, x0, lsl #2
	.loc 39 1365 0
..LDL517:
/*   1365 */	ld1d	{z6.d}, p0/z, [x6, z22.d, lsl #3]	//  (*)
	.loc 39 1363 0
..LDL518:
/*   1363 */	sub	x6, x30, 32
	.loc 39 1364 0
..LDL519:
/*   1364 */	ld1sw	{z30.d}, p0/z, [x23, z22.d, lsl #2]	//  (*)
	.loc 39 1365 0
..LDL520:
/*   1365 */	add	x5, x8, x5, lsl #3
/*   1365 */	ld1d	{z3.d}, p0/z, [x15, z28.d, lsl #3]	//  (*)
/*   1365 */	fmls	z0.d, p0/m, z25.d, z26.d
	.loc 39 1364 0
..LDL521:
/*   1364 */	add	x23, x13, x6, lsl #2
	.loc 39 1365 0
..LDL522:
/*   1365 */	ld1d	{z4.d}, p0/z, [x5, z22.d, lsl #3]	//  (*)
	.loc 39 1363 0
..LDL523:
/*   1363 */	sub	x5, x30, 40
	.loc 39 1364 0
..LDL524:
/*   1364 */	ld1sw	{z29.d}, p0/z, [x23, z22.d, lsl #2]	//  (*)
	.loc 39 1365 0
..LDL525:
/*   1365 */	add	x4, x8, x4, lsl #3
/*   1365 */	ld1d	{z1.d}, p0/z, [x15, z27.d, lsl #3]	//  (*)
/*   1365 */	fmls	z0.d, p0/m, z20.d, z19.d
	.loc 39 1364 0
..LDL526:
/*   1364 */	add	x23, x13, x5, lsl #2
	.loc 39 1365 0
..LDL527:
/*   1365 */	ld1d	{z2.d}, p0/z, [x4, z22.d, lsl #3]	//  (*)
	.loc 39 1363 0
..LDL528:
/*   1363 */	sub	x4, x30, 48
	.loc 39 1364 0
..LDL529:
/*   1364 */	ld1sw	{z28.d}, p0/z, [x23, z22.d, lsl #2]	//  (*)
	.loc 39 1365 0
..LDL530:
/*   1365 */	add	x29, x8, x29, lsl #3
/*   1365 */	ld1d	{z26.d}, p0/z, [x15, z10.d, lsl #3]	//  (*)
/*   1365 */	fmls	z0.d, p0/m, z18.d, z17.d
	.loc 39 1364 0
..LDL531:
/*   1364 */	add	x23, x13, x4, lsl #2
	.loc 39 1365 0
..LDL532:
/*   1365 */	ld1d	{z25.d}, p0/z, [x29, z22.d, lsl #3]	//  (*)
	.loc 39 1363 0
..LDL533:
/*   1363 */	sub	x30, x30, 56
	.loc 39 1364 0
..LDL534:
/*   1364 */	mov	x29, x30
/*   1364 */	ld1sw	{z27.d}, p0/z, [x23, z22.d, lsl #2]	//  (*)
	.loc 39 1365 0
..LDL535:
/*   1365 */	add	x3, x8, x3, lsl #3
/*   1365 */	ld1d	{z19.d}, p0/z, [x15, z9.d, lsl #3]	//  (*)
/*   1365 */	fmls	z0.d, p0/m, z16.d, z7.d
	.loc 39 1363 0
..LDL536:
/*   1363 */	sub	w17, w17, 7
/*   1363 */	cmp	w17, 18
/*   1363 */	bge	.L1440
	.loc 39 1365 0
..LDL537:
/*   1365 */	fmls	z0.d, p0/m, z6.d, z5.d
	.loc 39 1363 0
..LDL538:
/*   1363 */	sub	w17, w17, 7
	.loc 39 1365 0
..LDL539:
/*   1365 */	add	x0, x8, x0, lsl #3
	.loc 39 1363 0
..LDL540:
/*   1363 */	sub	w17, w17, 4
	.loc 39 1365 0
..LDL541:
/*   1365 */	ld1d	{z5.d}, p0/z, [x15, z29.d, lsl #3]	//  (*)
/*   1365 */	add	x2, x8, x2, lsl #3
/*   1365 */	ld1d	{z16.d}, p0/z, [x0, z22.d, lsl #3]	//  (*)
/*   1365 */	ld1d	{z20.d}, p0/z, [x3, z22.d, lsl #3]	//  (*)
	.loc 39 1363 0
..LDL542:
/*   1363 */	sub	x3, x30, 8
	.loc 39 1365 0
..LDL543:
/*   1365 */	ld1d	{z18.d}, p0/z, [x2, z22.d, lsl #3]	//  (*)
	.loc 39 1364 0
..LDL544:
/*   1364 */	add	x0, x13, x29, lsl #2
	.loc 39 1365 0
..LDL545:
/*   1365 */	ld1d	{z17.d}, p0/z, [x15, z31.d, lsl #3]	//  (*)
/*   1365 */	add	x2, x8, x6, lsl #3
	.loc 39 1364 0
..LDL546:
/*   1364 */	ld1sw	{z29.d}, p0/z, [x0, z22.d, lsl #2]	//  (*)
	.loc 39 1365 0
..LDL547:
/*   1365 */	ld1d	{z7.d}, p0/z, [x15, z30.d, lsl #3]	//  (*)
/*   1365 */	ld1d	{z6.d}, p0/z, [x2, z22.d, lsl #3]	//  (*)
/*   1365 */	add	x0, x8, x5, lsl #3
/*   1365 */	fmls	z0.d, p0/m, z4.d, z3.d
/*   1365 */	add	x2, x8, x4, lsl #3
/*   1365 */	ld1d	{z4.d}, p0/z, [x0, z22.d, lsl #3]	//  (*)
/*   1365 */	ld1d	{z3.d}, p0/z, [x15, z28.d, lsl #3]	//  (*)
/*   1365 */	add	x0, x8, x29, lsl #3
/*   1365 */	fmls	z0.d, p0/m, z2.d, z1.d
/*   1365 */	ld1d	{z1.d}, p0/z, [x15, z27.d, lsl #3]	//  (*)
/*   1365 */	ld1d	{z2.d}, p0/z, [x2, z22.d, lsl #3]	//  (*)
/*   1365 */	fmls	z0.d, p0/m, z25.d, z26.d
/*   1365 */	ld1d	{z26.d}, p0/z, [x15, z29.d, lsl #3]	//  (*)
/*   1365 */	ld1d	{z25.d}, p0/z, [x0, z22.d, lsl #3]	//  (*)
/*   1365 */	fmls	z0.d, p0/m, z20.d, z19.d
/*   1365 */	fmls	z0.d, p0/m, z18.d, z17.d
/*   1365 */	fmls	z0.d, p0/m, z16.d, z7.d
/*   1365 */	fmls	z0.d, p0/m, z6.d, z5.d
/*   1365 */	fmls	z0.d, p0/m, z4.d, z3.d
/*   1365 */	fmls	z0.d, p0/m, z2.d, z1.d
/*   1365 */	fmls	z0.d, p0/m, z25.d, z26.d
	.loc 39 1363 0
..LDL548:
/*   1363 */	cbz	w17, .L1702
.L1705:
	.p2align 5
.L1708:					// :entr:term:mod:swpl
	.loc 39 1364 0 is_stmt 1
..LDL549:
/*   1364 */	mov	x2, x3
	.loc 39 1363 0 is_stmt 0
..LDL550:
/*   1363 */	sub	x3, x3, 8
	.loc 39 1364 0
..LDL551:
/*   1364 */	add	x0, x13, x2, lsl #2
	.loc 39 1363 0
..LDL552:
/*   1363 */	subs	w17, w17, 1
	.loc 39 1364 0
..LDL553:
/*   1364 */	ld1sw	{z1.d}, p0/z, [x0, z22.d, lsl #2]	//  (*)
	.loc 39 1365 0 is_stmt 1
..LDL554:
/*   1365 */	add	x0, x8, x2, lsl #3
/*   1365 */	ld1d	{z2.d}, p0/z, [x0, z22.d, lsl #3]	//  (*)
/*   1365 */	ld1d	{z1.d}, p0/z, [x15, z1.d, lsl #3]	//  (*)
/*   1365 */	fmls	z0.d, p0/m, z2.d, z1.d
	.loc 39 1363 0 is_stmt 0
..LDL555:
/*   1363 */	bne	.L1708
.L1702:
	.loc 39 1365 0
..LDL556:
/*   1365 */	movprfx	z1, z0
/*   1365 */	ext	z1.b, z1.b, z0.b, 32
/*   1365 */	fadd	z1.d, z1.d, z0.d
/*   1365 */	movprfx	z0, z1
/*   1365 */	ext	z0.b, z0.b, z1.b, 16
/*   1365 */	fadd	z1.d, z1.d, z0.d
/*   1365 */	movprfx	z0, z1
/*   1365 */	ext	z0.b, z0.b, z1.b, 8
/*   1365 */	fadd	z0.d, z1.d, z0.d
/*   1365 */	fadd	d21, d21, d0
.L1442:
	.loc 39 1363 0 is_stmt 1
..LDL557:
/*   1363 */	sbfiz	x0, x18, 3, 32
/*   1363 */	sub	x0, x21, x0
/*   1363 */	add	x0, x0, x16
/*   1363 */	cbz	w14, .L1445
/*   1363 */	whilelt	p1.d, wzr, w14
	.loc 39 1365 0
..LDL558:
/*   1365 */	ldr	x2, [x19, 8]	//  "xv"
	.loc 39 1364 0
..LDL559:
/*   1364 */	add	x3, x13, x0, lsl #2
	.loc 39 1365 0
..LDL560:
/*   1365 */	add	x0, x8, x0, lsl #3
	.loc 39 1364 0
..LDL561:
/*   1364 */	ld1sw	{z0.d}, p1/z, [x3, z22.d, lsl #2]	//  (*)
	.loc 39 1365 0
..LDL562:
/*   1365 */	ld1d	{z1.d}, p1/z, [x0, z22.d, lsl #3]	//  (*)
/*   1365 */	ld1d	{z0.d}, p1/z, [x2, z0.d, lsl #3]	//  (*)
/*   1365 */	fmsb	z1.d, p1/m, z0.d, z23.d
/*   1365 */	sel	z0.d, p1, z1.d, z23.d
/*   1365 */	movprfx	z1, z0
/*   1365 */	ext	z1.b, z1.b, z0.b, 32
/*   1365 */	fadd	z1.d, z0.d, z1.d
/*   1365 */	movprfx	z0, z1
/*   1365 */	ext	z0.b, z0.b, z1.b, 16
/*   1365 */	fadd	z0.d, z1.d, z0.d
/*   1365 */	movprfx	z1, z0
/*   1365 */	ext	z1.b, z1.b, z0.b, 8
/*   1365 */	fadd	z0.d, z0.d, z1.d
/*   1365 */	fadd	d21, d21, d0
.L1445:					// :term
	.loc 39 1368 0
..LDL563:
	.loc 39 1367 0 is_stmt 0
..LDL564:
/*   1367 */	ldr	d2, [x10, x11, lsl #3]	//  (*)
	.loc 39 1368 0
..LDL565:
/*   1368 */	frecpe	d1, d24
	.loc 39 1369 0 is_stmt 1
..LDL566:
/*   1369 */	sub	w1, w1, 1
/*   1369 */	subs	w12, w12, 1
	.loc 39 1368 0
..LDL567:
/*   1368 */	fmsub	d0, d24, d1, d8
/*   1368 */	fmadd	d4, d2, d24, d21
/*   1368 */	fmadd	d3, d0, d0, d0
/*   1368 */	fmul	d2, d0, d0
/*   1368 */	fmul	d1, d4, d1
/*   1368 */	fmadd	d0, d2, d2, d0
/*   1368 */	fmadd	d2, d3, d1, d1
/*   1368 */	fmadd	d0, d0, d2, d1
/*   1368 */	str	d0, [x10, x11, lsl #3]	//  (*)
	.loc 39 1369 0 is_stmt 0
..LDL568:
/*   1369 */	bne	.L1437
	.loc 39 1369 0 is_stmt 1
..LDL569:
.L1448:					// :term
/*   1369 */	ldr	x0, [x22, -16]
/*   1369 */	bl	__mpc_obar
	.loc 39 1370 0
..LDL570:
/*   1370 */	subs	w20, w20, 1
/*   1370 */	bpl	.L1428
.L1450:
/*   1372 */	add	x0, sp, 16
/*   1372 */	ldr	x0, [x0]
/*   1372 */	bl	__mpc_obar
	.loc 39 1372 0
..LDL571:
/*    ??? */	add	sp, sp, 80
	.cfi_def_cfa_offset 112
/*    ??? */	ldp	x19, x20, [sp, 80]	//  (*)
	.cfi_restore 19
	.cfi_restore 20
/*    ??? */	ldr	d10, [sp, 8]	//  (*)
	.cfi_restore 74
/*    ??? */	ldp	x21, x22, [sp, 64]	//  (*)
	.cfi_restore 21
	.cfi_restore 22
/*    ??? */	ldp	x23, x24, [sp, 48]	//  (*)
	.cfi_restore 23
	.cfi_restore 24
/*    ??? */	ldp	x25, x26, [sp, 32]	//  (*)
	.cfi_restore 25
	.cfi_restore 26
/*    ??? */	ldp	d8, d9, [sp, 16]	//  (*)
	.cfi_restore 72
	.cfi_restore 73
/*    ??? */	ldp	x29, x30, [sp, 96]	//  (*)
	.cfi_restore 29
	.cfi_restore 30
/*   1372 */	add	sp, sp, 112
	.cfi_def_cfa_offset 0
/*   1372 */	ret	
..D5.pchi:
	.cfi_endproc
.LFE4:
	.size	_Z16ComputeSYMGS_TDGRK19SparseMatrix_STRUCTRK13Vector_STRUCTRS2_R9TraceData._OMP_3, .-_Z16ComputeSYMGS_TDGRK19SparseMatrix_STRUCTRK13Vector_STRUCTRS2_R9TraceData._OMP_3
	.ident	"$Compiler: Fujitsu C/C++ Compiler 4.7.0 (Nov 10 2021 09:37:15) ../src/ComputeSYMGS.cpp _Z18ComputeSYMGS_BLOCKRK19SparseMatrix_STRUCTRK13Vector_STRUCTRS2_R9TraceData $"
	.text
	.align	2
	.global	_Z18ComputeSYMGS_BLOCKRK19SparseMatrix_STRUCTRK13Vector_STRUCTRS2_R9TraceData
	.type	_Z18ComputeSYMGS_BLOCKRK19SparseMatrix_STRUCTRK13Vector_STRUCTRS2_R9TraceData, %function
_Z18ComputeSYMGS_BLOCKRK19SparseMatrix_STRUCTRK13Vector_STRUCTRS2_R9TraceData:
	.loc 39 1378 0
..LDL572:
.LFB5:
	.cfi_startproc
/*   1532 */	sub	sp, sp, 64
	.cfi_def_cfa_offset 64
/*    ??? */	str	x30, [sp, 48]	//  (*)
	.cfi_offset 30, -16
/*    ??? */	stp	x19, x20, [sp, 32]	//  (*)
	.cfi_offset 19, -32
	.cfi_offset 20, -24
/*    ??? */	stp	x21, x22, [sp, 16]	//  (*)
	.cfi_offset 21, -48
	.cfi_offset 22, -40
/*    ??? */	str	x23, [sp, 8]	//  (*)
	.cfi_offset 23, -56
/*    ??? */	sub	sp, sp, 64
	.cfi_def_cfa_offset 128
/*   1378 */	add	x19, sp, 8
/*   1378 */	str	x0, [x19, 32]
	.loc 39 1380 0
..LDL573:
/*   1380 */	ldr	w4, [x2]	//  (*)
/*   1380 */	ldr	w3, [x0, 36]	//  (*)
/*   1380 */	cmp	w4, w3
/*   1380 */	blt	.L1469
	.loc 39 1387 0
..LDL574:
/*   1387 */	ldr	x3, [x0, 80]	//  (*)
/*   1387 */	str	x3, [x19, 24]
	.loc 39 1388 0
..LDL575:
/*   1388 */	ldr	x1, [x1, 8]	//  (*)
/*   1388 */	str	x1, [x19, 16]
	.loc 39 1389 0
..LDL576:
/*   1389 */	ldr	x1, [x2, 8]	//  (*)
/*   1389 */	str	x1, [x19, 8]
	.loc 39 1391 0
..LDL577:
/*   1391 */	str	wzr, [x19, 4]
	.loc 37 1506 0
..LDL578:
/*   1506 */	ldr	x0, [x0, 304]	//  (*)
	.loc 39 1392 0
..LDL579:
/*   1392 */	ldr	w0, [x0]	//  (*)
/*   1392 */	str	w0, [x19]
	.loc 39 1396 0
..LDL580:
/*   1396 */	ldr	x0, [x19, 32]
/*   1396 */	ldr	w0, [x0, 344]	//  (*)
/*   1396 */	cmp	w0, 0
/*   1396 */	ble	.L1461
/*   1396 */	mov	w22, 0
	.loc 39 1398 0 is_stmt 0
..LDL581:
/*   1398 */	mov	x23, 0
	.loc 39 1402 0
..LDL582:
/*   1402 */	adrp	x0, _Z18ComputeSYMGS_BLOCKRK19SparseMatrix_STRUCTRK13Vector_STRUCTRS2_R9TraceData._OMP_4
/*   1402 */	add	x21, x0, :lo12:_Z18ComputeSYMGS_BLOCKRK19SparseMatrix_STRUCTRK13Vector_STRUCTRS2_R9TraceData._OMP_4
	.loc 37 1506 0
..LDL583:
/*   1506 */	add	x20, x19, 32
	.p2align 5
.L1457:					// :entr
	.loc 39 1397 0 is_stmt 1
..LDL584:
/*   1397 */	cmp	w22, 0
/*   1397 */	ble	.L1459
	.loc 39 1398 0
..LDL585:
/*   1398 */	ldr	w2, [x20, -28]
	.loc 37 1506 0 is_stmt 0
..LDL586:
/*   1506 */	ldr	x0, [x20]
/*   1506 */	ldr	x1, [x0, 304]	//  (*)
	.loc 39 1398 0
..LDL587:
/*   1398 */	sub	x0, x23, 1
/*   1398 */	ldr	w0, [x1, x0, lsl #2]	//  (*)
/*   1398 */	add	w0, w2, w0
/*   1398 */	str	w0, [x20, -28]
	.loc 39 1399 0 is_stmt 1
..LDL588:
/*   1399 */	ldr	w1, [x1, x23, lsl #2]	//  (*)
/*   1399 */	add	w0, w0, w1
/*   1399 */	str	w0, [x20, -32]
.L1459:					// :term
	.loc 39 1402 0 is_stmt 0
..LDL589:
/*   1402 */	mov	x2, 0
/*   1402 */	mov	x0, x21
/*   1402 */	mov	x1, x19
/*   1402 */	bl	__mpc_opar
	.loc 39 1458 0 is_stmt 1
..LDL590:
/*   1458 */	add	w22, w22, 1
/*   1458 */	add	x23, x23, 1
/*   1458 */	ldr	x0, [x19, 32]
/*   1458 */	ldr	w0, [x0, 344]	//  (*)
/*   1458 */	cmp	w22, w0
/*   1458 */	blt	.L1457
.L1461:
	.loc 39 1460 0
..LDL591:
/*   1460 */	ldr	x1, [x19, 32]
/*   1460 */	ldr	w0, [x1, 348]	//  (*)
/*   1460 */	sub	w0, w0, 1
/*   1460 */	str	w0, [x19, 4]
	.loc 39 1461 0
..LDL592:
/*   1461 */	ldr	w2, [x1, 344]	//  (*)
	.loc 37 1506 0
..LDL593:
/*   1506 */	ldr	x1, [x1, 304]	//  (*)
	.loc 39 1461 0
..LDL594:
/*   1461 */	sub	w23, w2, 1
/*   1461 */	sxtw	x20, w23
/*   1461 */	ldr	w1, [x1, x20, lsl #2]	//  (*)
/*   1461 */	sub	w0, w0, w1
/*   1461 */	str	w0, [x19]
	.loc 39 1465 0
..LDL595:
/*   1465 */	cmp	w23, 0
/*   1465 */	blt	.L1468
	.loc 39 1471 0 is_stmt 0
..LDL596:
/*   1471 */	adrp	x0, _Z18ComputeSYMGS_BLOCKRK19SparseMatrix_STRUCTRK13Vector_STRUCTRS2_R9TraceData._OMP_5
	.loc 39 1466 0
..LDL597:
/*   1466 */	add	x22, x19, 32
	.loc 39 1471 0
..LDL598:
/*   1471 */	add	x21, x0, :lo12:_Z18ComputeSYMGS_BLOCKRK19SparseMatrix_STRUCTRK13Vector_STRUCTRS2_R9TraceData._OMP_5
	.p2align 5
.L1464:					// :entr
	.loc 39 1466 0 is_stmt 1
..LDL599:
/*   1466 */	ldr	x1, [x22]
/*   1466 */	ldr	w0, [x1, 344]	//  (*)
/*   1466 */	sub	w0, w0, 1
/*   1466 */	cmp	w23, w0
/*   1466 */	bge	.L1466
	.loc 39 1467 0
..LDL600:
/*   1467 */	ldr	w0, [x22, -28]
	.loc 37 1506 0 is_stmt 0
..LDL601:
/*   1506 */	ldr	x1, [x1, 304]	//  (*)
	.loc 39 1467 0
..LDL602:
/*   1467 */	add	x2, x20, 1
/*   1467 */	ldr	w2, [x1, x2, lsl #2]	//  (*)
/*   1467 */	sub	w0, w0, w2
/*   1467 */	str	w0, [x22, -28]
	.loc 39 1468 0 is_stmt 1
..LDL603:
/*   1468 */	ldr	w1, [x1, x20, lsl #2]	//  (*)
/*   1468 */	sub	w0, w0, w1
/*   1468 */	str	w0, [x22, -32]
.L1466:					// :term
	.loc 39 1471 0 is_stmt 0
..LDL604:
/*   1471 */	mov	x2, 0
/*   1471 */	mov	x0, x21
/*   1471 */	mov	x1, x19
/*   1471 */	bl	__mpc_opar
	.loc 39 1533 0 is_stmt 1
..LDL605:
/*   1533 */	subs	w23, w23, 1
/*   1533 */	sub	x20, x20, 1
/*   1533 */	bpl	.L1464
.L1468:
	.loc 39 1535 0
..LDL606:
/*   1535 */	mov	w0, 0
/*   1535 */	b	.L1470
.L1469:
	.loc 39 1380 0
..LDL607:
/*   1380 */	adrp	x0, .LR.1
/*   1380 */	adrp	x1, .LR.2
/*   1380 */	mov	w2, 1380
/*   1380 */	add	x0, x0, :lo12:.LR.1
/*   1380 */	add	x1, x1, :lo12:.LR.2
/*   1380 */	adrp	x3, .LR.4
/*   1380 */	add	x3, x3, :lo12:.LR.4
/*   1380 */	bl	__assert_fail
.L1470:					// :epi:term
	.loc 39 1536 0
..LDL608:
/*    ??? */	add	sp, sp, 64
	.cfi_def_cfa_offset 64
/*    ??? */	ldp	x19, x20, [sp, 32]	//  (*)
	.cfi_restore 19
	.cfi_restore 20
/*    ??? */	ldp	x21, x22, [sp, 16]	//  (*)
	.cfi_restore 21
	.cfi_restore 22
/*    ??? */	ldr	x23, [sp, 8]	//  (*)
	.cfi_restore 23
/*    ??? */	ldr	x30, [sp, 48]	//  (*)
	.cfi_restore 30
/*   1536 */	add	sp, sp, 64
	.cfi_def_cfa_offset 0
/*   1536 */	ret	
..D6.pchi:
	.cfi_endproc
.LFE5:
	.size	_Z18ComputeSYMGS_BLOCKRK19SparseMatrix_STRUCTRK13Vector_STRUCTRS2_R9TraceData, .-_Z18ComputeSYMGS_BLOCKRK19SparseMatrix_STRUCTRK13Vector_STRUCTRS2_R9TraceData
	.ident	"$Compiler: Fujitsu C/C++ Compiler 4.7.0 (Nov 10 2021 09:37:15) ../src/ComputeSYMGS.cpp _Z18ComputeSYMGS_BLOCKRK19SparseMatrix_STRUCTRK13Vector_STRUCTRS2_R9TraceData._OMP_4 $"
	.text
	.align	2
	.type	_Z18ComputeSYMGS_BLOCKRK19SparseMatrix_STRUCTRK13Vector_STRUCTRS2_R9TraceData._OMP_4, %function
_Z18ComputeSYMGS_BLOCKRK19SparseMatrix_STRUCTRK13Vector_STRUCTRS2_R9TraceData._OMP_4:
	.loc 39 1402 0
..LDL609:
.LFB6:
	.cfi_startproc
/*    ??? */	stp	x29, x30, [sp, -16]!	//  (*)
/*   1376 */	add	x29, sp, 0
	.cfi_def_cfa 29, 16
	.cfi_offset 29, -16
	.cfi_offset 30, -8
/*   1376 */	sub	sp, sp, 144
/*    ??? */	stp	x25, x26, [x29, -64]	//  (*)
	.cfi_offset 25, -80
	.cfi_offset 26, -72
/*   1376 */	mov	x25, x0
/*    ??? */	stp	x19, x20, [x29, -16]	//  (*)
	.cfi_offset 19, -32
	.cfi_offset 20, -24
/*   1376 */	add	x19, sp, 0
/*    ??? */	stp	x21, x22, [x29, -32]	//  (*)
	.cfi_offset 21, -48
	.cfi_offset 22, -40
/*    ??? */	stp	x23, x24, [x29, -48]	//  (*)
	.cfi_offset 23, -64
	.cfi_offset 24, -56
/*    ??? */	str	d8, [x29, -72]	//  (*)
	.cfi_offset 72, -88
/*    ??? */	sub	sp, sp, 32
/*   1376 */	mov	x5, sp
/*   1376 */	and	sp, x5, -64
/*   1376 */	str	x1, [x19, 48]
/*   1376 */	str	x2, [x19, 40]
/*   1376 */	str	x3, [x19, 32]
/*   1376 */	str	x4, [x19, 24]
	.loc 39 1402 0 is_stmt 0
..LDL610:
	.loc 39 1402 0 is_stmt 0
..LDL611:
	.loc 39 1404 0 is_stmt 1
..LDL612:
/*   1404 */	ldr	w1, [x25, 4]	//  "firstBlock"
/*   1404 */	ldr	x0, [x25, 32]	//  "A"
/*   1404 */	ldr	w2, [x25]	//  "lastBlock"
/*   1404 */	ldr	w21, [x0, 336]	//  (*)
/*   1404 */	cmp	w1, w2
/*   1404 */	bge	.L1504
/*   1404 */	add	x3, x19, 8
/*   1404 */	mov	x0, 1
	.loc 39 1428 0 is_stmt 0
..LDL613:
/*   1428 */	fmov	d8, 1.000000e+00
	.loc 39 1404 0
..LDL614:
/*   1404 */	str	x0, [x3]
/*   1404 */	sxtw	x23, w2
/*   1404 */	add	x22, x19, 0
/*   1404 */	sxtw	x24, w21
/*   1404 */	add	x20, x22, 16
.L1474:
/*   1404 */	sxtw	x0, w1
/*   1404 */	add	x2, x22, 8
/*   1404 */	ldr	x1, [x22, 32]
/*   1404 */	mov	x7, 0
/*   1404 */	mov	x4, x22
/*   1404 */	mov	x3, x7
/*   1404 */	mov	x5, x20
/*   1404 */	mov	x6, x7
/*   1404 */	str	x1, [sp, 8]	//  (*)
/*   1404 */	mov	x1, x23
/*   1404 */	str	x2, [sp]	//  (*)
/*   1404 */	mov	x2, x24
/*   1404 */	bl	__mpc_ortd_th
/*   1404 */	ldr	x0, [x22, 8]
/*   1404 */	cmp	x0, 0
/*   1404 */	ble	.L1504
/*   1404 */	ldr	x1, [x22]
/*   1404 */	ldr	x0, [x22, 16]
.L1476:					// :entr
	.loc 39 1405 0 is_stmt 1
..LDL615:
/*   1405 */	ldr	x3, [x25, 32]	//  "A"
/*   1405 */	ldr	w2, [x3, 332]	//  (*)
	.loc 39 1406 0
..LDL616:
/*   1406 */	ldr	w3, [x3, 336]	//  (*)
	.loc 39 1405 0
..LDL617:
/*   1405 */	mul	w4, w2, w1
	.loc 39 1406 0
..LDL618:
/*   1406 */	sdiv	w5, w4, w3
	.loc 39 1407 0
..LDL619:
/*   1407 */	madd	w2, w2, w3, w4
/*   1407 */	sdiv	w2, w2, w3
	.loc 39 1409 0
..LDL620:
/*   1409 */	sub	w6, w2, w5
/*   1409 */	cmp	w5, w2
/*   1409 */	bge	.L1501
.L1479:					// :entr
	.loc 39 1410 0
..LDL621:
/*   1410 */	ldr	x2, [x25, 32]	//  "A"
/*   1410 */	ldr	w4, [x2, 336]	//  (*)
/*   1410 */	mul	w3, w4, w5
	.loc 39 1415 0
..LDL622:
/*   1415 */	cmp	w4, 4
	.loc 39 1416 0 is_stmt 0
..LDL623:
/*   1416 */	sxtw	x7, w3
	.loc 39 1415 0
..LDL624:
/*   1415 */	bne	.L1486
	.loc 39 1416 0 is_stmt 1
..LDL625:
/*   1416 */	ldr	x3, [x25, 16]	//  "rv"
	.loc 39 1417 0
..LDL626:
/*   1417 */	add	x8, x7, 1
	.loc 39 1418 0
..LDL627:
/*   1418 */	add	x9, x7, 2
	.loc 37 1506 0
..LDL628:
/*   1506 */	ldr	x4, [x2, 256]	//  (*)
	.loc 39 1419 0
..LDL629:
/*   1419 */	add	x10, x7, 3
	.loc 39 1421 0
..LDL630:
/*   1421 */	sxtw	x12, w5
/*   1421 */	mov	w11, 0
	.loc 39 1416 0
..LDL631:
/*   1416 */	ldr	d2, [x3, x7, lsl #3]	//  (*)
	.loc 39 1417 0
..LDL632:
/*   1417 */	ldr	d3, [x3, x8, lsl #3]	//  (*)
	.loc 37 1506 0
..LDL633:
/*   1506 */	add	x13, x4, x12, lsl #2
	.loc 39 1418 0
..LDL634:
/*   1418 */	ldr	d1, [x3, x9, lsl #3]	//  (*)
	.loc 39 1419 0
..LDL635:
/*   1419 */	ldr	d0, [x3, x10, lsl #3]	//  (*)
	.loc 39 1421 0
..LDL636:
/*   1421 */	ldr	w3, [x13]	//  (*)
/*   1421 */	cmp	w3, 0
/*   1421 */	ble	.L1485
/*   1422 */	ldp	x2, x30, [x2, 64]	//  (*)
	.loc 39 1422 0 is_stmt 0
..LDL637:
/*   1422 */	mov	x3, 0
	.loc 39 1426 0
..LDL638:
/*   1426 */	ldr	w4, [x4, x12, lsl #2]	//  (*)
	.loc 39 1422 0
..LDL639:
/*   1422 */	ldr	x14, [x25, 8]	//  "xv"
/*   1422 */	ldr	x13, [x30, x7, lsl #3]	//  (*)
/*   1422 */	ldr	x12, [x2, x7, lsl #3]	//  (*)
	.loc 39 1423 0
..LDL640:
/*   1423 */	ldr	x16, [x30, x8, lsl #3]	//  (*)
/*   1423 */	ldr	x15, [x2, x8, lsl #3]	//  (*)
	.loc 39 1424 0
..LDL641:
/*   1424 */	ldr	x18, [x30, x9, lsl #3]	//  (*)
/*   1424 */	ldr	x17, [x2, x9, lsl #3]	//  (*)
	.loc 39 1425 0
..LDL642:
/*   1425 */	ldr	x30, [x30, x10, lsl #3]	//  (*)
/*   1425 */	ldr	x2, [x2, x10, lsl #3]	//  (*)
	.p2align 5
.L1483:					// :entr:term
	.loc 39 1422 0 is_stmt 1
..LDL643:
/*   1422 */	ldrsw	x26, [x12, x3, lsl #2]	//  (*)
/*   1422 */	ldr	d5, [x13, x3, lsl #3]	//  (*)
	.loc 39 1426 0
..LDL644:
/*   1426 */	add	w11, w11, 1
	.loc 39 1423 0
..LDL645:
/*   1423 */	ldr	d6, [x16, x3, lsl #3]	//  (*)
	.loc 39 1426 0
..LDL646:
/*   1426 */	cmp	w11, w4
	.loc 39 1422 0
..LDL647:
/*   1422 */	ldr	d4, [x14, x26, lsl #3]	//  (*)
	.loc 39 1423 0
..LDL648:
/*   1423 */	ldrsw	x26, [x15, x3, lsl #2]	//  (*)
/*   1423 */	ldr	d7, [x14, x26, lsl #3]	//  (*)
	.loc 39 1424 0
..LDL649:
/*   1424 */	ldrsw	x26, [x17, x3, lsl #2]	//  (*)
	.loc 39 1422 0
..LDL650:
/*   1422 */	fmsub	d2, d5, d4, d2
	.loc 39 1424 0
..LDL651:
/*   1424 */	ldr	d4, [x18, x3, lsl #3]	//  (*)
/*   1424 */	ldr	d5, [x14, x26, lsl #3]	//  (*)
	.loc 39 1425 0
..LDL652:
/*   1425 */	ldrsw	x26, [x2, x3, lsl #2]	//  (*)
	.loc 39 1423 0
..LDL653:
/*   1423 */	fmsub	d3, d6, d7, d3
	.loc 39 1425 0
..LDL654:
/*   1425 */	ldr	d7, [x30, x3, lsl #3]	//  (*)
	.loc 39 1426 0
..LDL655:
/*   1426 */	add	x3, x3, 1
	.loc 39 1425 0
..LDL656:
/*   1425 */	ldr	d6, [x14, x26, lsl #3]	//  (*)
	.loc 39 1424 0
..LDL657:
/*   1424 */	fmsub	d1, d4, d5, d1
	.loc 39 1425 0
..LDL658:
/*   1425 */	fmsub	d0, d7, d6, d0
	.loc 39 1426 0
..LDL659:
/*   1426 */	blt	.L1483
.L1485:
	.loc 39 1428 0
..LDL660:
	.loc 39 1427 0 is_stmt 0
..LDL661:
/*   1427 */	ldr	x2, [x25, 8]	//  "xv"
/*   1427 */	ldr	x3, [x25, 24]	//  "matrixDiagonal"
/*   1427 */	ldr	x3, [x3, x7, lsl #3]	//  (*)
/*   1427 */	ldr	d4, [x2, x7, lsl #3]	//  (*)
/*   1427 */	ldr	d5, [x3]	//  (*)
	.loc 39 1428 0
..LDL662:
/*   1428 */	fmadd	d4, d4, d5, d2
/*   1428 */	frecpe	d6, d5
/*   1428 */	fmsub	d2, d5, d6, d8
/*   1428 */	fmul	d6, d4, d6
/*   1428 */	fmadd	d4, d2, d2, d2
/*   1428 */	fmul	d5, d2, d2
/*   1428 */	fmadd	d4, d4, d6, d6
/*   1428 */	fmadd	d2, d5, d5, d2
/*   1428 */	fmadd	d2, d2, d4, d6
/*   1428 */	str	d2, [x2, x7, lsl #3]	//  (*)
	.loc 39 1429 0 is_stmt 1
..LDL663:
/*   1429 */	ldr	x3, [x25, 24]	//  "matrixDiagonal"
	.loc 39 1430 0
..LDL664:
	.loc 39 1429 0 is_stmt 0
..LDL665:
/*   1429 */	ldr	d4, [x2, x8, lsl #3]	//  (*)
	.loc 39 1429 0 is_stmt 1
..LDL666:
/*   1429 */	ldr	x3, [x3, x8, lsl #3]	//  (*)
	.loc 39 1430 0
..LDL667:
	.loc 39 1429 0 is_stmt 0
..LDL668:
/*   1429 */	ldr	d2, [x3]	//  (*)
	.loc 39 1430 0
..LDL669:
/*   1430 */	fmadd	d4, d4, d2, d3
/*   1430 */	frecpe	d3, d2
/*   1430 */	fmsub	d2, d2, d3, d8
/*   1430 */	fmul	d4, d4, d3
/*   1430 */	fmadd	d5, d2, d2, d2
/*   1430 */	fmul	d3, d2, d2
/*   1430 */	fmadd	d5, d5, d4, d4
/*   1430 */	fmadd	d2, d3, d3, d2
/*   1430 */	fmadd	d2, d2, d5, d4
/*   1430 */	str	d2, [x2, x8, lsl #3]	//  (*)
	.loc 39 1431 0 is_stmt 1
..LDL670:
/*   1431 */	ldr	x3, [x25, 24]	//  "matrixDiagonal"
	.loc 39 1432 0
..LDL671:
	.loc 39 1431 0 is_stmt 0
..LDL672:
/*   1431 */	ldr	d2, [x2, x9, lsl #3]	//  (*)
	.loc 39 1431 0 is_stmt 1
..LDL673:
/*   1431 */	ldr	x3, [x3, x9, lsl #3]	//  (*)
	.loc 39 1432 0
..LDL674:
	.loc 39 1431 0 is_stmt 0
..LDL675:
/*   1431 */	ldr	d3, [x3]	//  (*)
	.loc 39 1432 0
..LDL676:
/*   1432 */	fmadd	d4, d2, d3, d1
/*   1432 */	frecpe	d2, d3
/*   1432 */	fmsub	d1, d3, d2, d8
/*   1432 */	fmul	d2, d4, d2
/*   1432 */	fmadd	d3, d1, d1, d1
/*   1432 */	fmul	d4, d1, d1
/*   1432 */	fmadd	d3, d3, d2, d2
/*   1432 */	fmadd	d1, d4, d4, d1
/*   1432 */	fmadd	d1, d1, d3, d2
/*   1432 */	str	d1, [x2, x9, lsl #3]	//  (*)
	.loc 39 1433 0 is_stmt 1
..LDL677:
/*   1433 */	ldr	x3, [x25, 24]	//  "matrixDiagonal"
	.loc 39 1434 0
..LDL678:
	.loc 39 1433 0 is_stmt 0
..LDL679:
/*   1433 */	ldr	d1, [x2, x10, lsl #3]	//  (*)
	.loc 39 1433 0 is_stmt 1
..LDL680:
/*   1433 */	ldr	x3, [x3, x10, lsl #3]	//  (*)
	.loc 39 1434 0
..LDL681:
	.loc 39 1433 0 is_stmt 0
..LDL682:
/*   1433 */	ldr	d3, [x3]	//  (*)
	.loc 39 1434 0
..LDL683:
/*   1434 */	fmadd	d1, d1, d3, d0
/*   1434 */	frecpe	d2, d3
/*   1434 */	fmsub	d0, d3, d2, d8
/*   1434 */	fmul	d2, d1, d2
/*   1434 */	fmadd	d3, d0, d0, d0
/*   1434 */	fmul	d1, d0, d0
/*   1434 */	fmadd	d3, d3, d2, d2
/*   1434 */	fmadd	d0, d1, d1, d0
/*   1434 */	fmadd	d0, d0, d3, d2
/*   1434 */	str	d0, [x2, x10, lsl #3]	//  (*)
	.loc 39 1435 0
..LDL684:
/*   1435 */	b	.L1499
.L1486:
	.loc 39 1435 0 is_stmt 1
..LDL685:
	.loc 39 1436 0 is_stmt 0
..LDL686:
/*   1436 */	ldr	x8, [x25, 16]	//  "rv"
	.loc 39 1439 0
..LDL687:
/*   1439 */	add	x10, x2, 256
/*   1439 */	sxtw	x3, w5
	.loc 39 1435 0
..LDL688:
/*   1435 */	cmp	w4, 2
	.loc 39 1436 0
..LDL689:
/*   1436 */	ldr	d1, [x8, x7, lsl #3]	//  (*)
	.loc 39 1435 0
..LDL690:
/*   1435 */	beq	.L1493
	.loc 39 1450 0 is_stmt 1
..LDL691:
/*   1450 */	mov	w4, 0
	.loc 37 1506 0
..LDL692:
/*   1506 */	ldr	x8, [x10]	//  (*)
/*   1506 */	add	x8, x8, x3, lsl #2
	.loc 39 1450 0
..LDL693:
/*   1450 */	ldr	w8, [x8]	//  (*)
/*   1450 */	cmp	w8, 0
/*   1450 */	ble	.L1492
/*   1451 */	ldp	x8, x11, [x2, 64]	//  (*)
	.loc 39 1451 0 is_stmt 0
..LDL694:
/*   1451 */	mov	x9, 0
	.loc 37 1506 0
..LDL695:
/*   1506 */	ldr	x2, [x2, 256]	//  (*)
	.loc 39 1451 0
..LDL696:
/*   1451 */	ldr	x10, [x25, 8]	//  "xv"
/*   1451 */	ldr	x11, [x11, x7, lsl #3]	//  (*)
/*   1451 */	ldr	x8, [x8, x7, lsl #3]	//  (*)
	.loc 39 1452 0
..LDL697:
/*   1452 */	ldr	w3, [x2, x3, lsl #2]	//  (*)
	.p2align 5
.L1490:					// :entr:term
	.loc 39 1451 0 is_stmt 1
..LDL698:
/*   1451 */	ldrsw	x2, [x8, x9, lsl #2]	//  (*)
/*   1451 */	ldr	d2, [x11, x9, lsl #3]	//  (*)
	.loc 39 1452 0
..LDL699:
/*   1452 */	add	w4, w4, 1
/*   1452 */	add	x9, x9, 1
/*   1452 */	cmp	w4, w3
	.loc 39 1451 0
..LDL700:
/*   1451 */	ldr	d0, [x10, x2, lsl #3]	//  (*)
/*   1451 */	fmsub	d1, d2, d0, d1
	.loc 39 1452 0
..LDL701:
/*   1452 */	blt	.L1490
.L1492:
	.loc 39 1454 0
..LDL702:
	.loc 39 1453 0 is_stmt 0
..LDL703:
/*   1453 */	ldr	x2, [x25, 8]	//  "xv"
/*   1453 */	ldr	x3, [x25, 24]	//  "matrixDiagonal"
/*   1453 */	ldr	x3, [x3, x7, lsl #3]	//  (*)
/*   1453 */	ldr	d2, [x2, x7, lsl #3]	//  (*)
/*   1453 */	ldr	d0, [x3]	//  (*)
	.loc 39 1454 0
..LDL704:
/*   1454 */	fmadd	d2, d2, d0, d1
/*   1454 */	frecpe	d1, d0
/*   1454 */	fmsub	d0, d0, d1, d8
/*   1454 */	fmul	d1, d2, d1
/*   1454 */	fmadd	d3, d0, d0, d0
/*   1454 */	fmul	d2, d0, d0
/*   1454 */	fmadd	d3, d3, d1, d1
/*   1454 */	fmadd	d0, d2, d2, d0
/*   1454 */	fmadd	d0, d0, d3, d1
/*   1454 */	str	d0, [x2, x7, lsl #3]	//  (*)
	.loc 39 1455 0
..LDL705:
/*   1455 */	b	.L1499
.L1493:
	.loc 39 1437 0 is_stmt 1
..LDL706:
/*   1437 */	add	x9, x7, 1
	.loc 37 1506 0
..LDL707:
/*   1506 */	ldr	x4, [x10]	//  (*)
	.loc 39 1437 0
..LDL708:
/*   1437 */	ldr	d0, [x8, x9, lsl #3]	//  (*)
	.loc 39 1439 0
..LDL709:
/*   1439 */	mov	w8, 0
	.loc 37 1506 0
..LDL710:
/*   1506 */	add	x4, x4, x3, lsl #2
	.loc 39 1439 0
..LDL711:
/*   1439 */	ldr	w4, [x4]	//  (*)
/*   1439 */	cmp	w4, 0
/*   1439 */	ble	.L1498
/*   1440 */	ldp	x12, x10, [x2, 64]	//  (*)
	.loc 39 1440 0 is_stmt 0
..LDL712:
/*   1440 */	mov	x4, 0
	.loc 37 1506 0
..LDL713:
/*   1506 */	ldr	x2, [x2, 256]	//  (*)
	.loc 39 1440 0
..LDL714:
/*   1440 */	ldr	x11, [x25, 8]	//  "xv"
/*   1440 */	ldr	x14, [x10, x7, lsl #3]	//  (*)
/*   1440 */	ldr	x13, [x12, x7, lsl #3]	//  (*)
	.loc 39 1441 0
..LDL715:
/*   1441 */	ldr	x10, [x10, x9, lsl #3]	//  (*)
/*   1441 */	ldr	x12, [x12, x9, lsl #3]	//  (*)
	.loc 39 1442 0
..LDL716:
/*   1442 */	ldr	w3, [x2, x3, lsl #2]	//  (*)
	.p2align 5
.L1496:					// :entr:term
	.loc 39 1440 0 is_stmt 1
..LDL717:
/*   1440 */	ldrsw	x2, [x13, x4, lsl #2]	//  (*)
	.loc 39 1441 0
..LDL718:
/*   1441 */	ldrsw	x15, [x12, x4, lsl #2]	//  (*)
	.loc 39 1442 0
..LDL719:
/*   1442 */	add	w8, w8, 1
	.loc 39 1440 0
..LDL720:
/*   1440 */	ldr	d5, [x14, x4, lsl #3]	//  (*)
	.loc 39 1441 0
..LDL721:
/*   1441 */	ldr	d4, [x10, x4, lsl #3]	//  (*)
	.loc 39 1442 0
..LDL722:
/*   1442 */	add	x4, x4, 1
/*   1442 */	cmp	w8, w3
	.loc 39 1440 0
..LDL723:
/*   1440 */	ldr	d3, [x11, x2, lsl #3]	//  (*)
	.loc 39 1441 0
..LDL724:
/*   1441 */	ldr	d2, [x11, x15, lsl #3]	//  (*)
	.loc 39 1440 0
..LDL725:
/*   1440 */	fmsub	d1, d5, d3, d1
	.loc 39 1441 0
..LDL726:
/*   1441 */	fmsub	d0, d4, d2, d0
	.loc 39 1442 0 is_stmt 0
..LDL727:
/*   1442 */	blt	.L1496
.L1498:
	.loc 39 1444 0 is_stmt 1
..LDL728:
	.loc 39 1443 0 is_stmt 0
..LDL729:
/*   1443 */	ldr	x2, [x25, 8]	//  "xv"
/*   1443 */	ldr	x3, [x25, 24]	//  "matrixDiagonal"
/*   1443 */	ldr	x3, [x3, x7, lsl #3]	//  (*)
/*   1443 */	ldr	d3, [x2, x7, lsl #3]	//  (*)
/*   1443 */	ldr	d2, [x3]	//  (*)
	.loc 39 1444 0
..LDL730:
/*   1444 */	fmadd	d1, d3, d2, d1
/*   1444 */	frecpe	d3, d2
/*   1444 */	fmsub	d2, d2, d3, d8
/*   1444 */	fmul	d3, d1, d3
/*   1444 */	fmadd	d1, d2, d2, d2
/*   1444 */	fmul	d4, d2, d2
/*   1444 */	fmadd	d1, d1, d3, d3
/*   1444 */	fmadd	d2, d4, d4, d2
/*   1444 */	fmadd	d1, d2, d1, d3
/*   1444 */	str	d1, [x2, x7, lsl #3]	//  (*)
	.loc 39 1445 0 is_stmt 1
..LDL731:
/*   1445 */	ldr	x3, [x25, 24]	//  "matrixDiagonal"
	.loc 39 1446 0
..LDL732:
	.loc 39 1445 0 is_stmt 0
..LDL733:
/*   1445 */	ldr	d2, [x2, x9, lsl #3]	//  (*)
	.loc 39 1445 0 is_stmt 1
..LDL734:
/*   1445 */	ldr	x3, [x3, x9, lsl #3]	//  (*)
	.loc 39 1446 0
..LDL735:
	.loc 39 1445 0 is_stmt 0
..LDL736:
/*   1445 */	ldr	d1, [x3]	//  (*)
	.loc 39 1446 0
..LDL737:
/*   1446 */	fmadd	d3, d2, d1, d0
/*   1446 */	frecpe	d0, d1
/*   1446 */	fmsub	d2, d1, d0, d8
/*   1446 */	fmul	d1, d3, d0
/*   1446 */	fmadd	d3, d2, d2, d2
/*   1446 */	fmul	d0, d2, d2
/*   1446 */	fmadd	d3, d3, d1, d1
/*   1446 */	fmadd	d0, d0, d0, d2
/*   1446 */	fmadd	d0, d0, d3, d1
/*   1446 */	str	d0, [x2, x9, lsl #3]	//  (*)
.L1499:					// :term
	.loc 39 1456 0 is_stmt 1
..LDL738:
/*   1456 */	add	w5, w5, 1
/*   1456 */	subs	w6, w6, 1
/*   1456 */	bne	.L1479
.L1501:					// :term
	.loc 39 1457 0
..LDL739:
/*   1457 */	add	w1, w21, w1
/*   1457 */	cmp	w1, w0
/*   1457 */	ble	.L1476
/*   1457 */	b	.L1474
.L1504:
/*   1457 */	add	x20, x19, 8
/*   1457 */	ldr	x0, [x20, 24]
/*   1457 */	bl	__mpc_obar
/*   1457 */	ldr	x0, [x20, 24]
/*   1457 */	bl	__mpc_obar
/*    ??? */	ldp	x19, x20, [x29, -16]	//  (*)
	.cfi_restore 19
	.cfi_restore 20
/*    ??? */	ldr	d8, [x29, -72]	//  (*)
	.cfi_restore 72
/*    ??? */	ldp	x21, x22, [x29, -32]	//  (*)
	.cfi_restore 21
	.cfi_restore 22
/*    ??? */	ldp	x23, x24, [x29, -48]	//  (*)
	.cfi_restore 23
	.cfi_restore 24
/*    ??? */	ldp	x25, x26, [x29, -64]	//  (*)
	.cfi_restore 25
	.cfi_restore 26
/*    ??? */	add	sp, x29, 0
/*    ??? */	ldp	x29, x30, [sp], 16	//  (*)
	.cfi_restore 29
	.cfi_restore 30
	.cfi_def_cfa_offset 0
/*   1457 */	ret	
..D7.pchi:
	.cfi_endproc
.LFE6:
	.size	_Z18ComputeSYMGS_BLOCKRK19SparseMatrix_STRUCTRK13Vector_STRUCTRS2_R9TraceData._OMP_4, .-_Z18ComputeSYMGS_BLOCKRK19SparseMatrix_STRUCTRK13Vector_STRUCTRS2_R9TraceData._OMP_4
	.ident	"$Compiler: Fujitsu C/C++ Compiler 4.7.0 (Nov 10 2021 09:37:15) ../src/ComputeSYMGS.cpp _Z18ComputeSYMGS_BLOCKRK19SparseMatrix_STRUCTRK13Vector_STRUCTRS2_R9TraceData._OMP_5 $"
	.text
	.align	2
	.type	_Z18ComputeSYMGS_BLOCKRK19SparseMatrix_STRUCTRK13Vector_STRUCTRS2_R9TraceData._OMP_5, %function
_Z18ComputeSYMGS_BLOCKRK19SparseMatrix_STRUCTRK13Vector_STRUCTRS2_R9TraceData._OMP_5:
	.loc 39 1471 0
..LDL740:
.LFB7:
	.cfi_startproc
/*    ??? */	stp	x29, x30, [sp, -16]!	//  (*)
/*   1457 */	add	x29, sp, 0
	.cfi_def_cfa 29, 16
	.cfi_offset 29, -16
	.cfi_offset 30, -8
/*   1457 */	sub	sp, sp, 240
/*    ??? */	stp	x19, x20, [x29, -16]	//  (*)
	.cfi_offset 19, -32
	.cfi_offset 20, -24
/*    ??? */	stp	d8, d9, [x29, -96]	//  (*)
	.cfi_offset 72, -112
	.cfi_offset 73, -104
/*   1457 */	add	x19, sp, 0
/*   1457 */	mov	x20, x0
/*    ??? */	stp	x21, x22, [x29, -32]	//  (*)
	.cfi_offset 21, -48
	.cfi_offset 22, -40
/*    ??? */	stp	d10, d11, [x29, -112]	//  (*)
	.cfi_offset 74, -128
	.cfi_offset 75, -120
/*    ??? */	stp	x23, x24, [x29, -48]	//  (*)
	.cfi_offset 23, -64
	.cfi_offset 24, -56
/*    ??? */	stp	d12, d13, [x29, -128]	//  (*)
	.cfi_offset 76, -144
	.cfi_offset 77, -136
/*    ??? */	stp	x25, x26, [x29, -64]	//  (*)
	.cfi_offset 25, -80
	.cfi_offset 26, -72
/*    ??? */	stp	d14, d15, [x29, -144]	//  (*)
	.cfi_offset 78, -160
	.cfi_offset 79, -152
/*    ??? */	stp	x27, x28, [x29, -80]	//  (*)
	.cfi_offset 27, -96
	.cfi_offset 28, -88
/*    ??? */	sub	sp, sp, 32
/*   1457 */	mov	x5, sp
/*   1457 */	and	sp, x5, -64
/*   1457 */	str	x1, [x19, 80]
/*   1457 */	str	x2, [x19, 72]
/*   1457 */	str	x3, [x19, 64]
/*   1457 */	str	x4, [x19, 56]
	.loc 39 1471 0 is_stmt 0
..LDL741:
	.loc 39 1471 0 is_stmt 0
..LDL742:
	.loc 39 1473 0 is_stmt 1
..LDL743:
/*   1473 */	ldr	w26, [x20, 4]	//  "firstBlock"
/*   1473 */	ldr	x0, [x20, 32]	//  "A"
/*   1473 */	ldr	w1, [x20]	//  "lastBlock"
/*   1473 */	ldr	w28, [x0, 336]	//  (*)
/*   1473 */	cmp	w26, w1
/*   1473 */	neg	w2, w28
/*   1473 */	ble	.L1548
/*   1473 */	add	x0, x19, 40
/*   1473 */	mov	x3, 1
	.loc 39 1497 0 is_stmt 0
..LDL744:
/*   1497 */	fmov	d15, 1.000000e+00
	.loc 39 1473 0
..LDL745:
/*   1473 */	str	x3, [x0]
/*   1473 */	sxtw	x0, w1
	.loc 39 1490 0
..LDL746:
/*   1490 */	mov	x24, 0
	.loc 39 1473 0
..LDL747:
/*    ??? */	str	x0, [x19, 8]	//  (*)
/*   1473 */	sxtw	x0, w2
/*    ??? */	str	x0, [x19]	//  (*)
.L1509:
/*   1473 */	add	x1, x19, 32
/*   1473 */	mov	x7, 0
/*   1473 */	add	x2, x1, 8
/*   1473 */	add	x1, x19, 32
/*   1473 */	sxtw	x0, w26
/*   1473 */	ldr	x1, [x1, 32]
/*   1473 */	add	x5, x19, 32
/*   1473 */	mov	x3, x7
/*   1473 */	add	x4, x19, 32
/*   1473 */	add	x5, x5, 16
/*   1473 */	mov	x6, x7
/*   1473 */	str	x1, [sp, 8]	//  (*)
/*    ??? */	ldr	x1, [x19, 8]	//  (*)
/*   1473 */	str	x2, [sp]	//  (*)
/*    ??? */	ldr	x2, [x19]	//  (*)
/*   1473 */	bl	__mpc_ortd_th
/*   1473 */	add	x0, x19, 32
/*   1473 */	ldr	x0, [x0, 8]
/*   1473 */	cmp	x0, 0
/*   1473 */	ble	.L1548
/*   1473 */	add	x0, x19, 32
	.loc 39 1490 0
..LDL748:
/*   1490 */	ptrue	p0.d, ALL
	.loc 39 1473 0
..LDL749:
/*   1473 */	ldr	x26, [x0]
/*   1473 */	add	x0, x19, 32
/*   1473 */	ldr	x27, [x0, 16]
	.loc 39 1478 0 is_stmt 1
..LDL750:
	.loc 39 1491 0 is_stmt 0
..LDL751:
/*   1491 */	index	z29.d, 0, -1
/*   1491 */	fmov	z13.d, 0.000000e+00
.L1511:					// :entr
	.loc 39 1474 0 is_stmt 1
..LDL752:
/*   1474 */	add	w2, w26, 1
/*   1474 */	ldr	x0, [x20, 32]	//  "A"
/*   1474 */	ldr	w1, [x0, 332]	//  (*)
	.loc 39 1475 0
..LDL753:
/*   1475 */	ldr	w0, [x0, 336]	//  (*)
	.loc 39 1474 0
..LDL754:
/*   1474 */	mul	w2, w1, w2
/*   1474 */	sub	w2, w2, 1
	.loc 39 1475 0
..LDL755:
/*   1475 */	sdiv	w10, w2, w0
	.loc 39 1476 0
..LDL756:
/*   1476 */	msub	w1, w1, w0, w2
/*   1476 */	sdiv	w0, w1, w0
	.loc 39 1478 0
..LDL757:
/*   1478 */	add	w1, w0, 1
/*   1478 */	cmp	w10, w0
/*   1478 */	sub	w1, w10, w1
/*   1478 */	add	w25, w1, 1
/*   1478 */	ble	.L1545
.L1514:					// :entr
	.loc 39 1479 0
..LDL758:
/*   1479 */	ldr	x0, [x20, 32]	//  "A"
	.loc 39 1483 0
..LDL759:
/*   1483 */	add	w1, w10, 1
	.loc 39 1479 0
..LDL760:
/*   1479 */	ldr	w3, [x0, 336]	//  (*)
	.loc 39 1483 0
..LDL761:
/*   1483 */	mul	w1, w1, w3
	.loc 39 1484 0
..LDL762:
/*   1484 */	cmp	w3, 4
	.loc 39 1483 0
..LDL763:
/*   1483 */	sub	w1, w1, 1
	.loc 39 1484 0
..LDL764:
	.loc 39 1485 0 is_stmt 0
..LDL765:
/*   1485 */	sxtw	x12, w1
	.loc 39 1484 0
..LDL766:
/*   1484 */	bne	.L1524
	.loc 39 1485 0 is_stmt 1
..LDL767:
/*   1485 */	ldr	x3, [x20, 16]	//  "rv"
/*   1485 */	sub	x11, x12, 3
	.loc 39 1486 0
..LDL768:
/*   1486 */	sub	x21, x12, 2
	.loc 37 1506 0
..LDL769:
/*   1506 */	ldr	x2, [x0, 256]	//  (*)
	.loc 39 1487 0
..LDL770:
/*   1487 */	sub	x30, x12, 1
	.loc 39 1490 0
..LDL771:
/*   1490 */	sxtw	x1, w10
	.loc 39 1485 0
..LDL772:
/*   1485 */	ldr	d10, [x3, x11, lsl #3]	//  (*)
	.loc 39 1486 0
..LDL773:
/*   1486 */	ldr	d14, [x3, x21, lsl #3]	//  (*)
	.loc 39 1487 0
..LDL774:
/*   1487 */	ldr	d12, [x3, x30, lsl #3]	//  (*)
	.loc 39 1488 0
..LDL775:
/*   1488 */	ldr	d11, [x3, x12, lsl #3]	//  (*)
	.loc 39 1490 0
..LDL776:
/*   1490 */	ldr	w1, [x2, x1, lsl #2]	//  (*)
/*   1490 */	sub	w3, w1, 1
/*   1490 */	cmp	w1, 0
/*   1490 */	csel	w2, w1, wzr, ge
/*   1490 */	cmp	w3, 0
/*   1490 */	blt	.L1523
/*   1491 */	ldp	x0, x1, [x0, 64]	//  (*)
	.loc 39 1491 0 is_stmt 0
..LDL777:
/*   1491 */	sxtw	x22, w3
	.loc 39 1490 0
..LDL778:
/*   1490 */	asr	w3, w2, 2
/*   1490 */	add	w3, w2, w3, lsr #29
/*   1490 */	asr	w13, w3, 3
/*   1490 */	sub	w23, w2, w13, lsl #3
	.loc 39 1491 0
..LDL779:
/*   1491 */	ldr	x2, [x0, x11, lsl #3]	//  (*)
	.loc 39 1492 0
..LDL780:
/*   1492 */	ldr	x4, [x0, x21, lsl #3]	//  (*)
	.loc 39 1491 0
..LDL781:
/*   1491 */	ldr	x3, [x1, x11, lsl #3]	//  (*)
	.loc 39 1493 0
..LDL782:
/*   1493 */	ldr	x6, [x0, x30, lsl #3]	//  (*)
	.loc 39 1492 0
..LDL783:
/*   1492 */	ldr	x5, [x1, x21, lsl #3]	//  (*)
	.loc 39 1493 0
..LDL784:
/*   1493 */	ldr	x7, [x1, x30, lsl #3]	//  (*)
	.loc 39 1494 0
..LDL785:
/*   1494 */	ldr	x8, [x1, x12, lsl #3]	//  (*)
/*   1494 */	ldr	x0, [x0, x12, lsl #3]	//  (*)
	.loc 39 1490 0
..LDL786:
/*   1490 */	cbz	w13, .L1520
	.loc 39 1491 0
..LDL787:
/*   1491 */	ldr	x1, [x20, 8]	//  "xv"
/*   1491 */	mov	w9, w13
/*   1491 */	mov	z5.d, z13.d
/*   1491 */	mov	z4.d, z13.d
/*   1491 */	mov	x14, x22
/*   1491 */	mov	z3.d, z13.d
/*   1491 */	mov	z1.d, z13.d
	.loc 39 1490 0
..LDL788:
/*   1490 */	cmp	w9, 4
/*   1490 */	blt	.L1716
	.loc 39 1491 0
..LDL789:
/*   1491 */	mov	x16, x14
	.loc 39 1490 0
..LDL790:
/*   1490 */	sub	x14, x14, 8
	.loc 39 1491 0
..LDL791:
/*   1491 */	add	x15, x2, x16, lsl #2
/*   1491 */	ld1sw	{z6.d}, p0/z, [x15, z29.d, lsl #2]	//  (*)
	.loc 39 1492 0
..LDL792:
/*   1492 */	add	x15, x4, x16, lsl #2
/*   1492 */	ld1sw	{z2.d}, p0/z, [x15, z29.d, lsl #2]	//  (*)
	.loc 39 1493 0
..LDL793:
/*   1493 */	add	x15, x6, x16, lsl #2
/*   1493 */	ld1sw	{z0.d}, p0/z, [x15, z29.d, lsl #2]	//  (*)
	.loc 39 1494 0
..LDL794:
/*   1494 */	add	x15, x0, x16, lsl #2
/*   1494 */	ld1sw	{z23.d}, p0/z, [x15, z29.d, lsl #2]	//  (*)
	.loc 39 1491 0
..LDL795:
/*   1491 */	mov	x15, x14
/*   1491 */	add	x17, x2, x15, lsl #2
/*   1491 */	ld1sw	{z22.d}, p0/z, [x17, z29.d, lsl #2]	//  (*)
/*   1491 */	add	x17, x3, x16, lsl #3
/*   1491 */	ld1d	{z17.d}, p0/z, [x17, z29.d, lsl #3]	//  (*)
	.loc 39 1492 0
..LDL796:
/*   1492 */	add	x17, x4, x15, lsl #2
/*   1492 */	ld1sw	{z21.d}, p0/z, [x17, z29.d, lsl #2]	//  (*)
/*   1492 */	add	x17, x5, x16, lsl #3
/*   1492 */	ld1d	{z18.d}, p0/z, [x17, z29.d, lsl #3]	//  (*)
	.loc 39 1493 0
..LDL797:
/*   1493 */	add	x17, x6, x15, lsl #2
/*   1493 */	ld1sw	{z7.d}, p0/z, [x17, z29.d, lsl #2]	//  (*)
/*   1493 */	add	x17, x7, x16, lsl #3
	.loc 39 1491 0
..LDL798:
/*   1491 */	ld1d	{z16.d}, p0/z, [x1, z6.d, lsl #3]	//  (*)
	.loc 39 1493 0
..LDL799:
/*   1493 */	ld1d	{z19.d}, p0/z, [x17, z29.d, lsl #3]	//  (*)
	.loc 39 1494 0
..LDL800:
/*   1494 */	add	x17, x8, x16, lsl #3
	.loc 39 1492 0
..LDL801:
/*   1492 */	ld1d	{z6.d}, p0/z, [x1, z2.d, lsl #3]	//  (*)
	.loc 39 1493 0
..LDL802:
/*   1493 */	ld1d	{z20.d}, p0/z, [x1, z0.d, lsl #3]	//  (*)
	.p2align 5
.L1518:					// :entr:term:swpl
	.loc 39 1494 0
..LDL803:
/*   1494 */	add	x16, x0, x15, lsl #2
/*   1494 */	ld1d	{z0.d}, p0/z, [x1, z23.d, lsl #3]	//  (*)
/*   1494 */	ld1d	{z2.d}, p0/z, [x17, z29.d, lsl #3]	//  (*)
/*   1494 */	ld1sw	{z23.d}, p0/z, [x16, z29.d, lsl #2]	//  (*)
	.loc 39 1490 0
..LDL804:
/*   1490 */	sub	x16, x14, 8
	.loc 39 1491 0
..LDL805:
/*   1491 */	add	x17, x2, x16, lsl #2
/*   1491 */	add	x18, x3, x15, lsl #3
/*   1491 */	ld1sw	{z9.d}, p0/z, [x17, z29.d, lsl #2]	//  (*)
	.loc 39 1492 0
..LDL806:
/*   1492 */	add	x17, x4, x16, lsl #2
	.loc 39 1491 0
..LDL807:
/*   1491 */	ld1d	{z8.d}, p0/z, [x1, z22.d, lsl #3]	//  (*)
/*   1491 */	ld1d	{z31.d}, p0/z, [x18, z29.d, lsl #3]	//  (*)
	.loc 39 1492 0
..LDL808:
/*   1492 */	add	x18, x5, x15, lsl #3
/*   1492 */	ld1sw	{z30.d}, p0/z, [x17, z29.d, lsl #2]	//  (*)
/*   1492 */	ld1d	{z27.d}, p0/z, [x1, z21.d, lsl #3]	//  (*)
	.loc 39 1493 0
..LDL809:
/*   1493 */	add	x17, x6, x16, lsl #2
	.loc 39 1492 0
..LDL810:
/*   1492 */	ld1d	{z26.d}, p0/z, [x18, z29.d, lsl #3]	//  (*)
	.loc 39 1493 0
..LDL811:
/*   1493 */	ld1sw	{z28.d}, p0/z, [x17, z29.d, lsl #2]	//  (*)
/*   1493 */	add	x17, x7, x15, lsl #3
	.loc 39 1491 0
..LDL812:
/*   1491 */	fmls	z5.d, p0/m, z17.d, z16.d
	.loc 39 1493 0
..LDL813:
/*   1493 */	ld1d	{z25.d}, p0/z, [x1, z7.d, lsl #3]	//  (*)
	.loc 39 1492 0
..LDL814:
/*   1492 */	fmls	z4.d, p0/m, z18.d, z6.d
	.loc 39 1493 0
..LDL815:
/*   1493 */	ld1d	{z24.d}, p0/z, [x17, z29.d, lsl #3]	//  (*)
	.loc 39 1494 0
..LDL816:
/*   1494 */	add	x17, x8, x15, lsl #3
	.loc 39 1493 0
..LDL817:
/*   1493 */	fmls	z3.d, p0/m, z19.d, z20.d
	.loc 39 1494 0
..LDL818:
/*   1494 */	fmsb	z2.d, p0/m, z0.d, z1.d
/*   1494 */	add	x15, x0, x16, lsl #2
/*   1494 */	ld1d	{z0.d}, p0/z, [x1, z23.d, lsl #3]	//  (*)
/*   1494 */	ld1d	{z1.d}, p0/z, [x17, z29.d, lsl #3]	//  (*)
/*   1494 */	ld1sw	{z23.d}, p0/z, [x15, z29.d, lsl #2]	//  (*)
	.loc 39 1490 0
..LDL819:
/*   1490 */	sub	x14, x14, 16
	.loc 39 1491 0
..LDL820:
/*   1491 */	mov	x15, x14
/*   1491 */	add	x17, x2, x15, lsl #2
/*   1491 */	add	x18, x3, x16, lsl #3
/*   1491 */	ld1sw	{z22.d}, p0/z, [x17, z29.d, lsl #2]	//  (*)
	.loc 39 1492 0
..LDL821:
/*   1492 */	add	x17, x4, x15, lsl #2
	.loc 39 1491 0
..LDL822:
/*   1491 */	ld1d	{z16.d}, p0/z, [x1, z9.d, lsl #3]	//  (*)
/*   1491 */	ld1d	{z17.d}, p0/z, [x18, z29.d, lsl #3]	//  (*)
	.loc 39 1492 0
..LDL823:
/*   1492 */	add	x18, x5, x16, lsl #3
/*   1492 */	ld1sw	{z21.d}, p0/z, [x17, z29.d, lsl #2]	//  (*)
/*   1492 */	ld1d	{z6.d}, p0/z, [x1, z30.d, lsl #3]	//  (*)
	.loc 39 1493 0
..LDL824:
/*   1493 */	add	x17, x6, x15, lsl #2
	.loc 39 1492 0
..LDL825:
/*   1492 */	ld1d	{z18.d}, p0/z, [x18, z29.d, lsl #3]	//  (*)
	.loc 39 1493 0
..LDL826:
/*   1493 */	ld1sw	{z7.d}, p0/z, [x17, z29.d, lsl #2]	//  (*)
/*   1493 */	add	x17, x7, x16, lsl #3
	.loc 39 1491 0
..LDL827:
/*   1491 */	fmls	z5.d, p0/m, z31.d, z8.d
	.loc 39 1493 0
..LDL828:
/*   1493 */	ld1d	{z20.d}, p0/z, [x1, z28.d, lsl #3]	//  (*)
	.loc 39 1492 0
..LDL829:
/*   1492 */	fmls	z4.d, p0/m, z26.d, z27.d
	.loc 39 1493 0
..LDL830:
/*   1493 */	ld1d	{z19.d}, p0/z, [x17, z29.d, lsl #3]	//  (*)
	.loc 39 1494 0
..LDL831:
/*   1494 */	add	x17, x8, x16, lsl #3
	.loc 39 1493 0
..LDL832:
/*   1493 */	fmls	z3.d, p0/m, z24.d, z25.d
	.loc 39 1494 0
..LDL833:
/*   1494 */	fmsb	z1.d, p0/m, z0.d, z2.d
	.loc 39 1490 0
..LDL834:
/*   1490 */	sub	w9, w9, 2
/*   1490 */	cmp	w9, 4
/*   1490 */	bge	.L1518
	.loc 39 1494 0
..LDL835:
/*   1494 */	ld1d	{z0.d}, p0/z, [x1, z23.d, lsl #3]	//  (*)
/*   1494 */	add	x16, x0, x15, lsl #2
	.loc 39 1490 0
..LDL836:
/*   1490 */	sub	x14, x14, 8
	.loc 39 1492 0
..LDL837:
/*   1492 */	fmls	z4.d, p0/m, z18.d, z6.d
	.loc 39 1491 0
..LDL838:
/*   1491 */	ld1d	{z23.d}, p0/z, [x1, z22.d, lsl #3]	//  (*)
/*   1491 */	fmls	z5.d, p0/m, z17.d, z16.d
	.loc 39 1490 0
..LDL839:
/*   1490 */	sub	w9, w9, 2
	.loc 39 1494 0
..LDL840:
/*   1494 */	ld1sw	{z25.d}, p0/z, [x16, z29.d, lsl #2]	//  (*)
	.loc 39 1491 0
..LDL841:
/*   1491 */	add	x16, x3, x15, lsl #3
	.loc 39 1493 0
..LDL842:
/*   1493 */	fmls	z3.d, p0/m, z19.d, z20.d
	.loc 39 1494 0
..LDL843:
/*   1494 */	ld1d	{z2.d}, p0/z, [x17, z29.d, lsl #3]	//  (*)
	.loc 39 1491 0
..LDL844:
/*   1491 */	ld1d	{z22.d}, p0/z, [x16, z29.d, lsl #3]	//  (*)
	.loc 39 1492 0
..LDL845:
/*   1492 */	add	x16, x5, x15, lsl #3
/*   1492 */	ld1d	{z21.d}, p0/z, [x1, z21.d, lsl #3]	//  (*)
/*   1492 */	ld1d	{z24.d}, p0/z, [x16, z29.d, lsl #3]	//  (*)
	.loc 39 1493 0
..LDL846:
/*   1493 */	add	x16, x7, x15, lsl #3
/*   1493 */	ld1d	{z7.d}, p0/z, [x1, z7.d, lsl #3]	//  (*)
/*   1493 */	ld1d	{z6.d}, p0/z, [x16, z29.d, lsl #3]	//  (*)
	.loc 39 1494 0
..LDL847:
/*   1494 */	add	x15, x8, x15, lsl #3
/*   1494 */	fmls	z1.d, p0/m, z2.d, z0.d
/*   1494 */	ld1d	{z0.d}, p0/z, [x1, z25.d, lsl #3]	//  (*)
	.loc 39 1491 0
..LDL848:
/*   1491 */	fmls	z5.d, p0/m, z22.d, z23.d
	.loc 39 1494 0
..LDL849:
/*   1494 */	ld1d	{z2.d}, p0/z, [x15, z29.d, lsl #3]	//  (*)
	.loc 39 1492 0
..LDL850:
/*   1492 */	fmls	z4.d, p0/m, z24.d, z21.d
	.loc 39 1493 0
..LDL851:
/*   1493 */	fmls	z3.d, p0/m, z6.d, z7.d
	.loc 39 1494 0
..LDL852:
/*   1494 */	fmls	z1.d, p0/m, z2.d, z0.d
	.loc 39 1490 0
..LDL853:
/*   1490 */	cbz	w9, .L1713
.L1716:
	.p2align 5
.L1719:					// :entr:term:mod:swpl
	.loc 39 1491 0 is_stmt 1
..LDL854:
/*   1491 */	mov	x15, x14
	.loc 39 1490 0 is_stmt 0
..LDL855:
/*   1490 */	sub	x14, x14, 8
	.loc 39 1491 0
..LDL856:
/*   1491 */	add	x16, x2, x15, lsl #2
	.loc 39 1490 0
..LDL857:
/*   1490 */	subs	w9, w9, 1
	.loc 39 1491 0
..LDL858:
/*   1491 */	ld1sw	{z0.d}, p0/z, [x16, z29.d, lsl #2]	//  (*)
/*   1491 */	add	x16, x3, x15, lsl #3
/*   1491 */	ld1d	{z2.d}, p0/z, [x1, z0.d, lsl #3]	//  (*)
/*   1491 */	ld1d	{z0.d}, p0/z, [x16, z29.d, lsl #3]	//  (*)
	.loc 39 1492 0 is_stmt 1
..LDL859:
/*   1492 */	add	x16, x4, x15, lsl #2
	.loc 39 1491 0
..LDL860:
/*   1491 */	fmls	z5.d, p0/m, z0.d, z2.d
	.loc 39 1492 0
..LDL861:
/*   1492 */	ld1sw	{z0.d}, p0/z, [x16, z29.d, lsl #2]	//  (*)
/*   1492 */	add	x16, x5, x15, lsl #3
/*   1492 */	ld1d	{z6.d}, p0/z, [x16, z29.d, lsl #3]	//  (*)
	.loc 39 1493 0
..LDL862:
/*   1493 */	add	x16, x6, x15, lsl #2
	.loc 39 1492 0
..LDL863:
/*   1492 */	ld1d	{z2.d}, p0/z, [x1, z0.d, lsl #3]	//  (*)
	.loc 39 1493 0
..LDL864:
/*   1493 */	ld1sw	{z0.d}, p0/z, [x16, z29.d, lsl #2]	//  (*)
/*   1493 */	add	x16, x7, x15, lsl #3
	.loc 39 1492 0
..LDL865:
/*   1492 */	fmls	z4.d, p0/m, z6.d, z2.d
	.loc 39 1493 0
..LDL866:
/*   1493 */	ld1d	{z2.d}, p0/z, [x16, z29.d, lsl #3]	//  (*)
	.loc 39 1494 0
..LDL867:
/*   1494 */	add	x16, x0, x15, lsl #2
	.loc 39 1493 0
..LDL868:
/*   1493 */	ld1d	{z6.d}, p0/z, [x1, z0.d, lsl #3]	//  (*)
	.loc 39 1494 0
..LDL869:
/*   1494 */	ld1sw	{z0.d}, p0/z, [x16, z29.d, lsl #2]	//  (*)
/*   1494 */	add	x15, x8, x15, lsl #3
	.loc 39 1493 0
..LDL870:
/*   1493 */	fmls	z3.d, p0/m, z2.d, z6.d
	.loc 39 1494 0
..LDL871:
/*   1494 */	ld1d	{z2.d}, p0/z, [x1, z0.d, lsl #3]	//  (*)
/*   1494 */	ld1d	{z0.d}, p0/z, [x15, z29.d, lsl #3]	//  (*)
/*   1494 */	fmls	z1.d, p0/m, z0.d, z2.d
	.loc 39 1490 0 is_stmt 0
..LDL872:
/*   1490 */	bne	.L1719
.L1713:
	.loc 39 1494 0
..LDL873:
/*   1494 */	movprfx	z0, z1
/*   1494 */	ext	z0.b, z0.b, z1.b, 32
	.loc 39 1493 0
..LDL874:
/*   1493 */	movprfx	z7, z3
/*   1493 */	ext	z7.b, z7.b, z3.b, 32
	.loc 39 1492 0
..LDL875:
/*   1492 */	movprfx	z6, z4
/*   1492 */	ext	z6.b, z6.b, z4.b, 32
	.loc 39 1491 0
..LDL876:
/*   1491 */	movprfx	z2, z5
/*   1491 */	ext	z2.b, z2.b, z5.b, 32
	.loc 39 1494 0
..LDL877:
/*   1494 */	fadd	z0.d, z0.d, z1.d
	.loc 39 1493 0
..LDL878:
/*   1493 */	fadd	z1.d, z7.d, z3.d
	.loc 39 1492 0
..LDL879:
/*   1492 */	fadd	z3.d, z6.d, z4.d
	.loc 39 1491 0
..LDL880:
/*   1491 */	fadd	z2.d, z2.d, z5.d
	.loc 39 1494 0
..LDL881:
/*   1494 */	movprfx	z4, z0
/*   1494 */	ext	z4.b, z4.b, z0.b, 16
	.loc 39 1493 0
..LDL882:
/*   1493 */	movprfx	z7, z1
/*   1493 */	ext	z7.b, z7.b, z1.b, 16
	.loc 39 1492 0
..LDL883:
/*   1492 */	movprfx	z6, z3
/*   1492 */	ext	z6.b, z6.b, z3.b, 16
	.loc 39 1491 0
..LDL884:
/*   1491 */	movprfx	z5, z2
/*   1491 */	ext	z5.b, z5.b, z2.b, 16
	.loc 39 1494 0
..LDL885:
/*   1494 */	fadd	z4.d, z0.d, z4.d
	.loc 39 1493 0
..LDL886:
/*   1493 */	fadd	z0.d, z1.d, z7.d
	.loc 39 1492 0
..LDL887:
/*   1492 */	fadd	z3.d, z3.d, z6.d
	.loc 39 1491 0
..LDL888:
/*   1491 */	fadd	z5.d, z2.d, z5.d
	.loc 39 1494 0
..LDL889:
/*   1494 */	movprfx	z7, z4
/*   1494 */	ext	z7.b, z7.b, z4.b, 8
	.loc 39 1493 0
..LDL890:
/*   1493 */	movprfx	z2, z0
/*   1493 */	ext	z2.b, z2.b, z0.b, 8
	.loc 39 1492 0
..LDL891:
/*   1492 */	movprfx	z1, z3
/*   1492 */	ext	z1.b, z1.b, z3.b, 8
	.loc 39 1491 0
..LDL892:
/*   1491 */	movprfx	z6, z5
/*   1491 */	ext	z6.b, z6.b, z5.b, 8
	.loc 39 1494 0
..LDL893:
/*   1494 */	fadd	z4.d, z4.d, z7.d
	.loc 39 1493 0
..LDL894:
/*   1493 */	fadd	z0.d, z0.d, z2.d
	.loc 39 1492 0
..LDL895:
/*   1492 */	fadd	z1.d, z3.d, z1.d
	.loc 39 1491 0
..LDL896:
/*   1491 */	fadd	z2.d, z5.d, z6.d
	.loc 39 1494 0
..LDL897:
/*   1494 */	fadd	d11, d11, d4
	.loc 39 1493 0
..LDL898:
/*   1493 */	fadd	d12, d12, d0
	.loc 39 1492 0
..LDL899:
/*   1492 */	fadd	d14, d14, d1
	.loc 39 1491 0
..LDL900:
/*   1491 */	fadd	d10, d10, d2
.L1520:
	.loc 39 1490 0 is_stmt 1
..LDL901:
/*   1490 */	sbfiz	x1, x13, 3, 32
/*   1490 */	sub	x1, x24, x1
/*   1490 */	add	x1, x1, x22
/*   1490 */	cbz	w23, .L1523
/*   1490 */	whilelt	p1.d, wzr, w23
	.loc 39 1491 0
..LDL902:
/*   1491 */	ldr	x9, [x20, 8]	//  "xv"
/*   1491 */	add	x2, x2, x1, lsl #2
	.loc 39 1494 0
..LDL903:
/*   1494 */	add	x0, x0, x1, lsl #2
	.loc 39 1491 0
..LDL904:
/*   1491 */	ld1sw	{z5.d}, p1/z, [x2, z29.d, lsl #2]	//  (*)
	.loc 39 1492 0
..LDL905:
/*   1492 */	add	x4, x4, x1, lsl #2
	.loc 39 1494 0
..LDL906:
/*   1494 */	ld1sw	{z16.d}, p1/z, [x0, z29.d, lsl #2]	//  (*)
	.loc 39 1492 0
..LDL907:
/*   1492 */	ld1sw	{z3.d}, p1/z, [x4, z29.d, lsl #2]	//  (*)
/*   1492 */	add	x0, x5, x1, lsl #3
	.loc 39 1493 0
..LDL908:
/*   1493 */	add	x2, x6, x1, lsl #2
	.loc 39 1492 0
..LDL909:
/*   1492 */	ld1d	{z4.d}, p1/z, [x0, z29.d, lsl #3]	//  (*)
	.loc 39 1493 0
..LDL910:
/*   1493 */	ld1sw	{z0.d}, p1/z, [x2, z29.d, lsl #2]	//  (*)
/*   1493 */	add	x0, x7, x1, lsl #3
/*   1493 */	ld1d	{z2.d}, p1/z, [x0, z29.d, lsl #3]	//  (*)
	.loc 39 1494 0
..LDL911:
/*   1494 */	add	x0, x8, x1, lsl #3
	.loc 39 1491 0
..LDL912:
/*   1491 */	add	x2, x3, x1, lsl #3
	.loc 39 1494 0
..LDL913:
/*   1494 */	ld1d	{z1.d}, p1/z, [x0, z29.d, lsl #3]	//  (*)
	.loc 39 1491 0
..LDL914:
/*   1491 */	ld1d	{z6.d}, p1/z, [x2, z29.d, lsl #3]	//  (*)
/*   1491 */	ld1d	{z7.d}, p1/z, [x9, z5.d, lsl #3]	//  (*)
	.loc 39 1492 0
..LDL915:
/*   1492 */	ld1d	{z5.d}, p1/z, [x9, z3.d, lsl #3]	//  (*)
	.loc 39 1493 0
..LDL916:
/*   1493 */	ld1d	{z3.d}, p1/z, [x9, z0.d, lsl #3]	//  (*)
	.loc 39 1494 0
..LDL917:
/*   1494 */	ld1d	{z0.d}, p1/z, [x9, z16.d, lsl #3]	//  (*)
	.loc 39 1491 0
..LDL918:
/*   1491 */	fmsb	z6.d, p1/m, z7.d, z13.d
	.loc 39 1492 0
..LDL919:
/*   1492 */	fmsb	z4.d, p1/m, z5.d, z13.d
	.loc 39 1493 0
..LDL920:
/*   1493 */	fmsb	z2.d, p1/m, z3.d, z13.d
	.loc 39 1494 0
..LDL921:
/*   1494 */	fmsb	z1.d, p1/m, z0.d, z13.d
	.loc 39 1491 0 is_stmt 0
..LDL922:
/*   1491 */	sel	z3.d, p1, z6.d, z13.d
	.loc 39 1492 0
..LDL923:
/*   1492 */	sel	z4.d, p1, z4.d, z13.d
	.loc 39 1491 0
..LDL924:
/*   1491 */	movprfx	z7, z3
/*   1491 */	ext	z7.b, z7.b, z3.b, 32
	.loc 39 1493 0
..LDL925:
/*   1493 */	sel	z0.d, p1, z2.d, z13.d
	.loc 39 1494 0
..LDL926:
/*   1494 */	sel	z1.d, p1, z1.d, z13.d
	.loc 39 1492 0
..LDL927:
/*   1492 */	movprfx	z2, z4
/*   1492 */	ext	z2.b, z2.b, z4.b, 32
	.loc 39 1491 0
..LDL928:
/*   1491 */	fadd	z3.d, z3.d, z7.d
	.loc 39 1493 0
..LDL929:
/*   1493 */	movprfx	z5, z0
/*   1493 */	ext	z5.b, z5.b, z0.b, 32
	.loc 39 1494 0
..LDL930:
/*   1494 */	movprfx	z6, z1
/*   1494 */	ext	z6.b, z6.b, z1.b, 32
	.loc 39 1492 0
..LDL931:
/*   1492 */	fadd	z2.d, z4.d, z2.d
	.loc 39 1493 0
..LDL932:
/*   1493 */	fadd	z0.d, z0.d, z5.d
	.loc 39 1494 0
..LDL933:
/*   1494 */	fadd	z4.d, z1.d, z6.d
	.loc 39 1491 0
..LDL934:
/*   1491 */	movprfx	z1, z3
/*   1491 */	ext	z1.b, z1.b, z3.b, 16
	.loc 39 1492 0
..LDL935:
/*   1492 */	movprfx	z5, z2
/*   1492 */	ext	z5.b, z5.b, z2.b, 16
	.loc 39 1491 0
..LDL936:
/*   1491 */	fadd	z1.d, z3.d, z1.d
	.loc 39 1493 0
..LDL937:
/*   1493 */	movprfx	z7, z0
/*   1493 */	ext	z7.b, z7.b, z0.b, 16
	.loc 39 1494 0
..LDL938:
/*   1494 */	movprfx	z6, z4
/*   1494 */	ext	z6.b, z6.b, z4.b, 16
	.loc 39 1492 0
..LDL939:
/*   1492 */	fadd	z5.d, z2.d, z5.d
	.loc 39 1493 0
..LDL940:
/*   1493 */	fadd	z0.d, z0.d, z7.d
	.loc 39 1494 0
..LDL941:
/*   1494 */	fadd	z3.d, z4.d, z6.d
	.loc 39 1491 0
..LDL942:
/*   1491 */	movprfx	z7, z1
/*   1491 */	ext	z7.b, z7.b, z1.b, 8
	.loc 39 1492 0
..LDL943:
/*   1492 */	movprfx	z6, z5
/*   1492 */	ext	z6.b, z6.b, z5.b, 8
	.loc 39 1491 0
..LDL944:
/*   1491 */	fadd	z1.d, z1.d, z7.d
	.loc 39 1493 0
..LDL945:
/*   1493 */	movprfx	z2, z0
/*   1493 */	ext	z2.b, z2.b, z0.b, 8
	.loc 39 1494 0
..LDL946:
/*   1494 */	movprfx	z4, z3
/*   1494 */	ext	z4.b, z4.b, z3.b, 8
	.loc 39 1492 0
..LDL947:
/*   1492 */	fadd	z5.d, z5.d, z6.d
	.loc 39 1493 0
..LDL948:
/*   1493 */	fadd	z0.d, z0.d, z2.d
	.loc 39 1494 0
..LDL949:
/*   1494 */	fadd	z2.d, z3.d, z4.d
	.loc 39 1491 0
..LDL950:
/*   1491 */	fadd	d10, d10, d1
	.loc 39 1492 0
..LDL951:
/*   1492 */	fadd	d14, d14, d5
	.loc 39 1493 0
..LDL952:
/*   1493 */	fadd	d12, d12, d0
	.loc 39 1494 0
..LDL953:
/*   1494 */	fadd	d11, d11, d2
.L1523:
	.loc 39 1497 0 is_stmt 1
..LDL954:
	.loc 39 1496 0 is_stmt 0
..LDL955:
/*   1496 */	ldr	x0, [x20, 8]	//  "xv"
/*   1496 */	ldr	x1, [x20, 24]	//  "matrixDiagonal"
/*   1496 */	ldr	x1, [x1, x11, lsl #3]	//  (*)
/*   1496 */	ldr	d1, [x0, x11, lsl #3]	//  (*)
/*   1496 */	ldr	d0, [x1]	//  (*)
	.loc 39 1497 0
..LDL956:
/*   1497 */	fmadd	d2, d1, d0, d10
/*   1497 */	frecpe	d1, d0
/*   1497 */	fmsub	d0, d0, d1, d15
/*   1497 */	fmul	d2, d2, d1
/*   1497 */	fmadd	d3, d0, d0, d0
/*   1497 */	fmul	d1, d0, d0
/*   1497 */	fmadd	d3, d3, d2, d2
/*   1497 */	fmadd	d0, d1, d1, d0
/*   1497 */	fmadd	d0, d0, d3, d2
/*   1497 */	str	d0, [x0, x11, lsl #3]	//  (*)
	.loc 39 1499 0 is_stmt 1
..LDL957:
/*   1499 */	ldr	x1, [x20, 24]	//  "matrixDiagonal"
	.loc 39 1500 0
..LDL958:
	.loc 39 1499 0 is_stmt 0
..LDL959:
/*   1499 */	ldr	d1, [x0, x21, lsl #3]	//  (*)
	.loc 39 1499 0 is_stmt 1
..LDL960:
/*   1499 */	ldr	x1, [x1, x21, lsl #3]	//  (*)
	.loc 39 1500 0
..LDL961:
	.loc 39 1499 0 is_stmt 0
..LDL962:
/*   1499 */	ldr	d0, [x1]	//  (*)
	.loc 39 1500 0
..LDL963:
/*   1500 */	fmadd	d2, d1, d0, d14
/*   1500 */	frecpe	d1, d0
/*   1500 */	fmsub	d0, d0, d1, d15
/*   1500 */	fmul	d1, d2, d1
/*   1500 */	fmadd	d2, d0, d0, d0
/*   1500 */	fmul	d3, d0, d0
/*   1500 */	fmadd	d2, d2, d1, d1
/*   1500 */	fmadd	d0, d3, d3, d0
/*   1500 */	fmadd	d0, d0, d2, d1
/*   1500 */	str	d0, [x0, x21, lsl #3]	//  (*)
	.loc 39 1502 0 is_stmt 1
..LDL964:
/*   1502 */	ldr	x1, [x20, 24]	//  "matrixDiagonal"
	.loc 39 1503 0
..LDL965:
	.loc 39 1502 0 is_stmt 0
..LDL966:
/*   1502 */	ldr	d1, [x0, x30, lsl #3]	//  (*)
	.loc 39 1502 0 is_stmt 1
..LDL967:
/*   1502 */	ldr	x1, [x1, x30, lsl #3]	//  (*)
	.loc 39 1503 0
..LDL968:
	.loc 39 1502 0 is_stmt 0
..LDL969:
/*   1502 */	ldr	d0, [x1]	//  (*)
	.loc 39 1503 0
..LDL970:
/*   1503 */	fmadd	d3, d1, d0, d12
/*   1503 */	frecpe	d2, d0
/*   1503 */	fmsub	d1, d0, d2, d15
/*   1503 */	fmul	d3, d3, d2
/*   1503 */	fmadd	d0, d1, d1, d1
/*   1503 */	fmul	d2, d1, d1
/*   1503 */	fmadd	d0, d0, d3, d3
/*   1503 */	fmadd	d1, d2, d2, d1
/*   1503 */	fmadd	d0, d1, d0, d3
/*   1503 */	str	d0, [x0, x30, lsl #3]	//  (*)
	.loc 39 1505 0 is_stmt 1
..LDL971:
/*   1505 */	ldr	x1, [x20, 24]	//  "matrixDiagonal"
	.loc 39 1506 0
..LDL972:
	.loc 39 1505 0 is_stmt 0
..LDL973:
/*   1505 */	ldr	d1, [x0, x12, lsl #3]	//  (*)
	.loc 39 1505 0 is_stmt 1
..LDL974:
/*   1505 */	ldr	x1, [x1, x12, lsl #3]	//  (*)
	.loc 39 1506 0
..LDL975:
	.loc 39 1505 0 is_stmt 0
..LDL976:
/*   1505 */	ldr	d0, [x1]	//  (*)
	.loc 39 1506 0
..LDL977:
/*   1506 */	fmadd	d2, d1, d0, d11
/*   1506 */	frecpe	d1, d0
/*   1506 */	fmsub	d0, d0, d1, d15
/*   1506 */	fmul	d1, d2, d1
/*   1506 */	fmadd	d3, d0, d0, d0
/*   1506 */	fmul	d2, d0, d0
/*   1506 */	fmadd	d3, d3, d1, d1
/*   1506 */	fmadd	d0, d2, d2, d0
/*   1506 */	fmadd	d0, d0, d3, d1
/*   1506 */	str	d0, [x0, x12, lsl #3]	//  (*)
	.loc 39 1507 0
..LDL978:
/*   1507 */	b	.L1543
.L1524:
	.loc 39 1507 0 is_stmt 1
..LDL979:
	.loc 39 1511 0 is_stmt 0
..LDL980:
/*   1511 */	add	x2, x0, 256
/*   1511 */	sxtw	x1, w10
	.loc 39 1507 0
..LDL981:
/*   1507 */	cmp	w3, 2
/*   1507 */	beq	.L1534
	.loc 39 1522 0 is_stmt 1
..LDL982:
/*   1522 */	ldr	x3, [x20, 16]	//  "rv"
	.loc 37 1506 0
..LDL983:
/*   1506 */	ldr	x2, [x2]	//  (*)
	.loc 39 1522 0
..LDL984:
/*   1522 */	ldr	d12, [x3, x12, lsl #3]	//  (*)
	.loc 39 1524 0
..LDL985:
/*   1524 */	ldr	w1, [x2, x1, lsl #2]	//  (*)
/*   1524 */	sub	w3, w1, 1
/*   1524 */	cmp	w1, 0
/*   1524 */	csel	w2, w1, wzr, ge
/*   1524 */	cmp	w3, 0
/*   1524 */	blt	.L1533
/*   1525 */	ldp	x0, x1, [x0, 64]	//  (*)
	.loc 39 1525 0 is_stmt 0
..LDL986:
/*   1525 */	sxtw	x9, w3
	.loc 39 1524 0
..LDL987:
/*   1524 */	asr	w3, w2, 2
/*   1524 */	add	w3, w2, w3, lsr #29
/*   1524 */	asr	w11, w3, 3
/*   1524 */	sub	w8, w2, w11, lsl #3
	.loc 39 1525 0
..LDL988:
/*   1525 */	ldr	x7, [x1, x12, lsl #3]	//  (*)
/*   1525 */	ldr	x6, [x0, x12, lsl #3]	//  (*)
	.loc 39 1524 0
..LDL989:
/*   1524 */	cbz	w11, .L1530
/*   1524 */	sub	w5, w11, 8
/*   1524 */	mov	x4, x9
/*   1524 */	mov	z0.d, z13.d
/*   1524 */	cmp	w5, 0
/*   1524 */	blt	.L1561
	.loc 39 1525 0
..LDL990:
/*   1525 */	ldr	x3, [x20, 8]	//  "xv"
/*   1525 */	lsl	x1, x9, 3
/*   1525 */	mov	z28.d, z13.d
/*   1525 */	mov	z27.d, z13.d
/*   1525 */	lsl	x2, x9, 2
/*   1525 */	sub	x0, x1, 192
/*   1525 */	mov	z23.d, z13.d
/*   1525 */	mov	z20.d, z13.d
/*   1525 */	mov	z17.d, z13.d
/*   1525 */	mov	z6.d, z13.d
/*   1525 */	add	x2, x2, x6
/*   1525 */	mov	z2.d, z13.d
/*   1525 */	mov	z0.d, z13.d
/*   1525 */	add	x1, x1, x7
/*   1525 */	add	x13, x0, x7
	.loc 39 1524 0
..LDL991:
/*   1524 */	cmp	w5, 16
/*   1524 */	blt	.L1727
	.loc 39 1525 0
..LDL992:
/*   1525 */	ld1sw	{z8.d}, p0/z, [x2, z29.d, lsl #2]	//  (*)
/*   1525 */	sub	x14, x2, 32
/*   1525 */	sub	x0, x2, 64
	.loc 39 1526 0
..LDL993:
/*   1526 */	mov	z1.d, z0.d
	.loc 39 1525 0
..LDL994:
/*   1525 */	ld1sw	{z9.d}, p0/z, [x14, z29.d, lsl #2]	//  (*)
/*   1525 */	sub	x16, x2, 96
/*   1525 */	sub	x14, x2, 128
	.loc 39 1526 0
..LDL995:
/*   1526 */	mov	z3.d, z2.d
	.loc 39 1525 0
..LDL996:
/*   1525 */	ld1sw	{z31.d}, p0/z, [x0, z29.d, lsl #2]	//  (*)
/*   1525 */	sub	x15, x2, 160
	.loc 39 1526 0
..LDL997:
/*   1526 */	mov	x0, x13
	.loc 39 1525 0
..LDL998:
/*   1525 */	ld1sw	{z30.d}, p0/z, [x16, z29.d, lsl #2]	//  (*)
/*   1525 */	ld1sw	{z24.d}, p0/z, [x14, z29.d, lsl #2]	//  (*)
/*   1525 */	ld1sw	{z10.d}, p0/z, [x15, z29.d, lsl #2]	//  (*)
	.p2align 5
.L1528:					// :entr:term:body:swpl
/*   1525 */	sub	x13, x2, 192
/*   1525 */	ld1sw	{z5.d}, p0/z, [x13, z29.d, lsl #2]	//  (*)
/*   1525 */	sub	x13, x2, 224
/*   1525 */	ld1sw	{z2.d}, p0/z, [x13, z29.d, lsl #2]	//  (*)
/*   1525 */	ld1d	{z11.d}, p0/z, [x3, z8.d, lsl #3]	//  (*)
/*   1525 */	ld1d	{z8.d}, p0/z, [x1, z29.d, lsl #3]	//  (*)
/*   1525 */	ld1d	{z21.d}, p0/z, [x3, z9.d, lsl #3]	//  (*)
/*   1525 */	sub	x13, x1, 64
/*   1525 */	ld1d	{z26.d}, p0/z, [x13, z29.d, lsl #3]	//  (*)
/*   1525 */	ld1d	{z18.d}, p0/z, [x3, z31.d, lsl #3]	//  (*)
/*   1525 */	sub	x13, x1, 128
/*   1525 */	ld1d	{z25.d}, p0/z, [x13, z29.d, lsl #3]	//  (*)
/*   1525 */	ld1d	{z7.d}, p0/z, [x3, z30.d, lsl #3]	//  (*)
/*   1525 */	ld1d	{z22.d}, p0/z, [x0, z29.d, lsl #3]	//  (*)
/*   1525 */	ld1d	{z4.d}, p0/z, [x3, z24.d, lsl #3]	//  (*)
/*   1525 */	sub	x13, x0, 64
/*   1525 */	ld1d	{z19.d}, p0/z, [x13, z29.d, lsl #3]	//  (*)
/*   1525 */	ld1d	{z0.d}, p0/z, [x3, z10.d, lsl #3]	//  (*)
/*   1525 */	sub	x13, x0, 128
/*   1525 */	ld1d	{z16.d}, p0/z, [x13, z29.d, lsl #3]	//  (*)
/*   1525 */	ld1d	{z31.d}, p0/z, [x3, z5.d, lsl #3]	//  (*)
/*   1525 */	sub	x13, x0, 192
/*   1525 */	ld1d	{z5.d}, p0/z, [x13, z29.d, lsl #3]	//  (*)
/*   1525 */	ld1d	{z9.d}, p0/z, [x3, z2.d, lsl #3]	//  (*)
/*   1525 */	sub	x13, x0, 256
/*   1525 */	ld1d	{z2.d}, p0/z, [x13, z29.d, lsl #3]	//  (*)
	.loc 39 1526 0
..LDL999:
/*   1526 */	sub	x13, x2, 256
	.loc 39 1525 0
..LDL1000:
/*   1525 */	ld1sw	{z30.d}, p0/z, [x13, z29.d, lsl #2]	//  (*)
/*   1525 */	sub	x13, x2, 288
/*   1525 */	ld1sw	{z10.d}, p0/z, [x13, z29.d, lsl #2]	//  (*)
/*   1525 */	sub	x13, x2, 320
/*   1525 */	ld1sw	{z24.d}, p0/z, [x13, z29.d, lsl #2]	//  (*)
/*   1525 */	fmsb	z11.d, p0/m, z8.d, z28.d
/*   1525 */	sub	x13, x2, 352
/*   1525 */	fmsb	z26.d, p0/m, z21.d, z27.d
/*   1525 */	ld1sw	{z21.d}, p0/z, [x13, z29.d, lsl #2]	//  (*)
/*   1525 */	fmsb	z25.d, p0/m, z18.d, z23.d
/*   1525 */	sub	x13, x2, 384
/*   1525 */	fmsb	z22.d, p0/m, z7.d, z20.d
/*   1525 */	ld1sw	{z7.d}, p0/z, [x13, z29.d, lsl #2]	//  (*)
/*   1525 */	fmsb	z19.d, p0/m, z4.d, z17.d
/*   1525 */	sub	x13, x2, 416
/*   1525 */	ld1sw	{z4.d}, p0/z, [x13, z29.d, lsl #2]	//  (*)
/*   1525 */	fmsb	z16.d, p0/m, z0.d, z6.d
	.loc 39 1526 0
..LDL1001:
/*   1526 */	sub	x13, x0, 512
/*   1526 */	sub	x14, x1, 512
	.loc 39 1525 0
..LDL1002:
/*   1525 */	fmsb	z5.d, p0/m, z31.d, z3.d
/*   1525 */	fmsb	z2.d, p0/m, z9.d, z1.d
/*   1525 */	sub	x15, x2, 448
/*   1525 */	ld1sw	{z1.d}, p0/z, [x15, z29.d, lsl #2]	//  (*)
/*   1525 */	sub	x15, x2, 480
/*   1525 */	ld1sw	{z0.d}, p0/z, [x15, z29.d, lsl #2]	//  (*)
/*   1525 */	ld1d	{z28.d}, p0/z, [x3, z30.d, lsl #3]	//  (*)
/*   1525 */	ld1d	{z27.d}, p0/z, [x14, z29.d, lsl #3]	//  (*)
/*   1525 */	ld1d	{z30.d}, p0/z, [x3, z10.d, lsl #3]	//  (*)
/*   1525 */	sub	x14, x1, 576
/*   1525 */	ld1d	{z10.d}, p0/z, [x14, z29.d, lsl #3]	//  (*)
/*   1525 */	ld1d	{z24.d}, p0/z, [x3, z24.d, lsl #3]	//  (*)
/*   1525 */	sub	x14, x1, 640
/*   1525 */	ld1d	{z23.d}, p0/z, [x14, z29.d, lsl #3]	//  (*)
/*   1525 */	ld1d	{z21.d}, p0/z, [x3, z21.d, lsl #3]	//  (*)
/*   1525 */	ld1d	{z20.d}, p0/z, [x13, z29.d, lsl #3]	//  (*)
/*   1525 */	ld1d	{z18.d}, p0/z, [x3, z7.d, lsl #3]	//  (*)
/*   1525 */	sub	x13, x0, 576
/*   1525 */	ld1d	{z17.d}, p0/z, [x13, z29.d, lsl #3]	//  (*)
/*   1525 */	ld1d	{z7.d}, p0/z, [x3, z4.d, lsl #3]	//  (*)
/*   1525 */	sub	x13, x0, 640
/*   1525 */	ld1d	{z6.d}, p0/z, [x13, z29.d, lsl #3]	//  (*)
/*   1525 */	ld1d	{z4.d}, p0/z, [x3, z1.d, lsl #3]	//  (*)
/*   1525 */	sub	x13, x0, 704
/*   1525 */	ld1d	{z3.d}, p0/z, [x13, z29.d, lsl #3]	//  (*)
/*   1525 */	ld1d	{z0.d}, p0/z, [x3, z0.d, lsl #3]	//  (*)
/*   1525 */	sub	x13, x0, 768
/*   1525 */	ld1d	{z1.d}, p0/z, [x13, z29.d, lsl #3]	//  (*)
	.loc 39 1526 0
..LDL1003:
/*   1526 */	sub	x2, x2, 512
	.loc 39 1525 0
..LDL1004:
/*   1525 */	ld1sw	{z8.d}, p0/z, [x2, z29.d, lsl #2]	//  (*)
/*   1525 */	sub	x13, x2, 32
/*   1525 */	ld1sw	{z9.d}, p0/z, [x13, z29.d, lsl #2]	//  (*)
/*   1525 */	sub	x13, x2, 64
/*   1525 */	ld1sw	{z31.d}, p0/z, [x13, z29.d, lsl #2]	//  (*)
/*   1525 */	fmsb	z28.d, p0/m, z27.d, z11.d
/*   1525 */	sub	x13, x2, 96
/*   1525 */	movprfx	z27.d, p0/z, z26.d
/*   1525 */	fmls	z27.d, p0/m, z10.d, z30.d
/*   1525 */	ld1sw	{z30.d}, p0/z, [x13, z29.d, lsl #2]	//  (*)
/*   1525 */	fmsb	z23.d, p0/m, z24.d, z25.d
/*   1525 */	sub	x13, x2, 128
/*   1525 */	fmsb	z20.d, p0/m, z21.d, z22.d
/*   1525 */	ld1sw	{z24.d}, p0/z, [x13, z29.d, lsl #2]	//  (*)
/*   1525 */	fmsb	z17.d, p0/m, z18.d, z19.d
/*   1525 */	sub	x13, x2, 160
	.loc 39 1524 0
..LDL1005:
/*   1524 */	sub	x4, x4, 128
	.loc 39 1525 0
..LDL1006:
/*   1525 */	ld1sw	{z10.d}, p0/z, [x13, z29.d, lsl #2]	//  (*)
/*   1525 */	fmsb	z6.d, p0/m, z7.d, z16.d
	.loc 39 1526 0
..LDL1007:
/*   1526 */	sub	x0, x0, 1024
/*   1526 */	sub	x1, x1, 1024
	.loc 39 1525 0
..LDL1008:
/*   1525 */	fmsb	z3.d, p0/m, z4.d, z5.d
/*   1525 */	fmsb	z1.d, p0/m, z0.d, z2.d
	.loc 39 1526 0
..LDL1009:
/*   1526 */	sub	w5, w5, 16
	.loc 39 1524 0
..LDL1010:
/*   1524 */	cmp	w5, 16
/*   1524 */	bge	.L1528
	.loc 39 1525 0
..LDL1011:
/*   1525 */	sub	x13, x2, 192
/*   1525 */	sub	x14, x2, 224
/*   1525 */	ld1d	{z21.d}, p0/z, [x3, z8.d, lsl #3]	//  (*)
/*   1525 */	ld1sw	{z8.d}, p0/z, [x13, z29.d, lsl #2]	//  (*)
/*   1525 */	sub	x13, x1, 64
/*   1525 */	sub	x17, x1, 128
/*   1525 */	ld1sw	{z26.d}, p0/z, [x14, z29.d, lsl #2]	//  (*)
/*   1525 */	sub	x14, x0, 64
/*   1525 */	sub	x16, x0, 128
/*   1525 */	sub	x18, x0, 192
/*   1525 */	sub	x15, x0, 256
/*   1525 */	ld1d	{z7.d}, p0/z, [x3, z31.d, lsl #3]	//  (*)
	.loc 39 1526 0
..LDL1012:
/*   1526 */	sub	x2, x2, 256
/*   1526 */	sub	w5, w5, 8
	.loc 39 1525 0
..LDL1013:
/*   1525 */	ld1d	{z4.d}, p0/z, [x3, z30.d, lsl #3]	//  (*)
	.loc 39 1524 0
..LDL1014:
/*   1524 */	sub	x4, x4, 64
	.loc 39 1526 0
..LDL1015:
/*   1526 */	cmp	w5, 0
	.loc 39 1525 0
..LDL1016:
/*   1525 */	ld1d	{z25.d}, p0/z, [x3, z24.d, lsl #3]	//  (*)
/*   1525 */	ld1d	{z22.d}, p0/z, [x1, z29.d, lsl #3]	//  (*)
	.loc 39 1526 0
..LDL1017:
/*   1526 */	sub	x1, x1, 512
	.loc 39 1525 0
..LDL1018:
/*   1525 */	ld1d	{z18.d}, p0/z, [x3, z9.d, lsl #3]	//  (*)
/*   1525 */	ld1d	{z19.d}, p0/z, [x13, z29.d, lsl #3]	//  (*)
	.loc 39 1526 0
..LDL1019:
/*   1526 */	sub	x13, x0, 512
	.loc 39 1525 0
..LDL1020:
/*   1525 */	ld1d	{z16.d}, p0/z, [x17, z29.d, lsl #3]	//  (*)
/*   1525 */	ld1d	{z5.d}, p0/z, [x0, z29.d, lsl #3]	//  (*)
/*   1525 */	ld1d	{z24.d}, p0/z, [x14, z29.d, lsl #3]	//  (*)
/*   1525 */	ld1d	{z30.d}, p0/z, [x3, z10.d, lsl #3]	//  (*)
/*   1525 */	ld1d	{z31.d}, p0/z, [x16, z29.d, lsl #3]	//  (*)
/*   1525 */	ld1d	{z2.d}, p0/z, [x18, z29.d, lsl #3]	//  (*)
/*   1525 */	ld1d	{z0.d}, p0/z, [x15, z29.d, lsl #3]	//  (*)
/*   1525 */	ld1d	{z8.d}, p0/z, [x3, z8.d, lsl #3]	//  (*)
/*   1525 */	ld1d	{z26.d}, p0/z, [x3, z26.d, lsl #3]	//  (*)
/*   1525 */	fmls	z28.d, p0/m, z22.d, z21.d
/*   1525 */	fmls	z27.d, p0/m, z19.d, z18.d
/*   1525 */	fmls	z23.d, p0/m, z16.d, z7.d
/*   1525 */	fmls	z20.d, p0/m, z5.d, z4.d
/*   1525 */	fmls	z17.d, p0/m, z24.d, z25.d
/*   1525 */	fmls	z6.d, p0/m, z31.d, z30.d
/*   1525 */	fmsb	z2.d, p0/m, z8.d, z3.d
/*   1525 */	fmsb	z0.d, p0/m, z26.d, z1.d
	.loc 39 1526 0
..LDL1021:
/*   1526 */	blt	.L1724
.L1727:
	.p2align 5
.L1730:					// :entr:term:mod:swpl
	.loc 39 1525 0 is_stmt 1
..LDL1022:
/*   1525 */	sub	x0, x1, 64
/*   1525 */	sub	x16, x2, 32
/*   1525 */	ld1sw	{z1.d}, p0/z, [x2, z29.d, lsl #2]	//  (*)
/*   1525 */	sub	x17, x2, 128
/*   1525 */	sub	x15, x2, 96
/*   1525 */	ld1sw	{z3.d}, p0/z, [x16, z29.d, lsl #2]	//  (*)
/*   1525 */	sub	x14, x1, 128
/*   1525 */	sub	x18, x2, 64
/*   1525 */	ld1d	{z21.d}, p0/z, [x1, z29.d, lsl #3]	//  (*)
	.loc 39 1524 0 is_stmt 0
..LDL1023:
/*   1524 */	sub	x4, x4, 64
	.loc 39 1525 0
..LDL1024:
/*   1525 */	ld1sw	{z19.d}, p0/z, [x17, z29.d, lsl #2]	//  (*)
	.loc 39 1526 0
..LDL1025:
/*   1526 */	sub	x1, x1, 512
	.loc 39 1525 0
..LDL1026:
/*   1525 */	ld1sw	{z7.d}, p0/z, [x15, z29.d, lsl #2]	//  (*)
	.loc 39 1526 0
..LDL1027:
/*   1526 */	subs	w5, w5, 8
	.loc 39 1525 0
..LDL1028:
/*   1525 */	ld1sw	{z5.d}, p0/z, [x18, z29.d, lsl #2]	//  (*)
/*   1525 */	ld1d	{z18.d}, p0/z, [x14, z29.d, lsl #3]	//  (*)
/*   1525 */	ld1d	{z1.d}, p0/z, [x3, z1.d, lsl #3]	//  (*)
/*   1525 */	ld1d	{z4.d}, p0/z, [x3, z3.d, lsl #3]	//  (*)
/*   1525 */	ld1d	{z3.d}, p0/z, [x0, z29.d, lsl #3]	//  (*)
/*   1525 */	sub	x0, x13, 64
/*   1525 */	ld1d	{z19.d}, p0/z, [x3, z19.d, lsl #3]	//  (*)
/*   1525 */	ld1d	{z16.d}, p0/z, [x3, z7.d, lsl #3]	//  (*)
/*   1525 */	ld1d	{z5.d}, p0/z, [x3, z5.d, lsl #3]	//  (*)
/*   1525 */	ld1d	{z7.d}, p0/z, [x13, z29.d, lsl #3]	//  (*)
/*   1525 */	fmls	z28.d, p0/m, z21.d, z1.d
/*   1525 */	ld1d	{z1.d}, p0/z, [x0, z29.d, lsl #3]	//  (*)
/*   1525 */	sub	x0, x2, 160
/*   1525 */	fmls	z27.d, p0/m, z3.d, z4.d
/*   1525 */	fmls	z23.d, p0/m, z18.d, z5.d
/*   1525 */	fmls	z20.d, p0/m, z7.d, z16.d
/*   1525 */	fmls	z17.d, p0/m, z1.d, z19.d
/*   1525 */	ld1sw	{z1.d}, p0/z, [x0, z29.d, lsl #2]	//  (*)
/*   1525 */	sub	x0, x13, 128
/*   1525 */	ld1d	{z3.d}, p0/z, [x0, z29.d, lsl #3]	//  (*)
/*   1525 */	sub	x0, x2, 192
/*   1525 */	ld1d	{z4.d}, p0/z, [x3, z1.d, lsl #3]	//  (*)
/*   1525 */	ld1sw	{z1.d}, p0/z, [x0, z29.d, lsl #2]	//  (*)
/*   1525 */	sub	x0, x13, 192
/*   1525 */	fmls	z6.d, p0/m, z3.d, z4.d
/*   1525 */	ld1d	{z3.d}, p0/z, [x0, z29.d, lsl #3]	//  (*)
/*   1525 */	sub	x0, x2, 224
	.loc 39 1526 0
..LDL1029:
/*   1526 */	sub	x2, x2, 256
	.loc 39 1525 0
..LDL1030:
/*   1525 */	ld1d	{z4.d}, p0/z, [x3, z1.d, lsl #3]	//  (*)
/*   1525 */	ld1sw	{z1.d}, p0/z, [x0, z29.d, lsl #2]	//  (*)
/*   1525 */	sub	x0, x13, 256
	.loc 39 1526 0
..LDL1031:
/*   1526 */	sub	x13, x13, 512
	.loc 39 1525 0
..LDL1032:
/*   1525 */	fmls	z2.d, p0/m, z3.d, z4.d
/*   1525 */	ld1d	{z3.d}, p0/z, [x3, z1.d, lsl #3]	//  (*)
/*   1525 */	ld1d	{z1.d}, p0/z, [x0, z29.d, lsl #3]	//  (*)
/*   1525 */	fmls	z0.d, p0/m, z1.d, z3.d
	.loc 39 1526 0
..LDL1033:
/*   1526 */	bpl	.L1730
.L1724:
	.loc 39 1525 0
..LDL1034:
/*   1525 */	fadd	z0.d, z0.d, z2.d
/*   1525 */	fadd	z1.d, z6.d, z17.d
/*   1525 */	fadd	z2.d, z20.d, z23.d
/*   1525 */	fadd	z3.d, z28.d, z27.d
/*   1525 */	fadd	z0.d, z1.d, z0.d
/*   1525 */	fadd	z1.d, z3.d, z2.d
/*   1525 */	fadd	z0.d, z1.d, z0.d
.L1561:
	.loc 39 1524 0 is_stmt 1
..LDL1035:
/*   1524 */	adds	w2, w5, 7
/*   1524 */	bmi	.L1529
	.loc 39 1525 0 is_stmt 0
..LDL1036:
/*   1525 */	ldr	x0, [x20, 8]	//  "xv"
	.p2align 5
.L1573:					// :entr:term:mod
	.loc 39 1525 0 is_stmt 1
..LDL1037:
/*   1525 */	index	z1.d, 0, -1
/*   1525 */	mov	x3, x4
	.loc 39 1524 0 is_stmt 0
..LDL1038:
/*   1524 */	sub	x4, x4, 8
	.loc 39 1525 0
..LDL1039:
/*   1525 */	add	x1, x6, x3, lsl #2
	.loc 39 1526 0
..LDL1040:
/*   1526 */	subs	w2, w2, 1
	.loc 39 1525 0
..LDL1041:
/*   1525 */	add	x3, x7, x3, lsl #3
/*   1525 */	ld1sw	{z2.d}, p0/z, [x1, z1.d, lsl #2]	//  (*)
/*   1525 */	ld1d	{z1.d}, p0/z, [x3, z1.d, lsl #3]	//  (*)
/*   1525 */	ld1d	{z2.d}, p0/z, [x0, z2.d, lsl #3]	//  (*)
/*   1525 */	fmls	z0.d, p0/m, z1.d, z2.d
	.loc 39 1524 0
..LDL1042:
/*   1524 */	bpl	.L1573
.L1529:
	.loc 39 1525 0
..LDL1043:
/*   1525 */	movprfx	z1, z0
/*   1525 */	ext	z1.b, z1.b, z0.b, 32
/*   1525 */	fadd	z1.d, z1.d, z0.d
/*   1525 */	movprfx	z0, z1
/*   1525 */	ext	z0.b, z0.b, z1.b, 16
/*   1525 */	fadd	z1.d, z1.d, z0.d
/*   1525 */	movprfx	z0, z1
/*   1525 */	ext	z0.b, z0.b, z1.b, 8
/*   1525 */	fadd	z0.d, z1.d, z0.d
/*   1525 */	fadd	d12, d12, d0
.L1530:
	.loc 39 1524 0 is_stmt 1
..LDL1044:
/*   1524 */	sbfiz	x0, x11, 3, 32
/*   1524 */	sub	x0, x24, x0
/*   1524 */	add	x0, x0, x9
/*   1524 */	cbz	w8, .L1533
/*   1524 */	whilelt	p1.d, wzr, w8
	.loc 39 1525 0
..LDL1045:
/*   1525 */	ldr	x1, [x20, 8]	//  "xv"
/*   1525 */	add	x2, x6, x0, lsl #2
/*   1525 */	add	x0, x7, x0, lsl #3
/*   1525 */	ld1sw	{z0.d}, p1/z, [x2, z29.d, lsl #2]	//  (*)
/*   1525 */	ld1d	{z1.d}, p1/z, [x0, z29.d, lsl #3]	//  (*)
/*   1525 */	ld1d	{z0.d}, p1/z, [x1, z0.d, lsl #3]	//  (*)
/*   1525 */	fmsb	z1.d, p1/m, z0.d, z13.d
/*   1525 */	sel	z1.d, p1, z1.d, z13.d
/*   1525 */	movprfx	z0, z1
/*   1525 */	ext	z0.b, z0.b, z1.b, 32
/*   1525 */	fadd	z0.d, z1.d, z0.d
/*   1525 */	movprfx	z1, z0
/*   1525 */	ext	z1.b, z1.b, z0.b, 16
/*   1525 */	fadd	z1.d, z0.d, z1.d
/*   1525 */	movprfx	z0, z1
/*   1525 */	ext	z0.b, z0.b, z1.b, 8
/*   1525 */	fadd	z0.d, z1.d, z0.d
/*   1525 */	fadd	d12, d12, d0
.L1533:
	.loc 39 1529 0
..LDL1046:
	.loc 39 1528 0 is_stmt 0
..LDL1047:
/*   1528 */	ldr	x0, [x20, 8]	//  "xv"
/*   1528 */	ldr	x1, [x20, 24]	//  "matrixDiagonal"
/*   1528 */	ldr	x1, [x1, x12, lsl #3]	//  (*)
/*   1528 */	ldr	d1, [x0, x12, lsl #3]	//  (*)
/*   1528 */	ldr	d0, [x1]	//  (*)
	.loc 39 1529 0
..LDL1048:
/*   1529 */	fmadd	d2, d1, d0, d12
/*   1529 */	frecpe	d1, d0
/*   1529 */	fmsub	d0, d0, d1, d15
/*   1529 */	fmul	d1, d2, d1
/*   1529 */	fmadd	d3, d0, d0, d0
/*   1529 */	fmul	d2, d0, d0
/*   1529 */	fmadd	d3, d3, d1, d1
/*   1529 */	fmadd	d0, d2, d2, d0
/*   1529 */	fmadd	d0, d0, d3, d1
/*   1529 */	str	d0, [x0, x12, lsl #3]	//  (*)
	.loc 39 1530 0
..LDL1049:
/*   1530 */	b	.L1543
.L1534:
	.loc 39 1508 0 is_stmt 1
..LDL1050:
/*   1508 */	ldr	x3, [x20, 16]	//  "rv"
/*   1508 */	sub	x7, x12, 1
	.loc 37 1506 0
..LDL1051:
/*   1506 */	ldr	x2, [x2]	//  (*)
	.loc 39 1508 0
..LDL1052:
/*   1508 */	ldr	d0, [x3, x7, lsl #3]	//  (*)
	.loc 39 1511 0
..LDL1053:
/*   1511 */	ldr	w1, [x2, x1, lsl #2]	//  (*)
/*   1511 */	cmp	w1, 0
/*   1511 */	csel	w2, w1, wzr, ge
	.loc 39 1508 0
..LDL1054:
/*    ??? */	str	d0, [x19, 24]	//  (*)
	.loc 39 1509 0
..LDL1055:
/*   1509 */	ldr	d0, [x3, x12, lsl #3]	//  (*)
	.loc 39 1511 0
..LDL1056:
/*   1511 */	sub	w3, w1, 1
/*   1511 */	cmp	w3, 0
	.loc 39 1509 0
..LDL1057:
/*    ??? */	str	d0, [x19, 16]	//  (*)
	.loc 39 1511 0
..LDL1058:
/*   1511 */	blt	.L1542
/*   1512 */	ldp	x0, x1, [x0, 64]	//  (*)
	.loc 39 1512 0 is_stmt 0
..LDL1059:
/*   1512 */	sxtw	x15, w3
	.loc 39 1511 0
..LDL1060:
/*   1511 */	asr	w3, w2, 2
/*   1511 */	add	w3, w2, w3, lsr #29
/*   1511 */	asr	w16, w3, 3
/*   1511 */	sub	w14, w2, w16, lsl #3
	.loc 39 1512 0
..LDL1061:
/*   1512 */	ldr	x11, [x1, x7, lsl #3]	//  (*)
/*   1512 */	ldr	x8, [x0, x7, lsl #3]	//  (*)
	.loc 39 1513 0
..LDL1062:
/*   1513 */	ldr	x13, [x1, x12, lsl #3]	//  (*)
/*   1513 */	ldr	x9, [x0, x12, lsl #3]	//  (*)
	.loc 39 1511 0
..LDL1063:
/*   1511 */	cbz	w16, .L1539
/*   1511 */	sub	w6, w16, 4
/*   1511 */	mov	x5, x15
/*   1511 */	mov	z1.d, z13.d
/*   1511 */	mov	z0.d, z13.d
/*   1511 */	cmp	w6, 0
/*   1511 */	blt	.L1551
	.loc 39 1512 0
..LDL1064:
/*   1512 */	ldr	x3, [x20, 8]	//  "xv"
/*   1512 */	lsl	x1, x15, 2
	.loc 39 1513 0
..LDL1065:
/*   1513 */	mov	z24.d, z13.d
/*   1513 */	mov	z25.d, z13.d
	.loc 39 1512 0
..LDL1066:
/*   1512 */	lsl	x0, x15, 3
	.loc 39 1513 0
..LDL1067:
/*   1513 */	mov	z23.d, z13.d
/*   1513 */	mov	z21.d, z13.d
	.loc 39 1512 0
..LDL1068:
/*   1512 */	add	x2, x1, x8
	.loc 39 1513 0
..LDL1069:
/*   1513 */	mov	z17.d, z13.d
/*   1513 */	mov	z6.d, z13.d
	.loc 39 1512 0
..LDL1070:
/*   1512 */	add	x4, x0, x11
	.loc 39 1513 0
..LDL1071:
/*   1513 */	add	x1, x1, x9
/*   1513 */	mov	z3.d, z13.d
/*   1513 */	mov	z1.d, z13.d
/*   1513 */	add	x0, x0, x13
	.loc 39 1511 0
..LDL1072:
/*   1511 */	cmp	w6, 8
/*   1511 */	blt	.L1738
	.loc 39 1512 0
..LDL1073:
/*   1512 */	ld1sw	{z8.d}, p0/z, [x2, z29.d, lsl #2]	//  (*)
/*   1512 */	sub	x17, x2, 32
	.loc 39 1513 0
..LDL1074:
/*   1513 */	sub	x18, x1, 64
	.loc 39 1512 0
..LDL1075:
/*   1512 */	ld1sw	{z27.d}, p0/z, [x17, z29.d, lsl #2]	//  (*)
	.loc 39 1513 0
..LDL1076:
/*   1513 */	sub	x17, x1, 32
/*   1513 */	ld1sw	{z26.d}, p0/z, [x17, z29.d, lsl #2]	//  (*)
	.loc 39 1512 0
..LDL1077:
/*   1512 */	sub	x17, x2, 64
	.loc 39 1513 0
..LDL1078:
/*   1513 */	ld1sw	{z31.d}, p0/z, [x1, z29.d, lsl #2]	//  (*)
	.loc 39 1512 0
..LDL1079:
/*   1512 */	ld1sw	{z28.d}, p0/z, [x17, z29.d, lsl #2]	//  (*)
	.loc 39 1513 0
..LDL1080:
/*   1513 */	ld1sw	{z30.d}, p0/z, [x18, z29.d, lsl #2]	//  (*)
	.p2align 5
.L1537:					// :entr:term:body:swpl
	.loc 39 1512 0
..LDL1081:
/*   1512 */	sub	x17, x2, 96
/*   1512 */	ld1sw	{z2.d}, p0/z, [x17, z29.d, lsl #2]	//  (*)
	.loc 39 1513 0
..LDL1082:
/*   1513 */	sub	x17, x1, 96
/*   1513 */	ld1sw	{z0.d}, p0/z, [x17, z29.d, lsl #2]	//  (*)
	.loc 39 1512 0
..LDL1083:
/*   1512 */	ld1d	{z11.d}, p0/z, [x3, z8.d, lsl #3]	//  (*)
/*   1512 */	ld1d	{z10.d}, p0/z, [x4, z29.d, lsl #3]	//  (*)
	.loc 39 1513 0
..LDL1084:
/*   1513 */	ld1d	{z8.d}, p0/z, [x3, z31.d, lsl #3]	//  (*)
/*   1513 */	ld1d	{z9.d}, p0/z, [x0, z29.d, lsl #3]	//  (*)
	.loc 39 1512 0
..LDL1085:
/*   1512 */	ld1d	{z27.d}, p0/z, [x3, z27.d, lsl #3]	//  (*)
/*   1512 */	sub	x17, x4, 64
/*   1512 */	ld1d	{z22.d}, p0/z, [x17, z29.d, lsl #3]	//  (*)
	.loc 39 1513 0
..LDL1086:
/*   1513 */	ld1d	{z26.d}, p0/z, [x3, z26.d, lsl #3]	//  (*)
/*   1513 */	sub	x17, x0, 64
/*   1513 */	ld1d	{z20.d}, p0/z, [x17, z29.d, lsl #3]	//  (*)
	.loc 39 1512 0
..LDL1087:
/*   1512 */	ld1d	{z18.d}, p0/z, [x3, z28.d, lsl #3]	//  (*)
/*   1512 */	sub	x17, x4, 128
/*   1512 */	ld1d	{z19.d}, p0/z, [x17, z29.d, lsl #3]	//  (*)
	.loc 39 1513 0
..LDL1088:
/*   1513 */	ld1d	{z7.d}, p0/z, [x3, z30.d, lsl #3]	//  (*)
/*   1513 */	sub	x17, x0, 128
/*   1513 */	ld1d	{z16.d}, p0/z, [x17, z29.d, lsl #3]	//  (*)
	.loc 39 1512 0
..LDL1089:
/*   1512 */	ld1d	{z4.d}, p0/z, [x3, z2.d, lsl #3]	//  (*)
/*   1512 */	sub	x17, x4, 192
/*   1512 */	ld1d	{z5.d}, p0/z, [x17, z29.d, lsl #3]	//  (*)
	.loc 39 1513 0
..LDL1090:
/*   1513 */	ld1d	{z0.d}, p0/z, [x3, z0.d, lsl #3]	//  (*)
/*   1513 */	sub	x17, x0, 192
/*   1513 */	ld1d	{z2.d}, p0/z, [x17, z29.d, lsl #3]	//  (*)
	.loc 39 1514 0
..LDL1091:
/*   1514 */	sub	x17, x2, 128
	.loc 39 1512 0
..LDL1092:
/*   1512 */	ld1sw	{z28.d}, p0/z, [x17, z29.d, lsl #2]	//  (*)
	.loc 39 1514 0
..LDL1093:
/*   1514 */	sub	x17, x1, 128
	.loc 39 1513 0
..LDL1094:
/*   1513 */	ld1sw	{z30.d}, p0/z, [x17, z29.d, lsl #2]	//  (*)
	.loc 39 1512 0
..LDL1095:
/*   1512 */	sub	x17, x2, 160
/*   1512 */	ld1sw	{z31.d}, p0/z, [x17, z29.d, lsl #2]	//  (*)
/*   1512 */	movprfx	z12.d, p0/z, z24.d
/*   1512 */	fmls	z12.d, p0/m, z10.d, z11.d
	.loc 39 1513 0
..LDL1096:
/*   1513 */	sub	x17, x1, 160
/*   1513 */	ld1sw	{z24.d}, p0/z, [x17, z29.d, lsl #2]	//  (*)
/*   1513 */	movprfx	z11.d, p0/z, z25.d
/*   1513 */	fmls	z11.d, p0/m, z9.d, z8.d
	.loc 39 1512 0
..LDL1097:
/*   1512 */	fmsb	z22.d, p0/m, z27.d, z23.d
	.loc 39 1513 0
..LDL1098:
/*   1513 */	fmsb	z20.d, p0/m, z26.d, z21.d
	.loc 39 1512 0
..LDL1099:
/*   1512 */	sub	x18, x2, 192
	.loc 39 1513 0
..LDL1100:
/*   1513 */	sub	x17, x1, 192
	.loc 39 1512 0
..LDL1101:
/*   1512 */	ld1sw	{z27.d}, p0/z, [x18, z29.d, lsl #2]	//  (*)
/*   1512 */	fmsb	z19.d, p0/m, z18.d, z17.d
	.loc 39 1514 0
..LDL1102:
/*   1514 */	sub	x30, x0, 256
	.loc 39 1513 0
..LDL1103:
/*   1513 */	ld1sw	{z8.d}, p0/z, [x17, z29.d, lsl #2]	//  (*)
/*   1513 */	fmsb	z16.d, p0/m, z7.d, z6.d
	.loc 39 1514 0
..LDL1104:
/*   1514 */	sub	x17, x4, 256
	.loc 39 1512 0
..LDL1105:
/*   1512 */	fmsb	z5.d, p0/m, z4.d, z3.d
	.loc 39 1513 0
..LDL1106:
/*   1513 */	fmsb	z2.d, p0/m, z0.d, z1.d
	.loc 39 1512 0
..LDL1107:
/*   1512 */	sub	x18, x2, 224
/*   1512 */	ld1sw	{z1.d}, p0/z, [x18, z29.d, lsl #2]	//  (*)
	.loc 39 1513 0
..LDL1108:
/*   1513 */	sub	x18, x1, 224
/*   1513 */	ld1sw	{z0.d}, p0/z, [x18, z29.d, lsl #2]	//  (*)
	.loc 39 1512 0
..LDL1109:
/*   1512 */	ld1d	{z26.d}, p0/z, [x3, z28.d, lsl #3]	//  (*)
/*   1512 */	ld1d	{z10.d}, p0/z, [x17, z29.d, lsl #3]	//  (*)
	.loc 39 1513 0
..LDL1110:
/*   1513 */	ld1d	{z9.d}, p0/z, [x3, z30.d, lsl #3]	//  (*)
/*   1513 */	ld1d	{z25.d}, p0/z, [x30, z29.d, lsl #3]	//  (*)
	.loc 39 1512 0
..LDL1111:
/*   1512 */	ld1d	{z30.d}, p0/z, [x3, z31.d, lsl #3]	//  (*)
/*   1512 */	sub	x17, x4, 320
/*   1512 */	ld1d	{z23.d}, p0/z, [x17, z29.d, lsl #3]	//  (*)
	.loc 39 1513 0
..LDL1112:
/*   1513 */	ld1d	{z28.d}, p0/z, [x3, z24.d, lsl #3]	//  (*)
/*   1513 */	sub	x17, x0, 320
/*   1513 */	ld1d	{z21.d}, p0/z, [x17, z29.d, lsl #3]	//  (*)
	.loc 39 1512 0
..LDL1113:
/*   1512 */	ld1d	{z18.d}, p0/z, [x3, z27.d, lsl #3]	//  (*)
/*   1512 */	sub	x17, x4, 384
/*   1512 */	ld1d	{z17.d}, p0/z, [x17, z29.d, lsl #3]	//  (*)
	.loc 39 1513 0
..LDL1114:
/*   1513 */	ld1d	{z7.d}, p0/z, [x3, z8.d, lsl #3]	//  (*)
/*   1513 */	sub	x17, x0, 384
/*   1513 */	ld1d	{z6.d}, p0/z, [x17, z29.d, lsl #3]	//  (*)
	.loc 39 1512 0
..LDL1115:
/*   1512 */	ld1d	{z4.d}, p0/z, [x3, z1.d, lsl #3]	//  (*)
/*   1512 */	sub	x17, x4, 448
/*   1512 */	ld1d	{z3.d}, p0/z, [x17, z29.d, lsl #3]	//  (*)
	.loc 39 1513 0
..LDL1116:
/*   1513 */	ld1d	{z0.d}, p0/z, [x3, z0.d, lsl #3]	//  (*)
/*   1513 */	sub	x17, x0, 448
/*   1513 */	ld1d	{z1.d}, p0/z, [x17, z29.d, lsl #3]	//  (*)
	.loc 39 1514 0
..LDL1117:
/*   1514 */	sub	x2, x2, 256
	.loc 39 1512 0
..LDL1118:
/*   1512 */	ld1sw	{z8.d}, p0/z, [x2, z29.d, lsl #2]	//  (*)
	.loc 39 1514 0
..LDL1119:
/*   1514 */	sub	x1, x1, 256
	.loc 39 1513 0
..LDL1120:
/*   1513 */	ld1sw	{z31.d}, p0/z, [x1, z29.d, lsl #2]	//  (*)
	.loc 39 1512 0
..LDL1121:
/*   1512 */	sub	x17, x2, 32
/*   1512 */	ld1sw	{z27.d}, p0/z, [x17, z29.d, lsl #2]	//  (*)
/*   1512 */	movprfx	z24.d, p0/z, z12.d
/*   1512 */	fmls	z24.d, p0/m, z10.d, z26.d
	.loc 39 1513 0
..LDL1122:
/*   1513 */	sub	x17, x1, 32
/*   1513 */	ld1sw	{z26.d}, p0/z, [x17, z29.d, lsl #2]	//  (*)
/*   1513 */	fmsb	z25.d, p0/m, z9.d, z11.d
	.loc 39 1512 0
..LDL1123:
/*   1512 */	fmsb	z23.d, p0/m, z30.d, z22.d
	.loc 39 1513 0
..LDL1124:
/*   1513 */	fmsb	z21.d, p0/m, z28.d, z20.d
	.loc 39 1512 0
..LDL1125:
/*   1512 */	sub	x17, x2, 64
	.loc 39 1513 0
..LDL1126:
/*   1513 */	sub	x18, x1, 64
	.loc 39 1512 0
..LDL1127:
/*   1512 */	ld1sw	{z28.d}, p0/z, [x17, z29.d, lsl #2]	//  (*)
/*   1512 */	fmsb	z17.d, p0/m, z18.d, z19.d
	.loc 39 1511 0
..LDL1128:
/*   1511 */	sub	x5, x5, 64
	.loc 39 1514 0
..LDL1129:
/*   1514 */	sub	x0, x0, 512
	.loc 39 1513 0
..LDL1130:
/*   1513 */	ld1sw	{z30.d}, p0/z, [x18, z29.d, lsl #2]	//  (*)
/*   1513 */	fmsb	z6.d, p0/m, z7.d, z16.d
	.loc 39 1514 0
..LDL1131:
/*   1514 */	sub	x4, x4, 512
	.loc 39 1512 0
..LDL1132:
/*   1512 */	fmsb	z3.d, p0/m, z4.d, z5.d
	.loc 39 1513 0
..LDL1133:
/*   1513 */	fmsb	z1.d, p0/m, z0.d, z2.d
	.loc 39 1514 0
..LDL1134:
/*   1514 */	sub	w6, w6, 8
	.loc 39 1511 0
..LDL1135:
/*   1511 */	cmp	w6, 8
/*   1511 */	bge	.L1537
	.loc 39 1512 0
..LDL1136:
/*   1512 */	sub	x17, x2, 96
/*   1512 */	ld1d	{z10.d}, p0/z, [x3, z8.d, lsl #3]	//  (*)
	.loc 39 1514 0
..LDL1137:
/*   1514 */	sub	w6, w6, 4
	.loc 39 1512 0
..LDL1138:
/*   1512 */	ld1sw	{z2.d}, p0/z, [x17, z29.d, lsl #2]	//  (*)
	.loc 39 1513 0
..LDL1139:
/*   1513 */	sub	x17, x1, 96
	.loc 39 1514 0
..LDL1140:
/*   1514 */	sub	x2, x2, 128
	.loc 39 1513 0
..LDL1141:
/*   1513 */	ld1sw	{z0.d}, p0/z, [x17, z29.d, lsl #2]	//  (*)
	.loc 39 1512 0
..LDL1142:
/*   1512 */	sub	x17, x4, 64
	.loc 39 1514 0
..LDL1143:
/*   1514 */	sub	x1, x1, 128
	.loc 39 1513 0
..LDL1144:
/*   1513 */	ld1d	{z8.d}, p0/z, [x3, z31.d, lsl #3]	//  (*)
	.loc 39 1511 0
..LDL1145:
/*   1511 */	sub	x5, x5, 32
	.loc 39 1514 0
..LDL1146:
/*   1514 */	cmp	w6, 0
	.loc 39 1512 0
..LDL1147:
/*   1512 */	ld1d	{z31.d}, p0/z, [x17, z29.d, lsl #3]	//  (*)
	.loc 39 1513 0
..LDL1148:
/*   1513 */	sub	x17, x0, 64
/*   1513 */	ld1d	{z22.d}, p0/z, [x17, z29.d, lsl #3]	//  (*)
	.loc 39 1512 0
..LDL1149:
/*   1512 */	sub	x17, x4, 128
/*   1512 */	ld1d	{z19.d}, p0/z, [x17, z29.d, lsl #3]	//  (*)
	.loc 39 1513 0
..LDL1150:
/*   1513 */	sub	x17, x0, 128
/*   1513 */	ld1d	{z16.d}, p0/z, [x17, z29.d, lsl #3]	//  (*)
	.loc 39 1512 0
..LDL1151:
/*   1512 */	sub	x17, x4, 192
/*   1512 */	ld1d	{z5.d}, p0/z, [x17, z29.d, lsl #3]	//  (*)
	.loc 39 1513 0
..LDL1152:
/*   1513 */	sub	x17, x0, 192
	.loc 39 1512 0
..LDL1153:
/*   1512 */	ld1d	{z11.d}, p0/z, [x4, z29.d, lsl #3]	//  (*)
	.loc 39 1514 0
..LDL1154:
/*   1514 */	sub	x4, x4, 256
	.loc 39 1513 0
..LDL1155:
/*   1513 */	ld1d	{z9.d}, p0/z, [x0, z29.d, lsl #3]	//  (*)
	.loc 39 1514 0
..LDL1156:
/*   1514 */	sub	x0, x0, 256
	.loc 39 1512 0
..LDL1157:
/*   1512 */	ld1d	{z27.d}, p0/z, [x3, z27.d, lsl #3]	//  (*)
	.loc 39 1513 0
..LDL1158:
/*   1513 */	ld1d	{z20.d}, p0/z, [x3, z26.d, lsl #3]	//  (*)
	.loc 39 1512 0
..LDL1159:
/*   1512 */	ld1d	{z18.d}, p0/z, [x3, z28.d, lsl #3]	//  (*)
	.loc 39 1513 0
..LDL1160:
/*   1513 */	ld1d	{z7.d}, p0/z, [x3, z30.d, lsl #3]	//  (*)
	.loc 39 1512 0
..LDL1161:
/*   1512 */	ld1d	{z4.d}, p0/z, [x3, z2.d, lsl #3]	//  (*)
	.loc 39 1513 0
..LDL1162:
/*   1513 */	ld1d	{z0.d}, p0/z, [x3, z0.d, lsl #3]	//  (*)
/*   1513 */	ld1d	{z2.d}, p0/z, [x17, z29.d, lsl #3]	//  (*)
	.loc 39 1512 0
..LDL1163:
/*   1512 */	fmls	z24.d, p0/m, z11.d, z10.d
	.loc 39 1513 0
..LDL1164:
/*   1513 */	fmls	z25.d, p0/m, z9.d, z8.d
	.loc 39 1512 0
..LDL1165:
/*   1512 */	fmls	z23.d, p0/m, z31.d, z27.d
	.loc 39 1513 0
..LDL1166:
/*   1513 */	fmls	z21.d, p0/m, z22.d, z20.d
	.loc 39 1512 0
..LDL1167:
/*   1512 */	fmls	z17.d, p0/m, z19.d, z18.d
	.loc 39 1513 0
..LDL1168:
/*   1513 */	fmls	z6.d, p0/m, z16.d, z7.d
	.loc 39 1512 0
..LDL1169:
/*   1512 */	fmls	z3.d, p0/m, z5.d, z4.d
	.loc 39 1513 0
..LDL1170:
/*   1513 */	fmls	z1.d, p0/m, z2.d, z0.d
	.loc 39 1514 0
..LDL1171:
/*   1514 */	blt	.L1735
.L1738:
	.p2align 5
.L1741:					// :entr:term:mod:swpl
	.loc 39 1512 0 is_stmt 1
..LDL1172:
/*   1512 */	ld1sw	{z0.d}, p0/z, [x2, z29.d, lsl #2]	//  (*)
/*   1512 */	sub	x17, x2, 32
	.loc 39 1511 0 is_stmt 0
..LDL1173:
/*   1511 */	sub	x5, x5, 32
	.loc 39 1514 0
..LDL1174:
/*   1514 */	subs	w6, w6, 4
	.loc 39 1512 0
..LDL1175:
/*   1512 */	ld1d	{z2.d}, p0/z, [x3, z0.d, lsl #3]	//  (*)
/*   1512 */	ld1d	{z0.d}, p0/z, [x4, z29.d, lsl #3]	//  (*)
/*   1512 */	fmls	z24.d, p0/m, z0.d, z2.d
	.loc 39 1513 0 is_stmt 1
..LDL1176:
/*   1513 */	ld1sw	{z0.d}, p0/z, [x1, z29.d, lsl #2]	//  (*)
/*   1513 */	ld1d	{z2.d}, p0/z, [x3, z0.d, lsl #3]	//  (*)
/*   1513 */	ld1d	{z0.d}, p0/z, [x0, z29.d, lsl #3]	//  (*)
/*   1513 */	fmls	z25.d, p0/m, z0.d, z2.d
	.loc 39 1512 0
..LDL1177:
/*   1512 */	ld1sw	{z0.d}, p0/z, [x17, z29.d, lsl #2]	//  (*)
/*   1512 */	sub	x17, x4, 64
/*   1512 */	ld1d	{z2.d}, p0/z, [x3, z0.d, lsl #3]	//  (*)
/*   1512 */	ld1d	{z0.d}, p0/z, [x17, z29.d, lsl #3]	//  (*)
	.loc 39 1513 0
..LDL1178:
/*   1513 */	sub	x17, x1, 32
	.loc 39 1512 0
..LDL1179:
/*   1512 */	fmls	z23.d, p0/m, z0.d, z2.d
	.loc 39 1513 0
..LDL1180:
/*   1513 */	ld1sw	{z0.d}, p0/z, [x17, z29.d, lsl #2]	//  (*)
/*   1513 */	sub	x17, x0, 64
/*   1513 */	ld1d	{z2.d}, p0/z, [x3, z0.d, lsl #3]	//  (*)
/*   1513 */	ld1d	{z0.d}, p0/z, [x17, z29.d, lsl #3]	//  (*)
	.loc 39 1512 0
..LDL1181:
/*   1512 */	sub	x17, x2, 64
	.loc 39 1513 0
..LDL1182:
/*   1513 */	fmls	z21.d, p0/m, z0.d, z2.d
	.loc 39 1512 0
..LDL1183:
/*   1512 */	ld1sw	{z0.d}, p0/z, [x17, z29.d, lsl #2]	//  (*)
/*   1512 */	sub	x17, x4, 128
/*   1512 */	ld1d	{z2.d}, p0/z, [x17, z29.d, lsl #3]	//  (*)
	.loc 39 1513 0
..LDL1184:
/*   1513 */	sub	x17, x1, 64
	.loc 39 1512 0
..LDL1185:
/*   1512 */	ld1d	{z0.d}, p0/z, [x3, z0.d, lsl #3]	//  (*)
/*   1512 */	fmls	z17.d, p0/m, z2.d, z0.d
	.loc 39 1513 0
..LDL1186:
/*   1513 */	ld1sw	{z0.d}, p0/z, [x17, z29.d, lsl #2]	//  (*)
/*   1513 */	sub	x17, x0, 128
/*   1513 */	ld1d	{z2.d}, p0/z, [x3, z0.d, lsl #3]	//  (*)
/*   1513 */	ld1d	{z0.d}, p0/z, [x17, z29.d, lsl #3]	//  (*)
	.loc 39 1512 0
..LDL1187:
/*   1512 */	sub	x17, x2, 96
	.loc 39 1514 0 is_stmt 0
..LDL1188:
/*   1514 */	sub	x2, x2, 128
	.loc 39 1513 0 is_stmt 1
..LDL1189:
/*   1513 */	fmls	z6.d, p0/m, z0.d, z2.d
	.loc 39 1512 0
..LDL1190:
/*   1512 */	ld1sw	{z0.d}, p0/z, [x17, z29.d, lsl #2]	//  (*)
/*   1512 */	sub	x17, x4, 192
	.loc 39 1514 0 is_stmt 0
..LDL1191:
/*   1514 */	sub	x4, x4, 256
	.loc 39 1512 0
..LDL1192:
/*   1512 */	ld1d	{z2.d}, p0/z, [x3, z0.d, lsl #3]	//  (*)
/*   1512 */	ld1d	{z0.d}, p0/z, [x17, z29.d, lsl #3]	//  (*)
	.loc 39 1513 0 is_stmt 1
..LDL1193:
/*   1513 */	sub	x17, x1, 96
	.loc 39 1514 0 is_stmt 0
..LDL1194:
/*   1514 */	sub	x1, x1, 128
	.loc 39 1512 0 is_stmt 1
..LDL1195:
/*   1512 */	fmls	z3.d, p0/m, z0.d, z2.d
	.loc 39 1513 0
..LDL1196:
/*   1513 */	ld1sw	{z0.d}, p0/z, [x17, z29.d, lsl #2]	//  (*)
/*   1513 */	sub	x17, x0, 192
	.loc 39 1514 0 is_stmt 0
..LDL1197:
/*   1514 */	sub	x0, x0, 256
	.loc 39 1513 0
..LDL1198:
/*   1513 */	ld1d	{z2.d}, p0/z, [x3, z0.d, lsl #3]	//  (*)
/*   1513 */	ld1d	{z0.d}, p0/z, [x17, z29.d, lsl #3]	//  (*)
/*   1513 */	fmls	z1.d, p0/m, z0.d, z2.d
	.loc 39 1514 0
..LDL1199:
/*   1514 */	bpl	.L1741
.L1735:
	.loc 39 1513 0
..LDL1200:
/*   1513 */	fadd	z0.d, z1.d, z6.d
/*   1513 */	fadd	z1.d, z25.d, z21.d
	.loc 39 1512 0
..LDL1201:
/*   1512 */	fadd	z2.d, z3.d, z17.d
/*   1512 */	fadd	z3.d, z24.d, z23.d
	.loc 39 1513 0
..LDL1202:
/*   1513 */	fadd	z0.d, z1.d, z0.d
	.loc 39 1512 0
..LDL1203:
/*   1512 */	fadd	z1.d, z3.d, z2.d
.L1551:
	.loc 39 1511 0 is_stmt 1
..LDL1204:
/*   1511 */	adds	w0, w6, 3
/*   1511 */	bmi	.L1538
	.loc 39 1512 0 is_stmt 0
..LDL1205:
/*   1512 */	ldr	x3, [x20, 8]	//  "xv"
	.p2align 5
.L1559:					// :entr:term:mod
	.loc 39 1512 0 is_stmt 1
..LDL1206:
/*   1512 */	index	z3.d, 0, -1
/*   1512 */	mov	x6, x5
	.loc 39 1511 0 is_stmt 0
..LDL1207:
/*   1511 */	sub	x5, x5, 8
	.loc 39 1512 0
..LDL1208:
/*   1512 */	add	x1, x8, x6, lsl #2
	.loc 39 1514 0
..LDL1209:
/*   1514 */	subs	w0, w0, 1
	.loc 39 1513 0 is_stmt 1
..LDL1210:
/*   1513 */	add	x4, x9, x6, lsl #2
	.loc 39 1512 0
..LDL1211:
/*   1512 */	add	x2, x11, x6, lsl #3
	.loc 39 1513 0
..LDL1212:
/*   1513 */	add	x6, x13, x6, lsl #3
	.loc 39 1512 0
..LDL1213:
/*   1512 */	ld1sw	{z5.d}, p0/z, [x1, z3.d, lsl #2]	//  (*)
	.loc 39 1513 0
..LDL1214:
/*   1513 */	ld1sw	{z4.d}, p0/z, [x4, z3.d, lsl #2]	//  (*)
	.loc 39 1512 0
..LDL1215:
/*   1512 */	ld1d	{z2.d}, p0/z, [x2, z3.d, lsl #3]	//  (*)
	.loc 39 1513 0
..LDL1216:
/*   1513 */	ld1d	{z3.d}, p0/z, [x6, z3.d, lsl #3]	//  (*)
	.loc 39 1512 0
..LDL1217:
/*   1512 */	ld1d	{z5.d}, p0/z, [x3, z5.d, lsl #3]	//  (*)
	.loc 39 1513 0
..LDL1218:
/*   1513 */	ld1d	{z4.d}, p0/z, [x3, z4.d, lsl #3]	//  (*)
	.loc 39 1512 0
..LDL1219:
/*   1512 */	fmls	z1.d, p0/m, z2.d, z5.d
	.loc 39 1513 0
..LDL1220:
/*   1513 */	fmls	z0.d, p0/m, z3.d, z4.d
	.loc 39 1511 0 is_stmt 0
..LDL1221:
/*   1511 */	bpl	.L1559
.L1538:
	.loc 39 1512 0
..LDL1222:
/*   1512 */	movprfx	z2, z1
/*   1512 */	ext	z2.b, z2.b, z1.b, 32
	.loc 39 1513 0
..LDL1223:
/*   1513 */	movprfx	z3, z0
/*   1513 */	ext	z3.b, z3.b, z0.b, 32
	.loc 39 1512 0
..LDL1224:
/*   1512 */	fadd	z1.d, z2.d, z1.d
	.loc 39 1513 0
..LDL1225:
/*   1513 */	fadd	z0.d, z3.d, z0.d
	.loc 39 1512 0
..LDL1226:
/*   1512 */	movprfx	z2, z1
/*   1512 */	ext	z2.b, z2.b, z1.b, 16
	.loc 39 1513 0
..LDL1227:
/*   1513 */	movprfx	z3, z0
/*   1513 */	ext	z3.b, z3.b, z0.b, 16
	.loc 39 1512 0
..LDL1228:
/*   1512 */	fadd	z2.d, z1.d, z2.d
	.loc 39 1513 0
..LDL1229:
/*   1513 */	fadd	z0.d, z0.d, z3.d
	.loc 39 1512 0
..LDL1230:
/*   1512 */	movprfx	z1, z2
/*   1512 */	ext	z1.b, z1.b, z2.b, 8
	.loc 39 1513 0
..LDL1231:
/*   1513 */	movprfx	z3, z0
/*   1513 */	ext	z3.b, z3.b, z0.b, 8
	.loc 39 1512 0
..LDL1232:
/*   1512 */	fadd	z1.d, z2.d, z1.d
	.loc 39 1513 0
..LDL1233:
/*    ??? */	ldr	d2, [x19, 16]	//  (*)
/*   1513 */	fadd	z0.d, z0.d, z3.d
/*   1513 */	fadd	d0, d2, d0
/*    ??? */	str	d0, [x19, 16]	//  (*)
	.loc 39 1512 0
..LDL1234:
/*    ??? */	ldr	d0, [x19, 24]	//  (*)
/*   1512 */	fadd	d0, d0, d1
/*    ??? */	str	d0, [x19, 24]	//  (*)
.L1539:
	.loc 39 1511 0 is_stmt 1
..LDL1235:
/*   1511 */	sbfiz	x0, x16, 3, 32
/*   1511 */	sub	x0, x24, x0
/*   1511 */	add	x0, x0, x15
/*   1511 */	cbz	w14, .L1542
/*   1511 */	whilelt	p1.d, wzr, w14
	.loc 39 1512 0
..LDL1236:
/*   1512 */	ldr	x1, [x20, 8]	//  "xv"
/*   1512 */	add	x2, x8, x0, lsl #2
	.loc 39 1513 0
..LDL1237:
/*   1513 */	add	x3, x9, x0, lsl #2
	.loc 39 1512 0
..LDL1238:
/*   1512 */	ld1sw	{z3.d}, p1/z, [x2, z29.d, lsl #2]	//  (*)
/*   1512 */	add	x2, x11, x0, lsl #3
	.loc 39 1513 0
..LDL1239:
/*   1513 */	ld1sw	{z0.d}, p1/z, [x3, z29.d, lsl #2]	//  (*)
	.loc 39 1512 0
..LDL1240:
/*   1512 */	ld1d	{z2.d}, p1/z, [x2, z29.d, lsl #3]	//  (*)
	.loc 39 1513 0
..LDL1241:
/*   1513 */	add	x0, x13, x0, lsl #3
/*   1513 */	ld1d	{z1.d}, p1/z, [x0, z29.d, lsl #3]	//  (*)
	.loc 39 1512 0
..LDL1242:
/*   1512 */	ld1d	{z3.d}, p1/z, [x1, z3.d, lsl #3]	//  (*)
	.loc 39 1513 0
..LDL1243:
/*   1513 */	ld1d	{z0.d}, p1/z, [x1, z0.d, lsl #3]	//  (*)
	.loc 39 1512 0
..LDL1244:
/*   1512 */	fmsb	z2.d, p1/m, z3.d, z13.d
	.loc 39 1513 0
..LDL1245:
/*   1513 */	fmsb	z1.d, p1/m, z0.d, z13.d
	.loc 39 1512 0 is_stmt 0
..LDL1246:
/*   1512 */	sel	z0.d, p1, z2.d, z13.d
	.loc 39 1513 0
..LDL1247:
/*   1513 */	sel	z1.d, p1, z1.d, z13.d
	.loc 39 1512 0
..LDL1248:
/*   1512 */	movprfx	z3, z0
/*   1512 */	ext	z3.b, z3.b, z0.b, 32
	.loc 39 1513 0
..LDL1249:
/*   1513 */	movprfx	z2, z1
/*   1513 */	ext	z2.b, z2.b, z1.b, 32
	.loc 39 1512 0
..LDL1250:
/*   1512 */	fadd	z0.d, z0.d, z3.d
	.loc 39 1513 0
..LDL1251:
/*   1513 */	fadd	z2.d, z1.d, z2.d
	.loc 39 1512 0
..LDL1252:
/*   1512 */	movprfx	z3, z0
/*   1512 */	ext	z3.b, z3.b, z0.b, 16
	.loc 39 1513 0
..LDL1253:
/*   1513 */	movprfx	z1, z2
/*   1513 */	ext	z1.b, z1.b, z2.b, 16
	.loc 39 1512 0
..LDL1254:
/*   1512 */	fadd	z0.d, z0.d, z3.d
	.loc 39 1513 0
..LDL1255:
/*   1513 */	fadd	z1.d, z2.d, z1.d
	.loc 39 1512 0
..LDL1256:
/*   1512 */	movprfx	z2, z0
/*   1512 */	ext	z2.b, z2.b, z0.b, 8
	.loc 39 1513 0
..LDL1257:
/*   1513 */	movprfx	z3, z1
/*   1513 */	ext	z3.b, z3.b, z1.b, 8
	.loc 39 1512 0
..LDL1258:
/*   1512 */	fadd	z2.d, z0.d, z2.d
	.loc 39 1513 0
..LDL1259:
/*   1513 */	fadd	z0.d, z1.d, z3.d
	.loc 39 1512 0
..LDL1260:
/*    ??? */	ldr	d1, [x19, 24]	//  (*)
/*   1512 */	fadd	d1, d1, d2
/*    ??? */	str	d1, [x19, 24]	//  (*)
	.loc 39 1513 0
..LDL1261:
/*    ??? */	ldr	d1, [x19, 16]	//  (*)
/*   1513 */	fadd	d0, d1, d0
/*    ??? */	str	d0, [x19, 16]	//  (*)
.L1542:
	.loc 39 1517 0 is_stmt 1
..LDL1262:
	.loc 39 1516 0 is_stmt 0
..LDL1263:
/*   1516 */	ldr	x0, [x20, 8]	//  "xv"
/*   1516 */	ldr	x1, [x20, 24]	//  "matrixDiagonal"
	.loc 39 1517 0
..LDL1264:
/*    ??? */	ldr	d1, [x19, 24]	//  (*)
	.loc 39 1516 0
..LDL1265:
/*   1516 */	ldr	x1, [x1, x7, lsl #3]	//  (*)
/*   1516 */	ldr	d2, [x0, x7, lsl #3]	//  (*)
/*   1516 */	ldr	d0, [x1]	//  (*)
	.loc 39 1517 0
..LDL1266:
/*   1517 */	fmadd	d2, d2, d0, d1
/*   1517 */	frecpe	d3, d0
/*   1517 */	fmsub	d1, d0, d3, d15
/*   1517 */	fmul	d2, d2, d3
/*   1517 */	fmadd	d3, d1, d1, d1
/*   1517 */	fmul	d0, d1, d1
/*   1517 */	fmadd	d3, d3, d2, d2
/*   1517 */	fmadd	d0, d0, d0, d1
	.loc 39 1520 0 is_stmt 1
..LDL1267:
/*    ??? */	ldr	d1, [x19, 16]	//  (*)
	.loc 39 1517 0
..LDL1268:
/*   1517 */	fmadd	d0, d0, d3, d2
/*   1517 */	str	d0, [x0, x7, lsl #3]	//  (*)
	.loc 39 1519 0
..LDL1269:
/*   1519 */	ldr	x1, [x20, 24]	//  "matrixDiagonal"
	.loc 39 1520 0
..LDL1270:
	.loc 39 1519 0 is_stmt 0
..LDL1271:
/*   1519 */	ldr	d2, [x0, x12, lsl #3]	//  (*)
	.loc 39 1519 0 is_stmt 1
..LDL1272:
/*   1519 */	ldr	x1, [x1, x12, lsl #3]	//  (*)
	.loc 39 1520 0
..LDL1273:
	.loc 39 1519 0 is_stmt 0
..LDL1274:
/*   1519 */	ldr	d0, [x1]	//  (*)
	.loc 39 1520 0
..LDL1275:
/*   1520 */	fmadd	d2, d2, d0, d1
/*   1520 */	frecpe	d1, d0
/*   1520 */	fmsub	d0, d0, d1, d15
/*   1520 */	fmul	d1, d2, d1
/*   1520 */	fmadd	d3, d0, d0, d0
/*   1520 */	fmul	d2, d0, d0
/*   1520 */	fmadd	d3, d3, d1, d1
/*   1520 */	fmadd	d0, d2, d2, d0
/*   1520 */	fmadd	d0, d0, d3, d1
/*   1520 */	str	d0, [x0, x12, lsl #3]	//  (*)
.L1543:					// :term
	.loc 39 1531 0 is_stmt 1
..LDL1276:
/*   1531 */	sub	w10, w10, 1
/*   1531 */	subs	w25, w25, 1
/*   1531 */	bne	.L1514
.L1545:					// :term
	.loc 39 1532 0
..LDL1277:
/*   1532 */	sub	w26, w26, w28
/*   1532 */	cmp	w26, w27
/*   1532 */	bge	.L1511
/*   1532 */	b	.L1509
.L1548:
/*   1532 */	add	x20, x19, 40
/*   1532 */	ldr	x0, [x20, 24]
/*   1532 */	bl	__mpc_obar
/*   1532 */	ldr	x0, [x20, 24]
/*   1532 */	bl	__mpc_obar
/*    ??? */	ldp	x19, x20, [x29, -16]	//  (*)
	.cfi_restore 19
	.cfi_restore 20
/*    ??? */	ldp	x21, x22, [x29, -32]	//  (*)
	.cfi_restore 21
	.cfi_restore 22
/*    ??? */	ldp	x23, x24, [x29, -48]	//  (*)
	.cfi_restore 23
	.cfi_restore 24
/*    ??? */	ldp	x25, x26, [x29, -64]	//  (*)
	.cfi_restore 25
	.cfi_restore 26
/*    ??? */	ldp	x27, x28, [x29, -80]	//  (*)
	.cfi_restore 27
	.cfi_restore 28
/*    ??? */	ldp	d8, d9, [x29, -96]	//  (*)
	.cfi_restore 72
	.cfi_restore 73
/*    ??? */	ldp	d10, d11, [x29, -112]	//  (*)
	.cfi_restore 74
	.cfi_restore 75
/*    ??? */	ldp	d12, d13, [x29, -128]	//  (*)
	.cfi_restore 76
	.cfi_restore 77
/*    ??? */	ldp	d14, d15, [x29, -144]	//  (*)
	.cfi_restore 78
	.cfi_restore 79
/*    ??? */	add	sp, x29, 0
/*    ??? */	ldp	x29, x30, [sp], 16	//  (*)
	.cfi_restore 29
	.cfi_restore 30
	.cfi_def_cfa_offset 0
/*   1532 */	ret	
..D8.pchi:
	.cfi_endproc
.LFE7:
	.size	_Z18ComputeSYMGS_BLOCKRK19SparseMatrix_STRUCTRK13Vector_STRUCTRS2_R9TraceData._OMP_5, .-_Z18ComputeSYMGS_BLOCKRK19SparseMatrix_STRUCTRK13Vector_STRUCTRS2_R9TraceData._OMP_5
	.ident	"$Compiler: Fujitsu C/C++ Compiler 4.7.0 (Nov 10 2021 09:37:15) ../src/ComputeSYMGS.cpp _Z12ComputeSYMGSRK19SparseMatrix_STRUCTRK13Vector_STRUCTRS2_R9TraceData $"
	.text
	.align	2
	.global	_Z12ComputeSYMGSRK19SparseMatrix_STRUCTRK13Vector_STRUCTRS2_R9TraceData
	.type	_Z12ComputeSYMGSRK19SparseMatrix_STRUCTRK13Vector_STRUCTRS2_R9TraceData, %function
_Z12ComputeSYMGSRK19SparseMatrix_STRUCTRK13Vector_STRUCTRS2_R9TraceData:
	.loc 39 1567 0
..LDL1278:
.LFB8:
	.cfi_startproc
/*   1536 */	sub	sp, sp, 64
	.cfi_def_cfa_offset 64
/*    ??? */	str	x30, [sp, 48]	//  (*)
	.cfi_offset 30, -16
	.loc 39 1570 0
..LDL1279:
/*   1570 */	ldrb	w4, [x0, 328]	//  (*)
/*   1570 */	cbnz	w4, .L613
	.loc 39 1584 0
..LDL1280:
/*   1584 */	bl	_Z18ComputeSYMGS_BLOCKRK19SparseMatrix_STRUCTRK13Vector_STRUCTRS2_R9TraceData
/*   1584 */	b	.L615
.L613:
	.loc 39 1576 0
..LDL1281:
/*   1576 */	bl	_Z16ComputeSYMGS_TDGRK19SparseMatrix_STRUCTRK13Vector_STRUCTRS2_R9TraceData
.L615:					// :epi:term
	.loc 39 1586 0
..LDL1282:
/*    ??? */	ldr	x30, [sp, 48]	//  (*)
	.cfi_restore 30
/*   1586 */	add	sp, sp, 64
	.cfi_def_cfa_offset 0
/*   1586 */	ret	
..D9.pchi:
	.cfi_endproc
.LFE8:
	.size	_Z12ComputeSYMGSRK19SparseMatrix_STRUCTRK13Vector_STRUCTRS2_R9TraceData, .-_Z12ComputeSYMGSRK19SparseMatrix_STRUCTRK13Vector_STRUCTRS2_R9TraceData
	.ident	"$Compiler: Fujitsu C/C++ Compiler 4.7.0 (Nov 10 2021 09:37:15) ../src/ComputeSYMGS.cpp __sti___16_ComputeSYMGS_cpp_49bfd29d $"
	.text
	.align	2
	.type	__sti___16_ComputeSYMGS_cpp_49bfd29d, %function
__sti___16_ComputeSYMGS_cpp_49bfd29d:
	.loc 39 1587 0
..LDL1283:
.LFB9:
	.cfi_startproc
/*   1587 */	ret	
..D10.pchi:
	.cfi_endproc
.LFE9:
	.size	__sti___16_ComputeSYMGS_cpp_49bfd29d, .-__sti___16_ComputeSYMGS_cpp_49bfd29d
	.section	.init_array,"aw"
	.align	3
	.xword		__sti___16_ComputeSYMGS_cpp_49bfd29d
	.file 40 "../src/InstrumentationData.hpp"
	.file 41 "/usr/include/bits/stdint-uintn.h"
	.file 42 "/opt/FJSVstclanga/cp-1.0.21.01/bin/../include/libc++/v371/utility"
	.file 43 "/opt/FJSVstclanga/cp-1.0.21.01/bin/../include/libc++/v371/limits"
	.file 44 "/usr/include/stdint.h"
	.file 45 "/usr/include/alloca.h"
	.file 46 "/usr/include/bits/types/locale_t.h"
	.file 47 "/usr/include/bits/types/__locale_t.h"
	.file 48 "/usr/include/bits/floatn-common.h"
	.file 49 "/usr/include/bits/floatn.h"
	.file 50 "/usr/include/sys/select.h"
	.file 51 "/usr/include/bits/types/struct_timeval.h"
	.file 52 "/usr/include/bits/types/struct_timespec.h"
	.file 53 "/usr/include/bits/types/__sigset_t.h"
	.file 54 "/usr/include/bits/stdint-intn.h"
	.file 55 "/usr/include/bits/types/__FILE.h"
	.file 56 "/opt/FJSVstclanga/cp-1.0.21.01/bin/../include/stdarg.h"
	.file 57 "/usr/include/assert.h"
	.file 58 "/usr/include/bits/mathcalls-helper-functions.h"
	.file 59 "/usr/include/bits/mathcalls.h"
	.file 60 "/usr/include/bits/mathcalls-narrow.h"
	.file 61 "../src/ComputeSYMGS_ref.hpp"
	.file 62 "/usr/include/errno.h"
	.file 63 "/lustre/software/likwid/5.2.2//include/bstrlib.h"
	.file 64 "/lustre/software/likwid/5.2.2//include/likwid.h"
	.file 65 "/usr/include/sys/types.h"
	.file 66 "/usr/include/bits/types/clock_t.h"
	.file 67 "/usr/include/bits/types/clockid_t.h"
	.file 68 "/usr/include/bits/types/time_t.h"
	.file 69 "/usr/include/bits/types/timer_t.h"
	.file 70 "/usr/include/bits/types/sigset_t.h"
	.file 71 "/usr/include/bits/pthreadtypes-arch.h"
	.file 72 "/usr/include/bits/thread-shared-types.h"
	.file 73 "/usr/include/bits/pthreadtypes.h"
	.file 74 "/usr/include/bits/types/FILE.h"
	.file 75 "/usr/include/bits/types/error_t.h"
	.pushsection	.text
..text.e:
	.popsection
	.section	.rodata
	.align	3
.LR.1:
	.ascii "x.localLength\040>=\040A.localNumberOfColumns\000"
	.type	.LR.1, %object
	.size	.LR.1,.-.LR.1
	.section	.rodata
	.align	3
.LR.2:
	.ascii "../src/ComputeSYMGS.cpp\000"
	.type	.LR.2, %object
	.size	.LR.2,.-.LR.2
	.section	.rodata
	.align	3
.LR.3:
	.ascii "x.localLength\040==\040A.localNumberOfColumns\000"
	.type	.LR.3, %object
	.size	.LR.3,.-.LR.3
	.section	.rodata
	.align	3
.LR.4:
	.byte	105
	.byte	110
	.byte	116
	.byte	32
	.byte	67
	.byte	111
	.byte	109
	.byte	112
	.byte	117
	.byte	116
	.byte	101
	.byte	83
	.byte	89
	.byte	77
	.byte	71
	.byte	83
	.byte	95
	.byte	66
	.byte	76
	.byte	79
	.byte	67
	.byte	75
	.byte	40
	.byte	99
	.byte	111
	.byte	110
	.byte	115
	.byte	116
	.byte	32
	.byte	83
	.byte	112
	.byte	97
	.byte	114
	.byte	115
	.byte	101
	.byte	77
	.byte	97
	.byte	116
	.byte	114
	.byte	105
	.byte	120
	.byte	95
	.byte	83
	.byte	84
	.byte	82
	.byte	85
	.byte	67
	.byte	84
	.byte	32
	.byte	38
	.byte	44
	.byte	32
	.byte	99
	.byte	111
	.byte	110
	.byte	115
	.byte	116
	.byte	32
	.byte	86
	.byte	101
	.byte	99
	.byte	116
	.byte	111
	.byte	114
	.byte	95
	.byte	83
	.byte	84
	.byte	82
	.byte	85
	.byte	67
	.byte	84
	.byte	32
	.byte	38
	.byte	44
	.byte	32
	.byte	86
	.byte	101
	.byte	99
	.byte	116
	.byte	111
	.byte	114
	.byte	95
	.byte	83
	.byte	84
	.byte	82
	.byte	85
	.byte	67
	.byte	84
	.byte	32
	.byte	38
	.byte	44
	.byte	32
	.byte	84
	.byte	114
	.byte	97
	.byte	99
	.byte	101
	.byte	68
	.byte	97
	.byte	116
	.byte	97
	.byte	32
	.byte	38
	.byte	41
	.zero	1
	.type	.LR.4, %object
	.size	.LR.4,.-.LR.4
	.section	.rodata
	.align	3
.LR.5:
	.byte	105
	.byte	110
	.byte	116
	.byte	32
	.byte	67
	.byte	111
	.byte	109
	.byte	112
	.byte	117
	.byte	116
	.byte	101
	.byte	83
	.byte	89
	.byte	77
	.byte	71
	.byte	83
	.byte	95
	.byte	84
	.byte	68
	.byte	71
	.byte	40
	.byte	99
	.byte	111
	.byte	110
	.byte	115
	.byte	116
	.byte	32
	.byte	83
	.byte	112
	.byte	97
	.byte	114
	.byte	115
	.byte	101
	.byte	77
	.byte	97
	.byte	116
	.byte	114
	.byte	105
	.byte	120
	.byte	95
	.byte	83
	.byte	84
	.byte	82
	.byte	85
	.byte	67
	.byte	84
	.byte	32
	.byte	38
	.byte	44
	.byte	32
	.byte	99
	.byte	111
	.byte	110
	.byte	115
	.byte	116
	.byte	32
	.byte	86
	.byte	101
	.byte	99
	.byte	116
	.byte	111
	.byte	114
	.byte	95
	.byte	83
	.byte	84
	.byte	82
	.byte	85
	.byte	67
	.byte	84
	.byte	32
	.byte	38
	.byte	44
	.byte	32
	.byte	86
	.byte	101
	.byte	99
	.byte	116
	.byte	111
	.byte	114
	.byte	95
	.byte	83
	.byte	84
	.byte	82
	.byte	85
	.byte	67
	.byte	84
	.byte	32
	.byte	38
	.byte	44
	.byte	32
	.byte	84
	.byte	114
	.byte	97
	.byte	99
	.byte	101
	.byte	68
	.byte	97
	.byte	116
	.byte	97
	.byte	32
	.byte	38
	.byte	41
	.zero	1
	.type	.LR.5, %object
	.size	.LR.5,.-.LR.5
	.section	.rodata
	.align	3
.LR.6:
	.byte	105
	.byte	110
	.byte	116
	.byte	32
	.byte	67
	.byte	111
	.byte	109
	.byte	112
	.byte	117
	.byte	116
	.byte	101
	.byte	70
	.byte	117
	.byte	115
	.byte	101
	.byte	100
	.byte	83
	.byte	89
	.byte	77
	.byte	71
	.byte	83
	.byte	95
	.byte	83
	.byte	80
	.byte	77
	.byte	86
	.byte	40
	.byte	99
	.byte	111
	.byte	110
	.byte	115
	.byte	116
	.byte	32
	.byte	83
	.byte	112
	.byte	97
	.byte	114
	.byte	115
	.byte	101
	.byte	77
	.byte	97
	.byte	116
	.byte	114
	.byte	105
	.byte	120
	.byte	95
	.byte	83
	.byte	84
	.byte	82
	.byte	85
	.byte	67
	.byte	84
	.byte	32
	.byte	38
	.byte	44
	.byte	32
	.byte	99
	.byte	111
	.byte	110
	.byte	115
	.byte	116
	.byte	32
	.byte	86
	.byte	101
	.byte	99
	.byte	116
	.byte	111
	.byte	114
	.byte	95
	.byte	83
	.byte	84
	.byte	82
	.byte	85
	.byte	67
	.byte	84
	.byte	32
	.byte	38
	.byte	44
	.byte	32
	.byte	86
	.byte	101
	.byte	99
	.byte	116
	.byte	111
	.byte	114
	.byte	95
	.byte	83
	.byte	84
	.byte	82
	.byte	85
	.byte	67
	.byte	84
	.byte	32
	.byte	38
	.byte	44
	.byte	32
	.byte	86
	.byte	101
	.byte	99
	.byte	116
	.byte	111
	.byte	114
	.byte	95
	.byte	83
	.byte	84
	.byte	82
	.byte	85
	.byte	67
	.byte	84
	.byte	32
	.byte	38
	.byte	41
	.zero	1
	.type	.LR.6, %object
	.size	.LR.6,.-.LR.6
	.section	.note.GNU-stack,"",%progbits
	.section	.fj.compile_info, "e"
	.ascii	"C++::trad-libc++"
