..text.b:
	.ident	"$Options: Fujitsu C/C++ Compiler 4.7.0 (Nov 10 2021 09:37:15) --preinclude /opt/FJSVstclanga/cp-1.0.21.01/bin/../lib/FCC.pre --g++ -Dunix -Dlinux -D__FUJITSU -D__FCC_major__=4 -D__FCC_minor__=7 -D__FCC_patchlevel__=0 -D__FCC_version__=\"4.7.0\" -D__aarch64__ -D__unix -D_OPENMP=201107 -D__PRAGMA_REDEFINE_EXTNAME -D__FCC_VERSION=800 -D__USER_LABEL_PREFIX__= -D__OPTIMIZE__ -D__ARM_ARCH=8 -D__ARM_FEATURE_SVE -D__FP_FAST_FMA -D__ELF__ -D__linux -Asystem(unix) -D__LIBC_6B -D_LP64 -D__LP64__ -DHPCG_CONTIGUOUS_ARRAYS -DHPCG_NO_MPI -DENABLE_MG_COUNTERS -DENABLE_MG_COUNTERS -DHPCG_USE_SVE -I./src -I./src/OOKAMI_OMP_FJ -I/lustre/software/arm/22.1/armpl-22.1.0_AArch64_RHEL-8_arm-linux-compiler_aarch64-linux/include --K=omp -I../src --K=ocl -D_REENTRANT -D__MT__ --zmode=64 -I/lustre/software/arm/22.1/arm-linux-compiler-22.1_Generic-AArch64_RHEL-8_aarch64-linux/include -I/lustre/software/arm/22.1/gcc-11.2.0_Generic-AArch64_RHEL-8_aarch64-linux/include -I/lustre/software/likwid/5.2.2//include -I/cm/shared/apps/slurm/current/include -I/lustre/software/likwid/5.2.2//include --sys_include=/opt/FJSVstclanga/cp-1.0.21.01/bin/../include/libc++/v371 --sys_include=/opt/FJSVstclanga/cp-1.0.21.01/bin/../include --K=opt --exceptions ../src/ComputeSYMGS.cpp -- -ncmdname=FCC -nspopt=\"-c -DHPCG_CONTIGUOUS_ARRAYS -DHPCG_NO_MPI -DENABLE_MG_COUNTERS -DENABLE_MG_COUNTERS -DHPCG_USE_SVE -I./src -I./src/OOKAMI_OMP_FJ -I/lustre/software/arm/22.1/armpl-22.1.0_AArch64_RHEL-8_arm-linux-compiler_aarch64-linux/include -Kfast -KSVE -Kopenmp -Koptmsg=2 -Nlst=t -Kocl -I../src -S -o ComputeSYMGS.asm.txt\" -zobe=cplus -zcfc=target_sve -O3 -x- -Komitfp,mfunc,eval,fp_relaxed,fz,fast_matmul,fp_contract,ilfunc,simd_packed_promotion -KSVE -Kopenmp,threadsafe -Koptmsg=2 -Nlst=t -Kocl -zsta=am -Klargepage -zsrc=../src/ComputeSYMGS.cpp ComputeSYMGS.asm.txt $"
	.file	"ComputeSYMGS.cpp"
	.ident	"$Compiler: Fujitsu C/C++ Compiler 4.7.0 (Nov 10 2021 09:37:15) ../src/ComputeSYMGS.cpp _Z20ComputeSYMGS_TDG_SVERK19SparseMatrix_STRUCTRK13Vector_STRUCTRS2_R9TraceData $"
	.text
	.align	2
	.global	_Z20ComputeSYMGS_TDG_SVERK19SparseMatrix_STRUCTRK13Vector_STRUCTRS2_R9TraceData
	.type	_Z20ComputeSYMGS_TDG_SVERK19SparseMatrix_STRUCTRK13Vector_STRUCTRS2_R9TraceData, %function
_Z20ComputeSYMGS_TDG_SVERK19SparseMatrix_STRUCTRK13Vector_STRUCTRS2_R9TraceData:
	.file 1 "/usr/include/bits/byteswap.h"
	.file 2 "/usr/include/bits/types.h"
	.file 3 "/usr/include/bits/uintn-identity.h"
	.file 4 "/opt/FJSVstclanga/cp-1.0.21.01/bin/../include/libc++/v371/__config_fujitsu"
	.file 5 "/opt/FJSVstclanga/cp-1.0.21.01/bin/../include/libc++/v371/type_traits"
	.file 6 "/usr/include/string.h"
	.file 7 "/opt/FJSVstclanga/cp-1.0.21.01/bin/../include/stddef.h"
	.file 8 "/usr/include/strings.h"
	.file 9 "/usr/include/stdlib.h"
	.file 10 "/usr/include/bits/stdlib-bsearch.h"
	.file 11 "/usr/include/bits/stdlib-float.h"
	.file 12 "/opt/FJSVstclanga/cp-1.0.21.01/bin/../include/libc++/v371/cstdlib"
	.file 13 "/opt/FJSVstclanga/cp-1.0.21.01/bin/../include/libc++/v371/exception"
	.file 14 "/opt/FJSVstclanga/cp-1.0.21.01/bin/../include/libc++/v371/cstddef"
	.file 15 "/opt/FJSVstclanga/cp-1.0.21.01/bin/../include/libc++/v371/typeinfo"
	.file 16 "/opt/FJSVstclanga/cp-1.0.21.01/bin/../include/libc++/v371/new"
	.file 17 "/usr/include/wchar.h"
	.file 18 "/usr/include/bits/types/mbstate_t.h"
	.file 19 "/usr/include/bits/types/__mbstate_t.h"
	.file 20 "/opt/FJSVstclanga/cp-1.0.21.01/bin/../include/libc++/v371/iterator"
	.file 21 "/opt/FJSVstclanga/cp-1.0.21.01/bin/../include/libc++/v371/tuple"
	.file 22 "/opt/FJSVstclanga/cp-1.0.21.01/bin/../include/libc++/v371/atomic"
	.file 23 "/opt/FJSVstclanga/cp-1.0.21.01/bin/../include/libc++/v371/memory"
	.file 24 "/opt/FJSVstclanga/cp-1.0.21.01/bin/../include/libc++/v371/algorithm"
	.file 25 "/opt/FJSVstclanga/cp-1.0.21.01/bin/../include/libc++/v371/__bit_reference"
	.file 26 "/opt/FJSVstclanga/cp-1.0.21.01/bin/../include/libc++/v371/stdexcept"
	.file 27 "/opt/FJSVstclanga/cp-1.0.21.01/bin/../include/libc++/v371/iosfwd"
	.file 28 "../src/Geometry.hpp"
	.file 29 "../src/Vector.hpp"
	.file 30 "../src/MGData.hpp"
	.file 31 "/usr/include/math.h"
	.file 32 "/opt/FJSVstclanga/cp-1.0.21.01/bin/../include/libc++/v371/cmath"
	.file 33 "/opt/FJSVstclanga/cp-1.0.21.01/bin/../include/libc++/v371/__hash_table"
	.file 34 "/opt/FJSVstclanga/cp-1.0.21.01/bin/../include/libc++/v371/functional"
	.file 35 "/opt/FJSVstclanga/cp-1.0.21.01/bin/../include/libc++/v371/unordered_map"
	.file 36 "../src/SparseMatrix.hpp"
	.file 37 "/opt/FJSVstclanga/cp-1.0.21.01/bin/../include/libc++/v371/vector"
	.file 38 "../src/ComputeSYMGS.cpp"
	.loc 38 68 0
..LDL1:
.LFB0:
	.cfi_startproc
/*    153 */	sub	sp, sp, 48
	.cfi_def_cfa_offset 48
/*    ??? */	str	x30, [sp, 32]	//  (*)
	.cfi_offset 30, -16
/*    ??? */	stp	x19, x20, [sp, 16]	//  (*)
	.cfi_offset 19, -32
	.cfi_offset 20, -24
/*    ??? */	stp	x21, x22, [sp]	//  (*)
	.cfi_offset 21, -48
	.cfi_offset 22, -40
/*    ??? */	sub	sp, sp, 80
	.cfi_def_cfa_offset 128
/*     68 */	add	x19, sp, 8
/*     68 */	str	x0, [x19, 32]
	.loc 38 69 0
..LDL2:
/*     69 */	ldr	w3, [x2]	//  (*)
/*     69 */	ldr	w4, [x0, 36]	//  (*)
/*     69 */	cmp	w3, w4
/*     69 */	bne	.L2225
	.loc 38 75 0
..LDL3:
/*     75 */	ldr	x1, [x1, 8]	//  (*)
/*     75 */	str	x1, [x19, 24]
	.loc 38 76 0
..LDL4:
/*     76 */	ldr	x1, [x2, 8]	//  (*)
/*     76 */	str	x1, [x19, 16]
	.loc 38 77 0
..LDL5:
/*     77 */	ldr	x1, [x0, 80]	//  (*)
/*     77 */	str	x1, [x19, 8]
	.loc 38 86 0
..LDL6:
/*     86 */	str	wzr, [x19, 4]
	.loc 37 641 0
..LDL7:
/*    641 */	ldp	x0, x1, [x0, 280]	//  (*)
/*    641 */	sub	x0, x1, x0
/*    641 */	mov	x1, 24
/*    641 */	sdiv	x0, x0, x1
	.loc 38 86 0
..LDL8:
/*     86 */	cbz	x0, .L2219
	.loc 38 88 0 is_stmt 0
..LDL9:
/*     88 */	adrp	x0, _Z20ComputeSYMGS_TDG_SVERK19SparseMatrix_STRUCTRK13Vector_STRUCTRS2_R9TraceData._OMP_1
	.loc 37 641 0
..LDL10:
/*    641 */	mov	x20, 24
	.loc 38 118 0
..LDL11:
/*    118 */	add	x22, x19, 32
	.loc 38 88 0
..LDL12:
/*     88 */	add	x21, x0, :lo12:_Z20ComputeSYMGS_TDG_SVERK19SparseMatrix_STRUCTRK13Vector_STRUCTRS2_R9TraceData._OMP_1
	.p2align 5
.L2217:					// :entr:term
	.loc 38 88 0 is_stmt 0
..LDL13:
/*     88 */	mov	x2, 0
/*     88 */	mov	x0, x21
/*     88 */	mov	x1, x19
/*     88 */	bl	__mpc_opar
	.loc 38 118 0 is_stmt 1
..LDL14:
/*    118 */	ldr	w0, [x22, -28]
	.loc 37 641 0
..LDL15:
/*    641 */	ldr	x2, [x22]
	.loc 38 118 0
..LDL16:
/*    118 */	add	w0, w0, 1
/*    118 */	str	w0, [x22, -28]
/*    118 */	sxtw	x1, w0
	.loc 37 641 0
..LDL17:
/*    641 */	ldp	x2, x0, [x2, 280]	//  (*)
/*    641 */	sub	x0, x0, x2
/*    641 */	sdiv	x0, x0, x20
	.loc 38 118 0
..LDL18:
/*    118 */	cmp	x1, x0
/*    118 */	bcc	.L2217
.L2219:
	.loc 37 641 0
..LDL19:
/*    641 */	ldr	x0, [x19, 32]
/*    641 */	ldp	x0, x1, [x0, 280]	//  (*)
/*    641 */	sub	x0, x1, x0
/*    641 */	mov	x1, 24
/*    641 */	sdiv	x0, x0, x1
	.loc 38 123 0
..LDL20:
/*    123 */	sub	x0, x0, 1
/*    123 */	str	w0, [x19]
/*    123 */	cmp	w0, 0
/*    123 */	blt	.L2224
	.loc 38 125 0 is_stmt 0
..LDL21:
/*    125 */	adrp	x0, _Z20ComputeSYMGS_TDG_SVERK19SparseMatrix_STRUCTRK13Vector_STRUCTRS2_R9TraceData._OMP_2
/*    125 */	add	x20, x0, :lo12:_Z20ComputeSYMGS_TDG_SVERK19SparseMatrix_STRUCTRK13Vector_STRUCTRS2_R9TraceData._OMP_2
	.p2align 5
.L2222:					// :entr:term
	.loc 38 125 0 is_stmt 0
..LDL22:
/*    125 */	mov	x2, 0
/*    125 */	mov	x0, x20
/*    125 */	mov	x1, x19
/*    125 */	bl	__mpc_opar
	.loc 38 154 0 is_stmt 1
..LDL23:
/*    154 */	ldr	w0, [x19]
/*    154 */	sub	w0, w0, 1
/*    154 */	str	w0, [x19]
/*    154 */	cmp	w0, 0
/*    154 */	bge	.L2222
.L2224:
	.loc 38 160 0
..LDL24:
/*    160 */	mov	w0, 0
/*    160 */	b	.L2226
.L2225:
	.loc 38 69 0
..LDL25:
/*     69 */	adrp	x0, .LR.3
/*     69 */	adrp	x1, .LR.2
/*     69 */	mov	w2, 69
/*     69 */	add	x0, x0, :lo12:.LR.3
/*     69 */	add	x1, x1, :lo12:.LR.2
/*     69 */	adrp	x3, .LR.9
/*     69 */	add	x3, x3, :lo12:.LR.9
/*     69 */	bl	__assert_fail
.L2226:					// :epi:term
	.loc 38 161 0
..LDL26:
/*    ??? */	add	sp, sp, 80
	.cfi_def_cfa_offset 48
/*    ??? */	ldp	x19, x20, [sp, 16]	//  (*)
	.cfi_restore 19
	.cfi_restore 20
/*    ??? */	ldp	x21, x22, [sp]	//  (*)
	.cfi_restore 21
	.cfi_restore 22
/*    ??? */	ldr	x30, [sp, 32]	//  (*)
	.cfi_restore 30
/*    161 */	add	sp, sp, 48
	.cfi_def_cfa_offset 0
/*    161 */	ret	
..D1.pchi:
	.cfi_endproc
.LFE0:
	.size	_Z20ComputeSYMGS_TDG_SVERK19SparseMatrix_STRUCTRK13Vector_STRUCTRS2_R9TraceData, .-_Z20ComputeSYMGS_TDG_SVERK19SparseMatrix_STRUCTRK13Vector_STRUCTRS2_R9TraceData
	.ident	"$Compiler: Fujitsu C/C++ Compiler 4.7.0 (Nov 10 2021 09:37:15) ../src/ComputeSYMGS.cpp _Z20ComputeSYMGS_TDG_SVERK19SparseMatrix_STRUCTRK13Vector_STRUCTRS2_R9TraceData._OMP_1 $"
	.text
	.align	2
	.type	_Z20ComputeSYMGS_TDG_SVERK19SparseMatrix_STRUCTRK13Vector_STRUCTRS2_R9TraceData._OMP_1, %function
_Z20ComputeSYMGS_TDG_SVERK19SparseMatrix_STRUCTRK13Vector_STRUCTRS2_R9TraceData._OMP_1:
	.loc 38 88 0
..LDL27:
.LFB1:
	.cfi_startproc
/*     88 */	sub	sp, sp, 32
	.cfi_def_cfa_offset 32
/*    ??? */	stp	x19, x30, [sp, 8]	//  (*)
	.cfi_offset 30, -16
	.cfi_offset 19, -24
/*    ??? */	sub	sp, sp, 96
	.cfi_def_cfa_offset 128
/*     88 */	str	x1, [sp, 32]
/*     88 */	str	x2, [sp, 24]
/*     88 */	str	x3, [sp, 16]
/*     88 */	str	x4, [sp, 8]
	.loc 38 88 0 is_stmt 0
..LDL28:
	.loc 38 88 0 is_stmt 0
..LDL29:
	.loc 38 92 0 is_stmt 1
..LDL30:
/*     92 */	ldrsw	x3, [x0, 4]	//  "l"
	.loc 37 1506 0
..LDL31:
/*   1506 */	ldr	x1, [x0, 32]	//  "A"
/*   1506 */	add	x2, x3, x3
/*   1506 */	ldr	x1, [x1, 280]	//  (*)
/*   1506 */	add	x2, x2, x3
/*   1506 */	lsl	x4, x2, 3
	.loc 37 641 0
..LDL32:
/*    641 */	add	x2, x4, 8
/*    641 */	ldr	x2, [x1, x2]	//  (*)
/*    641 */	ldr	x1, [x1, x4]	//  (*)
/*    641 */	sub	x1, x2, x1
/*    641 */	asr	x2, x1, 1
/*    641 */	add	x1, x1, x2, lsr #62
/*    641 */	asr	x1, x1, 2
/*     92 */	cbz	x1, .L2244
	.loc 38 92 0
..LDL33:
/*     92 */	add	x2, sp, 32
/*     92 */	ldr	x5, [x2]
/*     92 */	sdiv	x3, x1, x5
/*     92 */	msub	x1, x5, x3, x1
/*     92 */	cbnz	x1, .L2231
/*     92 */	ldr	x1, [x2, -8]
/*     92 */	mul	x2, x1, x3
/*     92 */	b	.L2234
.L2231:
/*     92 */	ldr	x2, [x2, -8]
/*     92 */	cmp	x2, x1
/*     92 */	blt	.L2233
/*     92 */	madd	x2, x2, x3, x1
/*     92 */	b	.L2234
.L2233:
/*     92 */	add	x3, x3, 1
/*     92 */	mul	x2, x2, x3
.L2234:
/*     92 */	sub	x1, x3, 1
/*     92 */	add	x1, x1, x2
/*     92 */	cbz	x3, .L2244
	.loc 38 113 0 is_stmt 0
..LDL34:
/*    113 */	ldr	x7, [x0, 24]	//  "rv"
	.loc 38 116 0
..LDL35:
/*    116 */	fmov	d5, 1.000000e+00
	.loc 38 115 0
..LDL36:
/*    115 */	ldr	x6, [x0, 16]	//  "xv"
	.loc 38 110 0
..LDL37:
/*    110 */	cntd	x5, ALL, mul 1
	.loc 38 93 0
..LDL38:
/*     93 */	sxtw	x13, w2
.L2236:					// :entr
	.loc 37 1506 0 is_stmt 1
..LDL39:
/*   1506 */	ldr	x2, [x0, 32]	//  "A"
	.loc 38 97 0
..LDL40:
/*     97 */	ldr	x3, [x0, 8]	//  "matrixDiagonal"
	.loc 38 98 0
..LDL41:
/*     98 */	fmov	z1.d, 0.000000e+00
	.loc 37 1506 0
..LDL42:
/*   1506 */	ldr	x9, [x2, 280]	//  (*)
	.loc 38 94 0
..LDL43:
/*     94 */	ldp	x8, x10, [x2, 64]	//  (*)
	.loc 38 96 0
..LDL44:
/*     96 */	ldr	x2, [x2, 48]	//  (*)
	.loc 37 1506 0
..LDL45:
/*   1506 */	ldr	x9, [x9, x4]	//  (*)
	.loc 38 93 0
..LDL46:
/*     93 */	ldrsw	x9, [x9, x13, lsl #2]	//  (*)
	.loc 38 94 0
..LDL47:
/*     94 */	ldr	x10, [x10, x9, lsl #3]	//  (*)
	.loc 38 97 0
..LDL48:
/*     97 */	ldr	x3, [x3, x9, lsl #3]	//  (*)
	.loc 38 95 0
..LDL49:
/*     95 */	ldr	x8, [x8, x9, lsl #3]	//  (*)
	.loc 38 96 0
..LDL50:
/*     96 */	ldrb	w14, [x2, x9]	//  (*)
	.loc 38 97 0
..LDL51:
/*     97 */	ldr	d0, [x3]	//  (*)
	.loc 38 102 0
..LDL52:
/*    102 */	cmp	w14, 0
/*    102 */	ble	.L2241
/*    102 */	mov	w2, 0
	.loc 38 103 0 is_stmt 0
..LDL53:
/*    103 */	sxtw	x11, w14
	.loc 38 107 0
..LDL54:
/*    107 */	ldr	x12, [x0, 16]	//  "xv"
	.p2align 5
 mov      x1, #111        // OSACA START
  .byte    213,3,32,31     // OSACA START
.L2239:					// :entr:term
	.loc 38 103 0 is_stmt 1
..LDL55:
/*    103 */	sxtw	x16, w2
	.loc 38 105 0
..LDL56:
/*    105 */	sxtw	x3, w2
	.loc 38 103 0
..LDL57:
/*    103 */	whilelo	p0.d, x16, x11
	.loc 38 106 0
..LDL58:
/*    106 */	add	x15, x8, x3, lsl #2
	.loc 38 110 0
..LDL59:
/*    110 */	add	x2, x16, x5
	.loc 38 105 0
..LDL60:
/*    105 */	add	x3, x10, x3, lsl #3
	.loc 38 110 0
..LDL61:
/*    110 */	cmp	w2, w14
	.loc 38 106 0
..LDL62:
/*    106 */	ld1sw	{z3.d}, p0/z, [x15, 0, mul vl]	//  (*)
	.loc 38 105 0
..LDL63:
/*    105 */	ld1d	{z2.d}, p0/z, [x3, 0, mul vl]	//  (*)
	.loc 38 107 0
..LDL64:
/*    107 */	ld1d	{z3.d}, p0/z, [x12, z3.d, lsl #3]	//  (*)
	.loc 38 109 0
..LDL65:
/*    109 */	fmla	z1.d, p0/m, z3.d, z2.d
	.loc 38 110 0 is_stmt 0
..LDL66:
/*    110 */	blt	.L2239
  mov      x1, #222        // OSACA END
  .byte    213,3,32,31     // OSACA END
.L2241:					// :term
	.loc 38 112 0 is_stmt 1
..LDL67:
/*    112 */	ptrue	p0.d, ALL
	.loc 38 116 0
..LDL68:
	.loc 38 113 0 is_stmt 0
..LDL69:
/*    113 */	ldr	d4, [x7, x9, lsl #3]	//  (*)
	.loc 38 116 0
..LDL70:
/*    116 */	frecpe	d3, d0
	.loc 38 117 0 is_stmt 1
..LDL71:
/*    117 */	add	x13, x13, 1
	.loc 38 116 0
..LDL72:
	.loc 38 115 0 is_stmt 0
..LDL73:
/*    115 */	ldr	d6, [x6, x9, lsl #3]	//  (*)
	.loc 38 117 0 is_stmt 1
..LDL74:
/*    117 */	cmp	x13, x1
	.loc 38 112 0
..LDL75:
/*    112 */	faddv	d16, p0, z1.d
	.loc 38 116 0
..LDL76:
/*    116 */	fmsub	d2, d0, d3, d5
/*    116 */	fmadd	d7, d2, d2, d2
/*    116 */	fmul	d1, d2, d2
/*    116 */	fsub	d4, d4, d16
/*    116 */	fmadd	d1, d1, d1, d2
/*    116 */	fmadd	d0, d6, d0, d4
/*    116 */	fmul	d0, d0, d3
/*    116 */	fmadd	d2, d7, d0, d0
/*    116 */	fmadd	d0, d1, d2, d0
/*    116 */	str	d0, [x6, x9, lsl #3]	//  (*)
	.loc 38 117 0 is_stmt 0
..LDL77:
/*    117 */	bls	.L2236
	.loc 38 117 0 is_stmt 1
..LDL78:
.L2244:
/*    117 */	add	x19, sp, 32
/*    117 */	ldr	x0, [x19, -16]
/*    117 */	bl	__mpc_obar
/*    117 */	ldr	x0, [x19, -16]
/*    117 */	bl	__mpc_obar
/*    ??? */	add	sp, sp, 96
	.cfi_def_cfa_offset 32
/*    ??? */	ldp	x19, x30, [sp, 8]	//  (*)
	.cfi_restore 19
	.cfi_restore 30
/*    117 */	add	sp, sp, 32
	.cfi_def_cfa_offset 0
/*    117 */	ret	
..D2.pchi:
	.cfi_endproc
.LFE1:
	.size	_Z20ComputeSYMGS_TDG_SVERK19SparseMatrix_STRUCTRK13Vector_STRUCTRS2_R9TraceData._OMP_1, .-_Z20ComputeSYMGS_TDG_SVERK19SparseMatrix_STRUCTRK13Vector_STRUCTRS2_R9TraceData._OMP_1
	.ident	"$Compiler: Fujitsu C/C++ Compiler 4.7.0 (Nov 10 2021 09:37:15) ../src/ComputeSYMGS.cpp _Z20ComputeSYMGS_TDG_SVERK19SparseMatrix_STRUCTRK13Vector_STRUCTRS2_R9TraceData._OMP_2 $"
	.text
	.align	2
	.type	_Z20ComputeSYMGS_TDG_SVERK19SparseMatrix_STRUCTRK13Vector_STRUCTRS2_R9TraceData._OMP_2, %function
_Z20ComputeSYMGS_TDG_SVERK19SparseMatrix_STRUCTRK13Vector_STRUCTRS2_R9TraceData._OMP_2:
	.loc 38 125 0
..LDL79:
.LFB2:
	.cfi_startproc
/*    117 */	sub	sp, sp, 32
	.cfi_def_cfa_offset 32
/*    ??? */	stp	x19, x30, [sp, 8]	//  (*)
	.cfi_offset 30, -16
	.cfi_offset 19, -24
/*    ??? */	sub	sp, sp, 96
	.cfi_def_cfa_offset 128
/*    117 */	str	x1, [sp, 32]
/*    117 */	str	x2, [sp, 24]
/*    117 */	str	x3, [sp, 16]
/*    117 */	str	x4, [sp, 8]
	.loc 38 125 0 is_stmt 0
..LDL80:
	.loc 38 125 0 is_stmt 0
..LDL81:
	.loc 38 128 0 is_stmt 1
..LDL82:
/*    128 */	ldrsw	x3, [x0]	//  "l"
	.loc 37 1506 0
..LDL83:
/*   1506 */	ldr	x1, [x0, 32]	//  "A"
/*   1506 */	add	x2, x3, x3
/*   1506 */	ldr	x1, [x1, 280]	//  (*)
/*   1506 */	add	x2, x2, x3
/*   1506 */	lsl	x3, x2, 3
	.loc 37 641 0
..LDL84:
/*    641 */	add	x2, x3, 8
/*    641 */	ldr	x2, [x1, x2]	//  (*)
/*    641 */	ldr	x1, [x1, x3]	//  (*)
/*    641 */	sub	x1, x2, x1
/*    641 */	asr	x2, x1, 1
/*    641 */	add	x1, x1, x2, lsr #62
/*    641 */	asr	x1, x1, 2
	.loc 38 128 0
..LDL85:
/*    128 */	sub	x1, x1, 1
/*    128 */	cmp	w1, 0
/*    128 */	blt	.L2263
/*    128 */	sxtw	x2, w1
/*    128 */	add	x5, sp, 32
/*    128 */	add	x1, x2, 1
/*    128 */	ldr	x6, [x5]
/*    128 */	sdiv	x4, x1, x6
/*    128 */	msub	x1, x6, x4, x1
/*    128 */	cbnz	x1, .L2250
/*    128 */	ldr	x1, [x5, -8]
/*    128 */	msub	x2, x1, x4, x2
/*    128 */	b	.L2253
.L2250:
/*    128 */	ldr	x5, [x5, -8]
/*    128 */	cmp	x5, x1
/*    128 */	blt	.L2252
/*    128 */	madd	x1, x5, x4, x1
/*    128 */	sub	x2, x2, x1
/*    128 */	b	.L2253
.L2252:
/*    128 */	add	x4, x4, 1
/*    128 */	msub	x2, x5, x4, x2
.L2253:
/*    128 */	mov	x1, 0
/*    128 */	sub	x1, x1, x4
/*    128 */	add	x1, x1, 1
/*    128 */	add	x1, x1, x2
/*    128 */	cbz	x4, .L2263
	.loc 38 149 0 is_stmt 0
..LDL86:
/*    149 */	ldr	x4, [x0, 24]	//  "rv"
	.loc 38 151 0
..LDL87:
/*    151 */	ldr	x5, [x0, 16]	//  "xv"
	.loc 38 128 0
..LDL88:
/*    128 */	sub	w6, w2, w1
/*    128 */	cmp	w2, w1
	.loc 38 152 0
..LDL89:
/*    152 */	fmov	d0, 1.000000e+00
	.loc 38 128 0
..LDL90:
/*    128 */	add	w1, w6, 1
	.loc 38 146 0
..LDL91:
/*    146 */	cntd	x7, ALL, mul 1
	.loc 38 128 0
..LDL92:
/*    128 */	csinc	w6, w1, wzr, ge
	.loc 38 129 0
..LDL93:
/*    129 */	sxtw	x13, w2
.L2255:					// :entr
	.loc 37 1506 0 is_stmt 1
..LDL94:
/*   1506 */	ldr	x1, [x0, 32]	//  "A"
	.loc 38 133 0
..LDL95:
/*    133 */	ldr	x2, [x0, 8]	//  "matrixDiagonal"
	.loc 38 134 0
..LDL96:
/*    134 */	fmov	z4.d, 0.000000e+00
	.loc 37 1506 0
..LDL97:
/*   1506 */	ldr	x8, [x1, 280]	//  (*)
	.loc 38 130 0
..LDL98:
/*    130 */	ldp	x9, x10, [x1, 64]	//  (*)
	.loc 38 132 0
..LDL99:
/*    132 */	ldr	x1, [x1, 48]	//  (*)
	.loc 37 1506 0
..LDL100:
/*   1506 */	ldr	x8, [x8, x3]	//  (*)
	.loc 38 129 0
..LDL101:
/*    129 */	ldrsw	x8, [x8, x13, lsl #2]	//  (*)
	.loc 38 133 0
..LDL102:
/*    133 */	ldr	x2, [x2, x8, lsl #3]	//  (*)
	.loc 38 131 0
..LDL103:
/*    131 */	ldr	x12, [x9, x8, lsl #3]	//  (*)
	.loc 38 130 0
..LDL104:
/*    130 */	ldr	x11, [x10, x8, lsl #3]	//  (*)
	.loc 38 132 0
..LDL105:
/*    132 */	ldrb	w9, [x1, x8]	//  (*)
	.loc 38 133 0
..LDL106:
/*    133 */	ldr	d6, [x2]	//  (*)
	.loc 38 138 0
..LDL107:
/*    138 */	cmp	w9, 0
/*    138 */	ble	.L2260
/*    138 */	mov	w1, 0
	.loc 38 139 0 is_stmt 0
..LDL108:
/*    139 */	sxtw	x10, w9
	.loc 38 143 0
..LDL109:
/*    143 */	ldr	x14, [x0, 16]	//  "xv"
	.p2align 5
.L2258:					// :entr:term
	.loc 38 139 0 is_stmt 1
..LDL110:
/*    139 */	sxtw	x16, w1
	.loc 38 141 0
..LDL111:
/*    141 */	sxtw	x2, w1
	.loc 38 139 0
..LDL112:
/*    139 */	whilelo	p0.d, x16, x10
	.loc 38 142 0
..LDL113:
/*    142 */	add	x15, x12, x2, lsl #2
	.loc 38 146 0
..LDL114:
/*    146 */	add	x1, x16, x7
	.loc 38 141 0
..LDL115:
/*    141 */	add	x2, x11, x2, lsl #3
	.loc 38 146 0
..LDL116:
/*    146 */	cmp	w1, w9
	.loc 38 142 0
..LDL117:
/*    142 */	ld1sw	{z2.d}, p0/z, [x15, 0, mul vl]	//  (*)
	.loc 38 141 0
..LDL118:
/*    141 */	ld1d	{z1.d}, p0/z, [x2, 0, mul vl]	//  (*)
	.loc 38 143 0
..LDL119:
/*    143 */	ld1d	{z2.d}, p0/z, [x14, z2.d, lsl #3]	//  (*)
	.loc 38 145 0
..LDL120:
/*    145 */	fmla	z4.d, p0/m, z2.d, z1.d
	.loc 38 146 0 is_stmt 0
..LDL121:
/*    146 */	blt	.L2258
.L2260:					// :term
	.loc 38 148 0 is_stmt 1
..LDL122:
/*    148 */	ptrue	p0.d, ALL
	.loc 38 152 0
..LDL123:
	.loc 38 149 0 is_stmt 0
..LDL124:
/*    149 */	ldr	d3, [x4, x8, lsl #3]	//  (*)
	.loc 38 152 0
..LDL125:
/*    152 */	frecpe	d2, d6
	.loc 38 153 0 is_stmt 1
..LDL126:
/*    153 */	sub	x13, x13, 1
	.loc 38 152 0
..LDL127:
	.loc 38 151 0 is_stmt 0
..LDL128:
/*    151 */	ldr	d1, [x5, x8, lsl #3]	//  (*)
	.loc 38 153 0 is_stmt 1
..LDL129:
/*    153 */	subs	w6, w6, 1
	.loc 38 148 0
..LDL130:
/*    148 */	faddv	d16, p0, z4.d
	.loc 38 152 0
..LDL131:
/*    152 */	fmsub	d4, d6, d2, d0
/*    152 */	fmadd	d5, d4, d4, d4
/*    152 */	fmul	d7, d4, d4
/*    152 */	fsub	d3, d3, d16
/*    152 */	fmadd	d4, d7, d7, d4
/*    152 */	fmadd	d1, d1, d6, d3
/*    152 */	fmul	d1, d1, d2
/*    152 */	fmadd	d2, d5, d1, d1
/*    152 */	fmadd	d1, d4, d2, d1
/*    152 */	str	d1, [x5, x8, lsl #3]	//  (*)
	.loc 38 153 0 is_stmt 0
..LDL132:
/*    153 */	bne	.L2255
	.loc 38 153 0 is_stmt 1
..LDL133:
.L2263:
/*    153 */	add	x19, sp, 32
/*    153 */	ldr	x0, [x19, -16]
/*    153 */	bl	__mpc_obar
/*    153 */	ldr	x0, [x19, -16]
/*    153 */	bl	__mpc_obar
/*    ??? */	add	sp, sp, 96
	.cfi_def_cfa_offset 32
/*    ??? */	ldp	x19, x30, [sp, 8]	//  (*)
	.cfi_restore 19
	.cfi_restore 30
/*    153 */	add	sp, sp, 32
	.cfi_def_cfa_offset 0
/*    153 */	ret	
..D3.pchi:
	.cfi_endproc
.LFE2:
	.size	_Z20ComputeSYMGS_TDG_SVERK19SparseMatrix_STRUCTRK13Vector_STRUCTRS2_R9TraceData._OMP_2, .-_Z20ComputeSYMGS_TDG_SVERK19SparseMatrix_STRUCTRK13Vector_STRUCTRS2_R9TraceData._OMP_2
	.ident	"$Compiler: Fujitsu C/C++ Compiler 4.7.0 (Nov 10 2021 09:37:15) ../src/ComputeSYMGS.cpp _Z26ComputeFusedSYMGS_SPMV_SVERK19SparseMatrix_STRUCTRK13Vector_STRUCTRS2_S5_R9TraceData $"
	.text
	.align	2
	.global	_Z26ComputeFusedSYMGS_SPMV_SVERK19SparseMatrix_STRUCTRK13Vector_STRUCTRS2_S5_R9TraceData
	.type	_Z26ComputeFusedSYMGS_SPMV_SVERK19SparseMatrix_STRUCTRK13Vector_STRUCTRS2_S5_R9TraceData, %function
_Z26ComputeFusedSYMGS_SPMV_SVERK19SparseMatrix_STRUCTRK13Vector_STRUCTRS2_S5_R9TraceData:
	.loc 38 169 0
..LDL134:
.LFB3:
	.cfi_startproc
/*    248 */	sub	sp, sp, 48
	.cfi_def_cfa_offset 48
/*    ??? */	str	x30, [sp, 32]	//  (*)
	.cfi_offset 30, -16
/*    ??? */	stp	x19, x20, [sp, 16]	//  (*)
	.cfi_offset 19, -32
	.cfi_offset 20, -24
/*    ??? */	stp	x21, x22, [sp]	//  (*)
	.cfi_offset 21, -48
	.cfi_offset 22, -40
/*    ??? */	sub	sp, sp, 80
	.cfi_def_cfa_offset 128
/*    169 */	add	x19, sp, 16
/*    169 */	str	x0, [x19, 40]
	.loc 38 170 0
..LDL135:
/*    170 */	ldr	w5, [x2]	//  (*)
/*    170 */	ldr	w4, [x0, 36]	//  (*)
/*    170 */	cmp	w5, w4
/*    170 */	bne	.L2278
	.loc 38 176 0
..LDL136:
/*    176 */	ldr	x1, [x1, 8]	//  (*)
/*    176 */	str	x1, [x19, 32]
	.loc 38 177 0
..LDL137:
/*    177 */	ldr	x1, [x2, 8]	//  (*)
/*    177 */	str	x1, [x19, 24]
	.loc 38 178 0
..LDL138:
/*    178 */	ldr	x1, [x0, 80]	//  (*)
/*    178 */	str	x1, [x19, 16]
	.loc 38 179 0
..LDL139:
/*    179 */	ldr	x1, [x3, 8]	//  (*)
/*    179 */	str	x1, [x19, 8]
	.loc 38 184 0
..LDL140:
/*    184 */	str	wzr, [x19, 4]
	.loc 37 641 0
..LDL141:
/*    641 */	ldp	x0, x1, [x0, 280]	//  (*)
/*    641 */	sub	x0, x1, x0
/*    641 */	mov	x1, 24
/*    641 */	sdiv	x0, x0, x1
	.loc 38 184 0
..LDL142:
/*    184 */	cbz	x0, .L2272
	.loc 38 186 0 is_stmt 0
..LDL143:
/*    186 */	adrp	x0, _Z26ComputeFusedSYMGS_SPMV_SVERK19SparseMatrix_STRUCTRK13Vector_STRUCTRS2_S5_R9TraceData._OMP_3
	.loc 37 641 0
..LDL144:
/*    641 */	mov	x20, 24
	.loc 38 212 0
..LDL145:
/*    212 */	add	x21, x19, 40
	.loc 38 186 0
..LDL146:
/*    186 */	add	x22, x0, :lo12:_Z26ComputeFusedSYMGS_SPMV_SVERK19SparseMatrix_STRUCTRK13Vector_STRUCTRS2_S5_R9TraceData._OMP_3
	.p2align 5
.L2270:					// :entr:term
	.loc 38 186 0 is_stmt 0
..LDL147:
/*    186 */	mov	x2, 0
/*    186 */	mov	x0, x22
/*    186 */	mov	x1, x19
/*    186 */	bl	__mpc_opar
	.loc 38 212 0 is_stmt 1
..LDL148:
/*    212 */	ldr	w0, [x21, -36]
	.loc 37 641 0
..LDL149:
/*    641 */	ldr	x2, [x21]
	.loc 38 212 0
..LDL150:
/*    212 */	add	w0, w0, 1
/*    212 */	str	w0, [x21, -36]
/*    212 */	sxtw	x1, w0
	.loc 37 641 0
..LDL151:
/*    641 */	ldp	x2, x0, [x2, 280]	//  (*)
/*    641 */	sub	x0, x0, x2
/*    641 */	sdiv	x0, x0, x20
	.loc 38 212 0
..LDL152:
/*    212 */	cmp	x1, x0
/*    212 */	bcc	.L2270
.L2272:
	.loc 37 641 0
..LDL153:
/*    641 */	ldr	x0, [x19, 40]
/*    641 */	ldp	x0, x1, [x0, 280]	//  (*)
/*    641 */	sub	x0, x1, x0
/*    641 */	mov	x1, 24
/*    641 */	sdiv	x0, x0, x1
	.loc 38 217 0
..LDL154:
/*    217 */	sub	x0, x0, 1
/*    217 */	str	w0, [x19]
/*    217 */	cmp	w0, 0
/*    217 */	blt	.L2277
	.loc 38 219 0 is_stmt 0
..LDL155:
/*    219 */	adrp	x0, _Z26ComputeFusedSYMGS_SPMV_SVERK19SparseMatrix_STRUCTRK13Vector_STRUCTRS2_S5_R9TraceData._OMP_4
/*    219 */	add	x20, x0, :lo12:_Z26ComputeFusedSYMGS_SPMV_SVERK19SparseMatrix_STRUCTRK13Vector_STRUCTRS2_S5_R9TraceData._OMP_4
	.p2align 5
.L2275:					// :entr:term
	.loc 38 219 0 is_stmt 0
..LDL156:
/*    219 */	mov	x2, 0
/*    219 */	mov	x0, x20
/*    219 */	mov	x1, x19
/*    219 */	bl	__mpc_opar
	.loc 38 249 0 is_stmt 1
..LDL157:
/*    249 */	ldr	w0, [x19]
/*    249 */	sub	w0, w0, 1
/*    249 */	str	w0, [x19]
/*    249 */	cmp	w0, 0
/*    249 */	bge	.L2275
.L2277:
	.loc 38 251 0
..LDL158:
/*    251 */	mov	w0, 0
/*    251 */	b	.L2279
.L2278:
	.loc 38 170 0
..LDL159:
/*    170 */	adrp	x0, .LR.3
/*    170 */	adrp	x1, .LR.2
/*    170 */	mov	w2, 170
/*    170 */	add	x0, x0, :lo12:.LR.3
/*    170 */	add	x1, x1, :lo12:.LR.2
/*    170 */	adrp	x3, .LR.8
/*    170 */	add	x3, x3, :lo12:.LR.8
/*    170 */	bl	__assert_fail
.L2279:					// :epi:term
	.loc 38 252 0
..LDL160:
/*    ??? */	add	sp, sp, 80
	.cfi_def_cfa_offset 48
/*    ??? */	ldp	x19, x20, [sp, 16]	//  (*)
	.cfi_restore 19
	.cfi_restore 20
/*    ??? */	ldp	x21, x22, [sp]	//  (*)
	.cfi_restore 21
	.cfi_restore 22
/*    ??? */	ldr	x30, [sp, 32]	//  (*)
	.cfi_restore 30
/*    252 */	add	sp, sp, 48
	.cfi_def_cfa_offset 0
/*    252 */	ret	
..D4.pchi:
	.cfi_endproc
.LFE3:
	.size	_Z26ComputeFusedSYMGS_SPMV_SVERK19SparseMatrix_STRUCTRK13Vector_STRUCTRS2_S5_R9TraceData, .-_Z26ComputeFusedSYMGS_SPMV_SVERK19SparseMatrix_STRUCTRK13Vector_STRUCTRS2_S5_R9TraceData
	.ident	"$Compiler: Fujitsu C/C++ Compiler 4.7.0 (Nov 10 2021 09:37:15) ../src/ComputeSYMGS.cpp _Z26ComputeFusedSYMGS_SPMV_SVERK19SparseMatrix_STRUCTRK13Vector_STRUCTRS2_S5_R9TraceData._OMP_3 $"
	.text
	.align	2
	.type	_Z26ComputeFusedSYMGS_SPMV_SVERK19SparseMatrix_STRUCTRK13Vector_STRUCTRS2_S5_R9TraceData._OMP_3, %function
_Z26ComputeFusedSYMGS_SPMV_SVERK19SparseMatrix_STRUCTRK13Vector_STRUCTRS2_S5_R9TraceData._OMP_3:
	.loc 38 186 0
..LDL161:
.LFB4:
	.cfi_startproc
/*    161 */	sub	sp, sp, 32
	.cfi_def_cfa_offset 32
/*    ??? */	stp	x19, x30, [sp, 8]	//  (*)
	.cfi_offset 30, -16
	.cfi_offset 19, -24
/*    ??? */	sub	sp, sp, 96
	.cfi_def_cfa_offset 128
/*    161 */	str	x1, [sp, 32]
/*    161 */	str	x2, [sp, 24]
/*    161 */	str	x3, [sp, 16]
/*    161 */	str	x4, [sp, 8]
	.loc 38 186 0 is_stmt 0
..LDL162:
	.loc 38 186 0 is_stmt 0
..LDL163:
	.loc 38 188 0 is_stmt 1
..LDL164:
/*    188 */	ldrsw	x3, [x0, 4]	//  "l"
	.loc 37 1506 0
..LDL165:
/*   1506 */	ldr	x1, [x0, 40]	//  "A"
/*   1506 */	add	x2, x3, x3
/*   1506 */	ldr	x1, [x1, 280]	//  (*)
/*   1506 */	add	x2, x2, x3
/*   1506 */	lsl	x4, x2, 3
	.loc 37 641 0
..LDL166:
/*    641 */	add	x2, x4, 8
/*    641 */	ldr	x2, [x1, x2]	//  (*)
/*    641 */	ldr	x1, [x1, x4]	//  (*)
/*    641 */	sub	x1, x2, x1
/*    641 */	asr	x2, x1, 1
/*    641 */	add	x1, x1, x2, lsr #62
/*    641 */	asr	x1, x1, 2
/*    188 */	cbz	x1, .L2297
	.loc 38 188 0
..LDL167:
/*    188 */	add	x2, sp, 32
/*    188 */	ldr	x5, [x2]
/*    188 */	sdiv	x3, x1, x5
/*    188 */	msub	x1, x5, x3, x1
/*    188 */	cbnz	x1, .L2284
/*    188 */	ldr	x1, [x2, -8]
/*    188 */	mul	x2, x1, x3
/*    188 */	b	.L2287
.L2284:
/*    188 */	ldr	x2, [x2, -8]
/*    188 */	cmp	x2, x1
/*    188 */	blt	.L2286
/*    188 */	madd	x2, x2, x3, x1
/*    188 */	b	.L2287
.L2286:
/*    188 */	add	x3, x3, 1
/*    188 */	mul	x2, x2, x3
.L2287:
/*    188 */	sub	x1, x3, 1
/*    188 */	add	x1, x1, x2
/*    188 */	cbz	x3, .L2297
	.loc 38 207 0 is_stmt 0
..LDL168:
/*    207 */	ldr	x7, [x0, 32]	//  "rv"
	.loc 38 210 0
..LDL169:
/*    210 */	fmov	d5, 1.000000e+00
	.loc 38 209 0
..LDL170:
/*    209 */	ldr	x6, [x0, 24]	//  "xv"
	.loc 38 204 0
..LDL171:
/*    204 */	cntd	x5, ALL, mul 1
	.loc 38 189 0
..LDL172:
/*    189 */	sxtw	x13, w2
.L2289:					// :entr
	.loc 37 1506 0 is_stmt 1
..LDL173:
/*   1506 */	ldr	x2, [x0, 40]	//  "A"
	.loc 38 193 0
..LDL174:
/*    193 */	ldr	x3, [x0, 16]	//  "matrixDiagonal"
	.loc 38 194 0
..LDL175:
/*    194 */	fmov	z1.d, 0.000000e+00
	.loc 37 1506 0
..LDL176:
/*   1506 */	ldr	x9, [x2, 280]	//  (*)
	.loc 38 190 0
..LDL177:
/*    190 */	ldp	x8, x10, [x2, 64]	//  (*)
	.loc 38 192 0
..LDL178:
/*    192 */	ldr	x2, [x2, 48]	//  (*)
	.loc 37 1506 0
..LDL179:
/*   1506 */	ldr	x9, [x9, x4]	//  (*)
	.loc 38 189 0
..LDL180:
/*    189 */	ldrsw	x9, [x9, x13, lsl #2]	//  (*)
	.loc 38 190 0
..LDL181:
/*    190 */	ldr	x10, [x10, x9, lsl #3]	//  (*)
	.loc 38 193 0
..LDL182:
/*    193 */	ldr	x3, [x3, x9, lsl #3]	//  (*)
	.loc 38 191 0
..LDL183:
/*    191 */	ldr	x8, [x8, x9, lsl #3]	//  (*)
	.loc 38 192 0
..LDL184:
/*    192 */	ldrb	w14, [x2, x9]	//  (*)
	.loc 38 193 0
..LDL185:
/*    193 */	ldr	d0, [x3]	//  (*)
	.loc 38 196 0
..LDL186:
/*    196 */	cmp	w14, 0
/*    196 */	ble	.L2294
/*    196 */	mov	w2, 0
	.loc 38 197 0 is_stmt 0
..LDL187:
/*    197 */	sxtw	x11, w14
	.loc 38 201 0
..LDL188:
/*    201 */	ldr	x12, [x0, 24]	//  "xv"
	.p2align 5
.L2292:					// :entr:term
	.loc 38 197 0 is_stmt 1
..LDL189:
/*    197 */	sxtw	x16, w2
	.loc 38 199 0
..LDL190:
/*    199 */	sxtw	x3, w2
	.loc 38 197 0
..LDL191:
/*    197 */	whilelo	p0.d, x16, x11
	.loc 38 200 0
..LDL192:
/*    200 */	add	x15, x8, x3, lsl #2
	.loc 38 204 0
..LDL193:
/*    204 */	add	x2, x16, x5
	.loc 38 199 0
..LDL194:
/*    199 */	add	x3, x10, x3, lsl #3
	.loc 38 204 0
..LDL195:
/*    204 */	cmp	w2, w14
	.loc 38 200 0
..LDL196:
/*    200 */	ld1sw	{z3.d}, p0/z, [x15, 0, mul vl]	//  (*)
	.loc 38 199 0
..LDL197:
/*    199 */	ld1d	{z2.d}, p0/z, [x3, 0, mul vl]	//  (*)
	.loc 38 201 0
..LDL198:
/*    201 */	ld1d	{z3.d}, p0/z, [x12, z3.d, lsl #3]	//  (*)
	.loc 38 203 0
..LDL199:
/*    203 */	fmla	z1.d, p0/m, z3.d, z2.d
	.loc 38 204 0 is_stmt 0
..LDL200:
/*    204 */	blt	.L2292
.L2294:					// :term
	.loc 38 206 0 is_stmt 1
..LDL201:
/*    206 */	ptrue	p0.d, ALL
	.loc 38 210 0
..LDL202:
	.loc 38 207 0 is_stmt 0
..LDL203:
/*    207 */	ldr	d4, [x7, x9, lsl #3]	//  (*)
	.loc 38 210 0
..LDL204:
/*    210 */	frecpe	d3, d0
	.loc 38 211 0 is_stmt 1
..LDL205:
/*    211 */	add	x13, x13, 1
	.loc 38 210 0
..LDL206:
	.loc 38 209 0 is_stmt 0
..LDL207:
/*    209 */	ldr	d6, [x6, x9, lsl #3]	//  (*)
	.loc 38 211 0 is_stmt 1
..LDL208:
/*    211 */	cmp	x13, x1
	.loc 38 206 0
..LDL209:
/*    206 */	faddv	d16, p0, z1.d
	.loc 38 210 0
..LDL210:
/*    210 */	fmsub	d2, d0, d3, d5
/*    210 */	fmadd	d7, d2, d2, d2
/*    210 */	fmul	d1, d2, d2
/*    210 */	fsub	d4, d4, d16
/*    210 */	fmadd	d1, d1, d1, d2
/*    210 */	fmadd	d0, d6, d0, d4
/*    210 */	fmul	d0, d0, d3
/*    210 */	fmadd	d2, d7, d0, d0
/*    210 */	fmadd	d0, d1, d2, d0
/*    210 */	str	d0, [x6, x9, lsl #3]	//  (*)
	.loc 38 211 0 is_stmt 0
..LDL211:
/*    211 */	bls	.L2289
	.loc 38 211 0 is_stmt 1
..LDL212:
.L2297:
/*    211 */	add	x19, sp, 32
/*    211 */	ldr	x0, [x19, -16]
/*    211 */	bl	__mpc_obar
/*    211 */	ldr	x0, [x19, -16]
/*    211 */	bl	__mpc_obar
/*    ??? */	add	sp, sp, 96
	.cfi_def_cfa_offset 32
/*    ??? */	ldp	x19, x30, [sp, 8]	//  (*)
	.cfi_restore 19
	.cfi_restore 30
/*    211 */	add	sp, sp, 32
	.cfi_def_cfa_offset 0
/*    211 */	ret	
..D5.pchi:
	.cfi_endproc
.LFE4:
	.size	_Z26ComputeFusedSYMGS_SPMV_SVERK19SparseMatrix_STRUCTRK13Vector_STRUCTRS2_S5_R9TraceData._OMP_3, .-_Z26ComputeFusedSYMGS_SPMV_SVERK19SparseMatrix_STRUCTRK13Vector_STRUCTRS2_S5_R9TraceData._OMP_3
	.ident	"$Compiler: Fujitsu C/C++ Compiler 4.7.0 (Nov 10 2021 09:37:15) ../src/ComputeSYMGS.cpp _Z26ComputeFusedSYMGS_SPMV_SVERK19SparseMatrix_STRUCTRK13Vector_STRUCTRS2_S5_R9TraceData._OMP_4 $"
	.text
	.align	2
	.type	_Z26ComputeFusedSYMGS_SPMV_SVERK19SparseMatrix_STRUCTRK13Vector_STRUCTRS2_S5_R9TraceData._OMP_4, %function
_Z26ComputeFusedSYMGS_SPMV_SVERK19SparseMatrix_STRUCTRK13Vector_STRUCTRS2_S5_R9TraceData._OMP_4:
	.loc 38 219 0
..LDL213:
.LFB5:
	.cfi_startproc
/*    211 */	sub	sp, sp, 32
	.cfi_def_cfa_offset 32
/*    ??? */	stp	x19, x30, [sp, 8]	//  (*)
	.cfi_offset 30, -16
	.cfi_offset 19, -24
/*    ??? */	sub	sp, sp, 96
	.cfi_def_cfa_offset 128
/*    211 */	str	x1, [sp, 32]
/*    211 */	str	x2, [sp, 24]
/*    211 */	str	x3, [sp, 16]
/*    211 */	str	x4, [sp, 8]
	.loc 38 219 0 is_stmt 0
..LDL214:
	.loc 38 219 0 is_stmt 0
..LDL215:
	.loc 38 221 0 is_stmt 1
..LDL216:
/*    221 */	ldrsw	x3, [x0]	//  "l"
	.loc 37 1506 0
..LDL217:
/*   1506 */	ldr	x1, [x0, 40]	//  "A"
/*   1506 */	add	x2, x3, x3
/*   1506 */	ldr	x1, [x1, 280]	//  (*)
/*   1506 */	add	x2, x2, x3
/*   1506 */	lsl	x3, x2, 3
	.loc 37 641 0
..LDL218:
/*    641 */	add	x2, x3, 8
/*    641 */	ldr	x2, [x1, x2]	//  (*)
/*    641 */	ldr	x1, [x1, x3]	//  (*)
/*    641 */	sub	x1, x2, x1
/*    641 */	asr	x2, x1, 1
/*    641 */	add	x1, x1, x2, lsr #62
/*    641 */	asr	x1, x1, 2
	.loc 38 221 0
..LDL219:
/*    221 */	cmp	w1, 0
/*    221 */	blt	.L2316
/*    221 */	sxtw	x2, w1
/*    221 */	add	x5, sp, 32
/*    221 */	add	x6, x2, 1
/*    221 */	ldr	x1, [x5]
/*    221 */	sdiv	x4, x6, x1
/*    221 */	msub	x1, x1, x4, x6
/*    221 */	cbnz	x1, .L2303
/*    221 */	ldr	x1, [x5, -8]
/*    221 */	msub	x2, x1, x4, x2
/*    221 */	b	.L2306
.L2303:
/*    221 */	ldr	x5, [x5, -8]
/*    221 */	cmp	x5, x1
/*    221 */	blt	.L2305
/*    221 */	madd	x1, x5, x4, x1
/*    221 */	sub	x2, x2, x1
/*    221 */	b	.L2306
.L2305:
/*    221 */	add	x4, x4, 1
/*    221 */	msub	x2, x5, x4, x2
.L2306:
/*    221 */	mov	x1, 0
/*    221 */	sub	x1, x1, x4
/*    221 */	add	x1, x1, 1
/*    221 */	add	x1, x1, x2
/*    221 */	cbz	x4, .L2316
	.loc 38 241 0 is_stmt 0
..LDL220:
/*    241 */	ldr	x4, [x0, 32]	//  "rv"
	.loc 38 246 0
..LDL221:
/*    246 */	ldr	x5, [x0, 8]	//  "yv"
	.loc 38 221 0
..LDL222:
/*    221 */	sub	w6, w2, w1
/*    221 */	cmp	w2, w1
	.loc 38 242 0
..LDL223:
/*    242 */	fmov	d4, 1.000000e+00
	.loc 38 240 0
..LDL224:
/*    240 */	ldr	x7, [x0, 24]	//  "xv"
	.loc 38 221 0
..LDL225:
/*    221 */	add	w1, w6, 1
	.loc 38 237 0
..LDL226:
/*    237 */	cntd	x8, ALL, mul 1
	.loc 38 221 0
..LDL227:
/*    221 */	csinc	w6, w1, wzr, ge
	.loc 38 222 0
..LDL228:
/*    222 */	sxtw	x11, w2
.L2308:					// :entr
	.loc 37 1506 0 is_stmt 1
..LDL229:
/*   1506 */	ldr	x2, [x0, 40]	//  "A"
	.loc 38 226 0
..LDL230:
/*    226 */	ldr	x9, [x0, 16]	//  "matrixDiagonal"
	.loc 38 227 0
..LDL231:
/*    227 */	fmov	z1.d, 0.000000e+00
	.loc 37 1506 0
..LDL232:
/*   1506 */	ldr	x12, [x2, 280]	//  (*)
	.loc 38 223 0
..LDL233:
/*    223 */	ldp	x1, x10, [x2, 64]	//  (*)
	.loc 38 225 0
..LDL234:
/*    225 */	ldr	x2, [x2, 48]	//  (*)
	.loc 37 1506 0
..LDL235:
/*   1506 */	ldr	x12, [x12, x3]	//  (*)
	.loc 38 222 0
..LDL236:
/*    222 */	ldrsw	x13, [x12, x11, lsl #2]	//  (*)
	.loc 38 223 0
..LDL237:
/*    223 */	ldr	x12, [x10, x13, lsl #3]	//  (*)
	.loc 38 226 0
..LDL238:
/*    226 */	ldr	x14, [x9, x13, lsl #3]	//  (*)
	.loc 38 224 0
..LDL239:
/*    224 */	ldr	x9, [x1, x13, lsl #3]	//  (*)
	.loc 38 225 0
..LDL240:
/*    225 */	ldrb	w10, [x2, x13]	//  (*)
	.loc 38 226 0
..LDL241:
/*    226 */	ldr	d5, [x14]	//  (*)
	.loc 38 229 0
..LDL242:
/*    229 */	cmp	w10, 0
/*    229 */	ble	.L2313
/*    229 */	mov	w1, 0
	.loc 38 230 0 is_stmt 0
..LDL243:
/*    230 */	sxtw	x14, w10
	.loc 38 234 0
..LDL244:
/*    234 */	ldr	x15, [x0, 24]	//  "xv"
	.p2align 5
.L2311:					// :entr:term
	.loc 38 230 0 is_stmt 1
..LDL245:
/*    230 */	sxtw	x17, w1
	.loc 38 232 0
..LDL246:
/*    232 */	sxtw	x2, w1
	.loc 38 230 0
..LDL247:
/*    230 */	whilelo	p0.d, x17, x14
	.loc 38 233 0
..LDL248:
/*    233 */	add	x16, x9, x2, lsl #2
	.loc 38 237 0
..LDL249:
/*    237 */	add	x1, x17, x8
	.loc 38 232 0
..LDL250:
/*    232 */	add	x2, x12, x2, lsl #3
	.loc 38 237 0
..LDL251:
/*    237 */	cmp	w1, w10
	.loc 38 233 0
..LDL252:
/*    233 */	ld1sw	{z2.d}, p0/z, [x16, 0, mul vl]	//  (*)
	.loc 38 232 0
..LDL253:
/*    232 */	ld1d	{z0.d}, p0/z, [x2, 0, mul vl]	//  (*)
	.loc 38 234 0
..LDL254:
/*    234 */	ld1d	{z2.d}, p0/z, [x15, z2.d, lsl #3]	//  (*)
	.loc 38 236 0
..LDL255:
/*    236 */	fmla	z1.d, p0/m, z2.d, z0.d
	.loc 38 237 0 is_stmt 0
..LDL256:
/*    237 */	blt	.L2311
.L2313:					// :term
	.loc 38 239 0 is_stmt 1
..LDL257:
/*    239 */	ptrue	p0.d, ALL
	.loc 38 240 0
..LDL258:
/*    240 */	ldr	d2, [x7, x13, lsl #3]	//  (*)
	.loc 38 242 0
..LDL259:
/*    242 */	frecpe	d0, d5
	.loc 38 248 0
..LDL260:
/*    248 */	sub	x11, x11, 1
	.loc 38 242 0
..LDL261:
	.loc 38 241 0 is_stmt 0
..LDL262:
/*    241 */	ldr	d6, [x4, x13, lsl #3]	//  (*)
	.loc 38 248 0 is_stmt 1
..LDL263:
/*    248 */	subs	w6, w6, 1
	.loc 38 239 0
..LDL264:
/*    239 */	faddv	d16, p0, z1.d
	.loc 38 242 0
..LDL265:
/*    242 */	fmsub	d3, d5, d0, d4
/*    242 */	fmadd	d1, d3, d3, d3
/*    242 */	fmul	d7, d3, d3
	.loc 38 240 0
..LDL266:
/*    240 */	fmsub	d16, d2, d5, d16
	.loc 38 242 0
..LDL267:
/*    242 */	fmadd	d2, d7, d7, d3
/*    242 */	fsub	d3, d6, d16
/*    242 */	fmul	d0, d3, d0
/*    242 */	fmadd	d1, d1, d0, d0
/*    242 */	fmadd	d0, d2, d1, d0
	.loc 38 246 0
..LDL268:
	.loc 38 245 0 is_stmt 0
..LDL269:
/*    245 */	fmadd	d1, d0, d5, d16
	.loc 38 242 0 is_stmt 1
..LDL270:
/*    242 */	str	d0, [x7, x13, lsl #3]	//  (*)
	.loc 38 246 0
..LDL271:
/*    246 */	str	d1, [x5, x13, lsl #3]	//  (*)
	.loc 38 248 0 is_stmt 0
..LDL272:
/*    248 */	bne	.L2308
	.loc 38 248 0 is_stmt 1
..LDL273:
.L2316:
/*    248 */	add	x19, sp, 32
/*    248 */	ldr	x0, [x19, -16]
/*    248 */	bl	__mpc_obar
/*    248 */	ldr	x0, [x19, -16]
/*    248 */	bl	__mpc_obar
/*    ??? */	add	sp, sp, 96
	.cfi_def_cfa_offset 32
/*    ??? */	ldp	x19, x30, [sp, 8]	//  (*)
	.cfi_restore 19
	.cfi_restore 30
/*    248 */	add	sp, sp, 32
	.cfi_def_cfa_offset 0
/*    248 */	ret	
..D6.pchi:
	.cfi_endproc
.LFE5:
	.size	_Z26ComputeFusedSYMGS_SPMV_SVERK19SparseMatrix_STRUCTRK13Vector_STRUCTRS2_S5_R9TraceData._OMP_4, .-_Z26ComputeFusedSYMGS_SPMV_SVERK19SparseMatrix_STRUCTRK13Vector_STRUCTRS2_S5_R9TraceData._OMP_4
	.ident	"$Compiler: Fujitsu C/C++ Compiler 4.7.0 (Nov 10 2021 09:37:15) ../src/ComputeSYMGS.cpp _Z22ComputeSYMGS_BLOCK_SVERK19SparseMatrix_STRUCTRK13Vector_STRUCTRS2_R9TraceData $"
	.text
	.align	2
	.global	_Z22ComputeSYMGS_BLOCK_SVERK19SparseMatrix_STRUCTRK13Vector_STRUCTRS2_R9TraceData
	.type	_Z22ComputeSYMGS_BLOCK_SVERK19SparseMatrix_STRUCTRK13Vector_STRUCTRS2_R9TraceData, %function
_Z22ComputeSYMGS_BLOCK_SVERK19SparseMatrix_STRUCTRK13Vector_STRUCTRS2_R9TraceData:
	.loc 38 260 0
..LDL274:
.LFB6:
	.cfi_startproc
/*    590 */	sub	sp, sp, 64
	.cfi_def_cfa_offset 64
/*    ??? */	str	x30, [sp, 48]	//  (*)
	.cfi_offset 30, -16
/*    ??? */	stp	x19, x20, [sp, 32]	//  (*)
	.cfi_offset 19, -32
	.cfi_offset 20, -24
/*    ??? */	stp	x21, x22, [sp, 16]	//  (*)
	.cfi_offset 21, -48
	.cfi_offset 22, -40
/*    ??? */	str	x23, [sp, 8]	//  (*)
	.cfi_offset 23, -56
/*    ??? */	sub	sp, sp, 64
	.cfi_def_cfa_offset 128
/*    260 */	add	x19, sp, 8
/*    260 */	str	x0, [x19, 32]
	.loc 38 261 0
..LDL275:
/*    261 */	ldr	w4, [x2]	//  (*)
/*    261 */	ldr	w3, [x0, 36]	//  (*)
/*    261 */	cmp	w4, w3
/*    261 */	blt	.L2335
	.loc 38 267 0
..LDL276:
/*    267 */	ldr	x3, [x0, 80]	//  (*)
/*    267 */	str	x3, [x19, 24]
	.loc 38 268 0
..LDL277:
/*    268 */	ldr	x1, [x1, 8]	//  (*)
/*    268 */	str	x1, [x19, 16]
	.loc 38 269 0
..LDL278:
/*    269 */	ldr	x1, [x2, 8]	//  (*)
/*    269 */	str	x1, [x19, 8]
	.loc 38 270 0
..LDL279:
/*    270 */	str	wzr, [x19, 4]
	.loc 37 1506 0
..LDL280:
/*   1506 */	ldr	x0, [x0, 304]	//  (*)
	.loc 38 271 0
..LDL281:
/*    271 */	ldr	w0, [x0]	//  (*)
/*    271 */	str	w0, [x19]
	.loc 38 278 0
..LDL282:
/*    278 */	ldr	x0, [x19, 32]
/*    278 */	ldr	w0, [x0, 344]	//  (*)
/*    278 */	cmp	w0, 0
/*    278 */	ble	.L2327
/*    278 */	mov	w22, 0
	.loc 38 280 0 is_stmt 0
..LDL283:
/*    280 */	mov	x23, 0
	.loc 38 284 0
..LDL284:
/*    284 */	adrp	x0, _Z22ComputeSYMGS_BLOCK_SVERK19SparseMatrix_STRUCTRK13Vector_STRUCTRS2_R9TraceData._OMP_5
/*    284 */	add	x21, x0, :lo12:_Z22ComputeSYMGS_BLOCK_SVERK19SparseMatrix_STRUCTRK13Vector_STRUCTRS2_R9TraceData._OMP_5
	.loc 37 1506 0
..LDL285:
/*   1506 */	add	x20, x19, 32
	.p2align 5
.L2323:					// :entr
	.loc 38 279 0 is_stmt 1
..LDL286:
/*    279 */	cmp	w22, 0
/*    279 */	ble	.L2325
	.loc 38 280 0
..LDL287:
/*    280 */	ldr	w2, [x20, -28]
	.loc 37 1506 0 is_stmt 0
..LDL288:
/*   1506 */	ldr	x0, [x20]
/*   1506 */	ldr	x1, [x0, 304]	//  (*)
	.loc 38 280 0
..LDL289:
/*    280 */	sub	x0, x23, 1
/*    280 */	ldr	w0, [x1, x0, lsl #2]	//  (*)
/*    280 */	add	w0, w2, w0
/*    280 */	str	w0, [x20, -28]
	.loc 38 281 0 is_stmt 1
..LDL290:
/*    281 */	ldr	w1, [x1, x23, lsl #2]	//  (*)
/*    281 */	add	w0, w0, w1
/*    281 */	str	w0, [x20, -32]
.L2325:					// :term
	.loc 38 284 0 is_stmt 0
..LDL291:
/*    284 */	mov	x2, 0
/*    284 */	mov	x0, x21
/*    284 */	mov	x1, x19
/*    284 */	bl	__mpc_opar
	.loc 38 431 0 is_stmt 1
..LDL292:
/*    431 */	add	w22, w22, 1
/*    431 */	add	x23, x23, 1
/*    431 */	ldr	x0, [x19, 32]
/*    431 */	ldr	w0, [x0, 344]	//  (*)
/*    431 */	cmp	w22, w0
/*    431 */	blt	.L2323
.L2327:
	.loc 38 433 0
..LDL293:
/*    433 */	ldr	x1, [x19, 32]
/*    433 */	ldr	w0, [x1, 348]	//  (*)
/*    433 */	sub	w0, w0, 1
/*    433 */	str	w0, [x19, 4]
	.loc 38 434 0
..LDL294:
/*    434 */	ldr	w2, [x1, 344]	//  (*)
	.loc 37 1506 0
..LDL295:
/*   1506 */	ldr	x1, [x1, 304]	//  (*)
	.loc 38 434 0
..LDL296:
/*    434 */	sub	w23, w2, 1
/*    434 */	sxtw	x20, w23
/*    434 */	ldr	w1, [x1, x20, lsl #2]	//  (*)
/*    434 */	sub	w0, w0, w1
/*    434 */	str	w0, [x19]
	.loc 38 438 0
..LDL297:
/*    438 */	cmp	w23, 0
/*    438 */	blt	.L2334
	.loc 38 444 0 is_stmt 0
..LDL298:
/*    444 */	adrp	x0, _Z22ComputeSYMGS_BLOCK_SVERK19SparseMatrix_STRUCTRK13Vector_STRUCTRS2_R9TraceData._OMP_6
	.loc 38 439 0
..LDL299:
/*    439 */	add	x22, x19, 32
	.loc 38 444 0
..LDL300:
/*    444 */	add	x21, x0, :lo12:_Z22ComputeSYMGS_BLOCK_SVERK19SparseMatrix_STRUCTRK13Vector_STRUCTRS2_R9TraceData._OMP_6
	.p2align 5
.L2330:					// :entr
	.loc 38 439 0 is_stmt 1
..LDL301:
/*    439 */	ldr	x1, [x22]
/*    439 */	ldr	w0, [x1, 344]	//  (*)
/*    439 */	sub	w0, w0, 1
/*    439 */	cmp	w23, w0
/*    439 */	bge	.L2332
	.loc 38 440 0
..LDL302:
/*    440 */	ldr	w0, [x22, -28]
	.loc 37 1506 0 is_stmt 0
..LDL303:
/*   1506 */	ldr	x1, [x1, 304]	//  (*)
	.loc 38 440 0
..LDL304:
/*    440 */	add	x2, x20, 1
/*    440 */	ldr	w2, [x1, x2, lsl #2]	//  (*)
/*    440 */	sub	w0, w0, w2
/*    440 */	str	w0, [x22, -28]
	.loc 38 441 0 is_stmt 1
..LDL305:
/*    441 */	ldr	w1, [x1, x20, lsl #2]	//  (*)
/*    441 */	sub	w0, w0, w1
/*    441 */	str	w0, [x22, -32]
.L2332:					// :term
	.loc 38 444 0 is_stmt 0
..LDL306:
/*    444 */	mov	x2, 0
/*    444 */	mov	x0, x21
/*    444 */	mov	x1, x19
/*    444 */	bl	__mpc_opar
	.loc 38 591 0 is_stmt 1
..LDL307:
/*    591 */	subs	w23, w23, 1
/*    591 */	sub	x20, x20, 1
/*    591 */	bpl	.L2330
.L2334:
	.loc 38 594 0
..LDL308:
/*    594 */	mov	w0, 0
/*    594 */	b	.L2336
.L2335:
	.loc 38 261 0
..LDL309:
/*    261 */	adrp	x0, .LR.1
/*    261 */	adrp	x1, .LR.2
/*    261 */	mov	w2, 261
/*    261 */	add	x0, x0, :lo12:.LR.1
/*    261 */	add	x1, x1, :lo12:.LR.2
/*    261 */	adrp	x3, .LR.7
/*    261 */	add	x3, x3, :lo12:.LR.7
/*    261 */	bl	__assert_fail
.L2336:					// :epi:term
	.loc 38 595 0
..LDL310:
/*    ??? */	add	sp, sp, 64
	.cfi_def_cfa_offset 64
/*    ??? */	ldp	x19, x20, [sp, 32]	//  (*)
	.cfi_restore 19
	.cfi_restore 20
/*    ??? */	ldp	x21, x22, [sp, 16]	//  (*)
	.cfi_restore 21
	.cfi_restore 22
/*    ??? */	ldr	x23, [sp, 8]	//  (*)
	.cfi_restore 23
/*    ??? */	ldr	x30, [sp, 48]	//  (*)
	.cfi_restore 30
/*    595 */	add	sp, sp, 64
	.cfi_def_cfa_offset 0
/*    595 */	ret	
..D7.pchi:
	.cfi_endproc
.LFE6:
	.size	_Z22ComputeSYMGS_BLOCK_SVERK19SparseMatrix_STRUCTRK13Vector_STRUCTRS2_R9TraceData, .-_Z22ComputeSYMGS_BLOCK_SVERK19SparseMatrix_STRUCTRK13Vector_STRUCTRS2_R9TraceData
	.ident	"$Compiler: Fujitsu C/C++ Compiler 4.7.0 (Nov 10 2021 09:37:15) ../src/ComputeSYMGS.cpp _Z22ComputeSYMGS_BLOCK_SVERK19SparseMatrix_STRUCTRK13Vector_STRUCTRS2_R9TraceData._OMP_5 $"
	.text
	.align	2
	.type	_Z22ComputeSYMGS_BLOCK_SVERK19SparseMatrix_STRUCTRK13Vector_STRUCTRS2_R9TraceData._OMP_5, %function
_Z22ComputeSYMGS_BLOCK_SVERK19SparseMatrix_STRUCTRK13Vector_STRUCTRS2_R9TraceData._OMP_5:
	.loc 38 284 0
..LDL311:
.LFB7:
	.cfi_startproc
/*    252 */	sub	sp, sp, 64
	.cfi_def_cfa_offset 64
/*    ??? */	stp	x29, x30, [sp, 48]	//  (*)
	.cfi_offset 29, -16
	.cfi_offset 30, -8
/*    ??? */	stp	x19, x20, [sp, 32]	//  (*)
	.cfi_offset 19, -32
	.cfi_offset 20, -24
/*    ??? */	stp	x21, x22, [sp, 16]	//  (*)
	.cfi_offset 21, -48
	.cfi_offset 22, -40
/*    ??? */	stp	x23, x24, [sp]	//  (*)
	.cfi_offset 23, -64
	.cfi_offset 24, -56
/*    ??? */	sub	sp, sp, 64
	.cfi_def_cfa_offset 128
/*    252 */	str	x1, [sp, 32]
/*    252 */	str	x2, [sp, 24]
/*    252 */	str	x3, [sp, 16]
/*    252 */	str	x4, [sp, 8]
	.loc 38 284 0 is_stmt 0
..LDL312:
	.loc 38 284 0 is_stmt 0
..LDL313:
	.loc 38 286 0 is_stmt 1
..LDL314:
/*    286 */	ldr	w1, [x0, 4]	//  "firstBlock"
/*    286 */	ldr	x3, [x0, 32]	//  "A"
/*    286 */	ldr	w2, [x0]	//  "lastBlock"
/*    286 */	ldr	w5, [x3, 336]	//  (*)
/*    286 */	cmp	w1, w2
/*    286 */	bge	.L2374
/*    286 */	sxtw	x3, w2
/*    286 */	sxtw	x1, w1
/*    286 */	sub	x4, x3, 1
/*    286 */	sxtw	x3, w5
/*    286 */	add	x2, sp, 32
/*    286 */	sub	x4, x4, x1
/*    286 */	ldr	x6, [x2]
/*    286 */	sdiv	x4, x4, x3
/*    286 */	add	x7, x4, 1
/*    286 */	sdiv	x4, x7, x6
/*    286 */	msub	x6, x6, x4, x7
/*    286 */	cbnz	x6, .L2341
/*    286 */	ldr	x2, [x2, -8]
/*    286 */	mul	x2, x2, x3
/*    286 */	madd	x2, x2, x4, x1
/*    286 */	b	.L2344
.L2341:
/*    286 */	ldr	x2, [x2, -8]
/*    286 */	cmp	x2, x6
/*    286 */	blt	.L2343
/*    286 */	madd	x2, x2, x4, x6
/*    286 */	madd	x2, x2, x3, x1
/*    286 */	b	.L2344
.L2343:
/*    286 */	add	x4, x4, 1
/*    286 */	mul	x2, x2, x3
/*    286 */	madd	x2, x2, x4, x1
.L2344:
/*    286 */	mul	x1, x3, x4
/*    286 */	sub	x1, x1, x3
/*    286 */	add	x1, x1, x2
/*    286 */	cbz	x4, .L2374
	.loc 38 339 0 is_stmt 0
..LDL315:
/*    339 */	cntd	x7, ALL, mul 1
	.loc 38 291 0 is_stmt 1
..LDL316:
	.loc 38 356 0 is_stmt 0
..LDL317:
/*    356 */	fmov	d2, 1.000000e+00
.L2346:					// :entr
	.loc 38 287 0 is_stmt 1
..LDL318:
/*    287 */	ldr	x3, [x0, 32]	//  "A"
/*    287 */	ldr	w4, [x3, 332]	//  (*)
	.loc 38 288 0
..LDL319:
/*    288 */	ldr	w3, [x3, 336]	//  (*)
	.loc 38 287 0
..LDL320:
/*    287 */	mul	w6, w4, w2
	.loc 38 288 0
..LDL321:
/*    288 */	sdiv	w9, w6, w3
	.loc 38 289 0
..LDL322:
/*    289 */	madd	w4, w4, w3, w6
/*    289 */	sdiv	w3, w4, w3
	.loc 38 291 0
..LDL323:
/*    291 */	sub	w8, w3, w9
/*    291 */	cmp	w9, w3
/*    291 */	bge	.L2371
	.loc 38 294 0 is_stmt 0
..LDL324:
/*    294 */	sxtw	x11, w9
.L2349:					// :entr
	.loc 38 292 0 is_stmt 1
..LDL325:
/*    292 */	ldr	x4, [x0, 32]	//  "A"
/*    292 */	ldr	w12, [x4, 336]	//  (*)
	.loc 37 1506 0
..LDL326:
/*   1506 */	ldr	x10, [x4, 256]	//  (*)
	.loc 38 296 0
..LDL327:
	.loc 38 297 0 is_stmt 0
..LDL328:
/*    297 */	ldr	x3, [x4, 72]	//  (*)
	.loc 38 292 0 is_stmt 1
..LDL329:
/*    292 */	mul	w6, w12, w9
	.loc 38 294 0
..LDL330:
/*    294 */	ldr	w10, [x10, x11, lsl #2]	//  (*)
	.loc 38 296 0
..LDL331:
/*    296 */	cmp	w12, 4
	.loc 38 297 0 is_stmt 0
..LDL332:
/*    297 */	sxtw	x6, w6
	.loc 38 296 0
..LDL333:
/*    296 */	bne	.L2356
	.loc 38 298 0 is_stmt 1
..LDL334:
/*    298 */	add	x13, x6, 1
	.loc 38 299 0
..LDL335:
/*    299 */	add	x12, x6, 2
	.loc 38 302 0
..LDL336:
/*    302 */	ldr	x21, [x4, 64]	//  (*)
	.loc 38 312 0
..LDL337:
/*    312 */	fmov	z1.d, 0.000000e+00
	.loc 38 307 0
..LDL338:
/*    307 */	ldr	x15, [x0, 24]	//  "matrixDiagonal"
	.loc 38 300 0
..LDL339:
/*    300 */	add	x17, x6, 3
	.loc 38 297 0
..LDL340:
/*    297 */	ldr	x22, [x3, x6, lsl #3]	//  (*)
	.loc 38 298 0
..LDL341:
/*    298 */	ldr	x29, [x3, x13, lsl #3]	//  (*)
	.loc 38 299 0
..LDL342:
/*    299 */	ldr	x18, [x3, x12, lsl #3]	//  (*)
	.loc 38 300 0
..LDL343:
/*    300 */	ldr	x14, [x3, x17, lsl #3]	//  (*)
	.loc 38 302 0
..LDL344:
/*    302 */	ldr	x30, [x21, x6, lsl #3]	//  (*)
	.loc 38 303 0
..LDL345:
/*    303 */	ldr	x19, [x21, x13, lsl #3]	//  (*)
	.loc 38 307 0
..LDL346:
/*    307 */	ldr	x4, [x15, x6, lsl #3]	//  (*)
	.loc 38 308 0
..LDL347:
/*    308 */	ldr	x3, [x15, x13, lsl #3]	//  (*)
	.loc 38 309 0
..LDL348:
/*    309 */	ldr	x16, [x15, x12, lsl #3]	//  (*)
	.loc 38 310 0
..LDL349:
/*    310 */	ldr	x15, [x15, x17, lsl #3]	//  (*)
	.loc 38 304 0
..LDL350:
/*    304 */	ldr	x20, [x21, x12, lsl #3]	//  (*)
	.loc 38 305 0
..LDL351:
/*    305 */	ldr	x21, [x21, x17, lsl #3]	//  (*)
	.loc 38 307 0
..LDL352:
/*    307 */	ldr	d19, [x4]	//  (*)
	.loc 38 308 0
..LDL353:
/*    308 */	ldr	d20, [x3]	//  (*)
	.loc 38 309 0
..LDL354:
/*    309 */	ldr	d17, [x16]	//  (*)
	.loc 38 310 0
..LDL355:
/*    310 */	ldr	d0, [x15]	//  (*)
	.loc 38 317 0
..LDL356:
/*    317 */	cmp	w10, 0
/*    317 */	mov	z4.d, z1.d
/*    317 */	mov	z6.d, z1.d
/*    317 */	mov	z18.d, z1.d
/*    317 */	ble	.L2355
/*    317 */	mov	w3, 0
	.loc 38 330 0 is_stmt 0
..LDL357:
/*    330 */	ldr	x15, [x0, 8]	//  "xv"
/*    330 */	mov	z4.d, z1.d
/*    330 */	mov	z6.d, z1.d
	.loc 38 318 0
..LDL358:
/*    318 */	sxtw	x16, w10
	.loc 38 330 0
..LDL359:
/*    330 */	mov	z18.d, z1.d
	.p2align 5
.L2353:					// :entr:term
	.loc 38 318 0 is_stmt 1
..LDL360:
/*    318 */	sxtw	x24, w3
	.loc 38 320 0
..LDL361:
/*    320 */	sxtw	x4, w3
	.loc 38 318 0
..LDL362:
/*    318 */	whilelo	p0.d, x24, x16
	.loc 38 325 0
..LDL363:
/*    325 */	add	x23, x30, x4, lsl #2
	.loc 38 339 0
..LDL364:
/*    339 */	add	x3, x24, x7
/*    339 */	cmp	w3, w10
	.loc 38 325 0
..LDL365:
/*    325 */	ld1sw	{z3.d}, p0/z, [x23, 0, mul vl]	//  (*)
	.loc 38 327 0
..LDL366:
/*    327 */	add	x23, x20, x4, lsl #2
	.loc 38 326 0
..LDL367:
/*    326 */	add	x24, x19, x4, lsl #2
	.loc 38 327 0
..LDL368:
/*    327 */	ld1sw	{z24.d}, p0/z, [x23, 0, mul vl]	//  (*)
	.loc 38 326 0
..LDL369:
/*    326 */	ld1sw	{z5.d}, p0/z, [x24, 0, mul vl]	//  (*)
	.loc 38 320 0
..LDL370:
/*    320 */	add	x23, x22, x4, lsl #3
	.loc 38 328 0
..LDL371:
/*    328 */	add	x24, x21, x4, lsl #2
	.loc 38 320 0
..LDL372:
/*    320 */	ld1d	{z22.d}, p0/z, [x23, 0, mul vl]	//  (*)
	.loc 38 328 0
..LDL373:
/*    328 */	ld1sw	{z16.d}, p0/z, [x24, 0, mul vl]	//  (*)
	.loc 38 321 0
..LDL374:
/*    321 */	add	x23, x29, x4, lsl #3
/*    321 */	ld1d	{z21.d}, p0/z, [x23, 0, mul vl]	//  (*)
	.loc 38 322 0
..LDL375:
/*    322 */	add	x23, x18, x4, lsl #3
	.loc 38 330 0
..LDL376:
/*    330 */	ld1d	{z3.d}, p0/z, [x15, z3.d, lsl #3]	//  (*)
	.loc 38 322 0
..LDL377:
/*    322 */	ld1d	{z7.d}, p0/z, [x23, 0, mul vl]	//  (*)
	.loc 38 323 0
..LDL378:
/*    323 */	add	x4, x14, x4, lsl #3
	.loc 38 332 0
..LDL379:
/*    332 */	ld1d	{z24.d}, p0/z, [x15, z24.d, lsl #3]	//  (*)
	.loc 38 323 0
..LDL380:
/*    323 */	ld1d	{z23.d}, p0/z, [x4, 0, mul vl]	//  (*)
	.loc 38 331 0
..LDL381:
/*    331 */	ld1d	{z5.d}, p0/z, [x15, z5.d, lsl #3]	//  (*)
	.loc 38 333 0
..LDL382:
/*    333 */	ld1d	{z16.d}, p0/z, [x15, z16.d, lsl #3]	//  (*)
	.loc 38 335 0
..LDL383:
/*    335 */	fmla	z1.d, p0/m, z3.d, z22.d
	.loc 38 337 0
..LDL384:
/*    337 */	fmla	z6.d, p0/m, z24.d, z7.d
	.loc 38 336 0
..LDL385:
/*    336 */	fmla	z4.d, p0/m, z5.d, z21.d
	.loc 38 338 0
..LDL386:
/*    338 */	fmla	z18.d, p0/m, z16.d, z23.d
	.loc 38 339 0 is_stmt 0
..LDL387:
/*    339 */	blt	.L2353
.L2355:
	.loc 38 341 0 is_stmt 1
..LDL388:
/*    341 */	ptrue	p0.d, ALL
	.loc 38 352 0
..LDL389:
	.loc 38 347 0 is_stmt 0
..LDL390:
/*    347 */	ldr	x3, [x0, 16]	//  "rv"
	.loc 38 352 0
..LDL391:
/*    352 */	ldr	x4, [x0, 8]	//  "xv"
	.loc 38 341 0 is_stmt 1
..LDL392:
/*    341 */	faddv	d7, p0, z1.d
	.loc 38 343 0
..LDL393:
/*    343 */	faddv	d3, p0, z6.d
	.loc 38 342 0
..LDL394:
/*    342 */	faddv	d1, p0, z4.d
	.loc 38 352 0
..LDL395:
	.loc 38 347 0 is_stmt 0
..LDL396:
/*    347 */	ldr	d6, [x3, x13, lsl #3]	//  (*)
	.loc 38 344 0 is_stmt 1
..LDL397:
/*    344 */	faddv	d4, p0, z18.d
	.loc 38 352 0
..LDL398:
/*    352 */	ldr	d5, [x4, x13, lsl #3]	//  (*)
/*    352 */	fsub	d1, d6, d1
	.loc 38 353 0
..LDL399:
	.loc 38 348 0 is_stmt 0
..LDL400:
/*    348 */	ldr	d6, [x3, x12, lsl #3]	//  (*)
	.loc 38 353 0
..LDL401:
/*    353 */	fsub	d3, d6, d3
	.loc 38 354 0 is_stmt 1
..LDL402:
/*    354 */	ldr	d6, [x4, x17, lsl #3]	//  (*)
	.loc 38 352 0
..LDL403:
/*    352 */	fmadd	d1, d5, d20, d1
	.loc 38 353 0
..LDL404:
/*    353 */	ldr	d5, [x4, x12, lsl #3]	//  (*)
/*    353 */	fmadd	d3, d5, d17, d3
	.loc 38 354 0
..LDL405:
	.loc 38 349 0 is_stmt 0
..LDL406:
/*    349 */	ldr	d5, [x3, x17, lsl #3]	//  (*)
	.loc 38 354 0
..LDL407:
/*    354 */	fsub	d4, d5, d4
/*    354 */	fmadd	d5, d6, d0, d4
	.loc 38 356 0 is_stmt 1
..LDL408:
	.loc 38 346 0 is_stmt 0
..LDL409:
/*    346 */	ldr	d6, [x3, x6, lsl #3]	//  (*)
	.loc 38 351 0
..LDL410:
/*    351 */	ldr	d4, [x4, x6, lsl #3]	//  (*)
	.loc 38 356 0
..LDL411:
/*    356 */	fsub	d6, d6, d7
/*    356 */	fmadd	d7, d4, d19, d6
/*    356 */	frecpe	d4, d19
/*    356 */	fmsub	d6, d19, d4, d2
	.loc 38 358 0 is_stmt 1
..LDL412:
/*    358 */	frecpe	d19, d17
/*    358 */	fmul	d3, d3, d19
	.loc 38 356 0
..LDL413:
/*    356 */	fmul	d16, d7, d4
/*    356 */	fmadd	d4, d6, d6, d6
/*    356 */	fmul	d7, d6, d6
/*    356 */	fmadd	d4, d4, d16, d16
/*    356 */	fmadd	d6, d7, d7, d6
	.loc 38 359 0
..LDL414:
/*    359 */	frecpe	d7, d0
/*    359 */	fmsub	d0, d0, d7, d2
	.loc 38 356 0
..LDL415:
/*    356 */	fmadd	d4, d6, d4, d16
	.loc 38 357 0
..LDL416:
/*    357 */	frecpe	d6, d20
	.loc 38 356 0
..LDL417:
/*    356 */	str	d4, [x4, x6, lsl #3]	//  (*)
	.loc 38 357 0
..LDL418:
/*    357 */	fmsub	d4, d20, d6, d2
/*    357 */	fmul	d6, d1, d6
	.loc 38 358 0
..LDL419:
/*    358 */	fmsub	d1, d17, d19, d2
	.loc 38 359 0
..LDL420:
/*    359 */	fmul	d19, d5, d7
/*    359 */	fmadd	d7, d0, d0, d0
/*    359 */	fmul	d5, d0, d0
	.loc 38 357 0
..LDL421:
/*    357 */	fmadd	d18, d4, d4, d4
/*    357 */	fmul	d16, d4, d4
	.loc 38 359 0
..LDL422:
/*    359 */	fmadd	d0, d5, d5, d0
	.loc 38 357 0
..LDL423:
/*    357 */	fmadd	d17, d18, d6, d6
/*    357 */	fmadd	d18, d16, d16, d4
	.loc 38 358 0
..LDL424:
/*    358 */	fmadd	d16, d1, d1, d1
/*    358 */	fmul	d4, d1, d1
	.loc 38 357 0
..LDL425:
/*    357 */	fmadd	d6, d18, d17, d6
	.loc 38 358 0
..LDL426:
/*    358 */	fmadd	d16, d16, d3, d3
/*    358 */	fmadd	d4, d4, d4, d1
	.loc 38 359 0
..LDL427:
/*    359 */	fmadd	d1, d7, d19, d19
	.loc 38 357 0
..LDL428:
/*    357 */	str	d6, [x4, x13, lsl #3]	//  (*)
	.loc 38 358 0
..LDL429:
/*    358 */	fmadd	d3, d4, d16, d3
	.loc 38 359 0
..LDL430:
/*    359 */	fmadd	d0, d0, d1, d19
	.loc 38 358 0
..LDL431:
/*    358 */	str	d3, [x4, x12, lsl #3]	//  (*)
	.loc 38 359 0
..LDL432:
/*    359 */	str	d0, [x4, x17, lsl #3]	//  (*)
	.loc 38 360 0 is_stmt 0
..LDL433:
/*    360 */	b	.L2369
.L2356:
	.loc 38 360 0 is_stmt 1
..LDL434:
	.loc 38 364 0 is_stmt 0
..LDL435:
/*    364 */	ldr	x4, [x4, 64]	//  (*)
	.loc 38 360 0
..LDL436:
/*    360 */	cmp	w12, 2
/*    360 */	beq	.L2363
	.loc 38 401 0 is_stmt 1
..LDL437:
/*    401 */	ldr	x14, [x3, x6, lsl #3]	//  (*)
	.loc 38 405 0
..LDL438:
/*    405 */	ldr	x3, [x0, 24]	//  "matrixDiagonal"
	.loc 38 407 0
..LDL439:
/*    407 */	fmov	z3.d, 0.000000e+00
	.loc 38 403 0
..LDL440:
/*    403 */	ldr	x13, [x4, x6, lsl #3]	//  (*)
	.loc 38 405 0
..LDL441:
/*    405 */	ldr	x3, [x3, x6, lsl #3]	//  (*)
/*    405 */	ldr	d1, [x3]	//  (*)
	.loc 38 409 0
..LDL442:
/*    409 */	cmp	w10, 0
/*    409 */	ble	.L2362
/*    409 */	mov	w3, 0
	.loc 38 410 0 is_stmt 0
..LDL443:
/*    410 */	sxtw	x12, w10
	.loc 38 416 0
..LDL444:
/*    416 */	ldr	x15, [x0, 8]	//  "xv"
	.p2align 5
.L2360:					// :entr:term
	.loc 38 410 0 is_stmt 1
..LDL445:
/*    410 */	sxtw	x16, w3
	.loc 38 412 0
..LDL446:
/*    412 */	sxtw	x4, w3
	.loc 38 410 0
..LDL447:
/*    410 */	whilelo	p0.d, x16, x12
	.loc 38 414 0
..LDL448:
/*    414 */	add	x17, x13, x4, lsl #2
	.loc 38 419 0
..LDL449:
/*    419 */	add	x3, x16, x7
	.loc 38 412 0
..LDL450:
/*    412 */	add	x4, x14, x4, lsl #3
	.loc 38 419 0
..LDL451:
/*    419 */	cmp	w3, w10
	.loc 38 414 0
..LDL452:
/*    414 */	ld1sw	{z4.d}, p0/z, [x17, 0, mul vl]	//  (*)
	.loc 38 412 0
..LDL453:
/*    412 */	ld1d	{z0.d}, p0/z, [x4, 0, mul vl]	//  (*)
	.loc 38 416 0
..LDL454:
/*    416 */	ld1d	{z4.d}, p0/z, [x15, z4.d, lsl #3]	//  (*)
	.loc 38 418 0
..LDL455:
/*    418 */	fmla	z3.d, p0/m, z4.d, z0.d
	.loc 38 419 0 is_stmt 0
..LDL456:
/*    419 */	blt	.L2360
.L2362:
	.loc 38 421 0 is_stmt 1
..LDL457:
/*    421 */	ptrue	p0.d, ALL
	.loc 38 427 0
..LDL458:
	.loc 38 423 0 is_stmt 0
..LDL459:
/*    423 */	ldr	x3, [x0, 16]	//  "rv"
	.loc 38 427 0
..LDL460:
/*    427 */	frecpe	d0, d1
	.loc 38 425 0
..LDL461:
/*    425 */	ldr	x4, [x0, 8]	//  "xv"
	.loc 38 421 0 is_stmt 1
..LDL462:
/*    421 */	faddv	d16, p0, z3.d
	.loc 38 427 0
..LDL463:
/*    427 */	fmsub	d6, d1, d0, d2
	.loc 38 423 0 is_stmt 0
..LDL464:
/*    423 */	ldr	d7, [x3, x6, lsl #3]	//  (*)
	.loc 38 425 0
..LDL465:
/*    425 */	ldr	d3, [x4, x6, lsl #3]	//  (*)
	.loc 38 427 0
..LDL466:
/*    427 */	fmadd	d4, d6, d6, d6
/*    427 */	fmul	d5, d6, d6
/*    427 */	fsub	d7, d7, d16
/*    427 */	fmadd	d5, d5, d5, d6
/*    427 */	fmadd	d1, d3, d1, d7
/*    427 */	fmul	d0, d1, d0
/*    427 */	fmadd	d1, d4, d0, d0
/*    427 */	fmadd	d0, d5, d1, d0
/*    427 */	str	d0, [x4, x6, lsl #3]	//  (*)
	.loc 38 428 0
..LDL467:
/*    428 */	b	.L2369
.L2363:
	.loc 38 361 0 is_stmt 1
..LDL468:
/*    361 */	ldr	x16, [x3, x6, lsl #3]	//  (*)
	.loc 38 362 0
..LDL469:
/*    362 */	add	x13, x6, 1
	.loc 38 370 0
..LDL470:
/*    370 */	fmov	z0.d, 0.000000e+00
	.loc 38 367 0
..LDL471:
/*    367 */	ldr	x15, [x0, 24]	//  "matrixDiagonal"
	.loc 38 362 0
..LDL472:
/*    362 */	ldr	x12, [x3, x13, lsl #3]	//  (*)
	.loc 38 364 0
..LDL473:
/*    364 */	ldr	x14, [x4, x6, lsl #3]	//  (*)
	.loc 38 365 0
..LDL474:
/*    365 */	ldr	x18, [x4, x13, lsl #3]	//  (*)
	.loc 38 367 0
..LDL475:
/*    367 */	ldr	x3, [x15, x6, lsl #3]	//  (*)
	.loc 38 368 0
..LDL476:
/*    368 */	ldr	x4, [x15, x13, lsl #3]	//  (*)
	.loc 38 367 0
..LDL477:
/*    367 */	ldr	d19, [x3]	//  (*)
	.loc 38 368 0
..LDL478:
/*    368 */	ldr	d3, [x4]	//  (*)
	.loc 38 373 0
..LDL479:
/*    373 */	cmp	w10, 0
/*    373 */	mov	z5.d, z0.d
/*    373 */	ble	.L2368
/*    373 */	mov	w3, 0
	.loc 38 374 0 is_stmt 0
..LDL480:
/*    374 */	sxtw	x17, w10
	.loc 38 382 0
..LDL481:
/*    382 */	ldr	x15, [x0, 8]	//  "xv"
/*    382 */	mov	z5.d, z0.d
	.p2align 5
.L2366:					// :entr:term
	.loc 38 374 0 is_stmt 1
..LDL482:
/*    374 */	sxtw	x30, w3
	.loc 38 376 0
..LDL483:
/*    376 */	sxtw	x4, w3
	.loc 38 374 0
..LDL484:
/*    374 */	whilelo	p0.d, x30, x17
	.loc 38 379 0
..LDL485:
/*    379 */	add	x29, x14, x4, lsl #2
	.loc 38 387 0
..LDL486:
/*    387 */	add	x3, x30, x7
	.loc 38 380 0
..LDL487:
/*    380 */	add	x30, x18, x4, lsl #2
	.loc 38 387 0
..LDL488:
/*    387 */	cmp	w3, w10
	.loc 38 379 0
..LDL489:
/*    379 */	ld1sw	{z6.d}, p0/z, [x29, 0, mul vl]	//  (*)
	.loc 38 376 0
..LDL490:
/*    376 */	add	x29, x16, x4, lsl #3
	.loc 38 380 0
..LDL491:
/*    380 */	ld1sw	{z7.d}, p0/z, [x30, 0, mul vl]	//  (*)
	.loc 38 376 0
..LDL492:
/*    376 */	ld1d	{z4.d}, p0/z, [x29, 0, mul vl]	//  (*)
	.loc 38 377 0
..LDL493:
/*    377 */	add	x4, x12, x4, lsl #3
/*    377 */	ld1d	{z1.d}, p0/z, [x4, 0, mul vl]	//  (*)
	.loc 38 382 0
..LDL494:
/*    382 */	ld1d	{z6.d}, p0/z, [x15, z6.d, lsl #3]	//  (*)
	.loc 38 383 0
..LDL495:
/*    383 */	ld1d	{z7.d}, p0/z, [x15, z7.d, lsl #3]	//  (*)
	.loc 38 385 0
..LDL496:
/*    385 */	fmla	z0.d, p0/m, z6.d, z4.d
	.loc 38 386 0
..LDL497:
/*    386 */	fmla	z5.d, p0/m, z7.d, z1.d
	.loc 38 387 0 is_stmt 0
..LDL498:
/*    387 */	blt	.L2366
.L2368:
	.loc 38 389 0 is_stmt 1
..LDL499:
/*    389 */	ptrue	p0.d, ALL
	.loc 38 396 0
..LDL500:
	.loc 38 393 0 is_stmt 0
..LDL501:
/*    393 */	ldr	x4, [x0, 16]	//  "rv"
	.loc 38 398 0 is_stmt 1
..LDL502:
/*    398 */	frecpe	d21, d19
	.loc 38 399 0
..LDL503:
/*    399 */	frecpe	d22, d3
	.loc 38 396 0
..LDL504:
/*    396 */	ldr	x3, [x0, 8]	//  "xv"
	.loc 38 390 0
..LDL505:
/*    390 */	faddv	d17, p0, z5.d
	.loc 38 398 0
..LDL506:
/*    398 */	fmsub	d23, d19, d21, d2
	.loc 38 399 0
..LDL507:
/*    399 */	fmsub	d1, d3, d22, d2
	.loc 38 389 0
..LDL508:
/*    389 */	faddv	d6, p0, z0.d
	.loc 38 396 0
..LDL509:
	.loc 38 393 0 is_stmt 0
..LDL510:
/*    393 */	ldr	d20, [x4, x13, lsl #3]	//  (*)
	.loc 38 398 0 is_stmt 1
..LDL511:
	.loc 38 392 0 is_stmt 0
..LDL512:
/*    392 */	ldr	d24, [x4, x6, lsl #3]	//  (*)
	.loc 38 396 0 is_stmt 1
..LDL513:
/*    396 */	ldr	d0, [x3, x13, lsl #3]	//  (*)
	.loc 38 398 0
..LDL514:
	.loc 38 395 0 is_stmt 0
..LDL515:
/*    395 */	ldr	d7, [x3, x6, lsl #3]	//  (*)
	.loc 38 399 0 is_stmt 1
..LDL516:
/*    399 */	fmadd	d18, d1, d1, d1
/*    399 */	fmul	d5, d1, d1
	.loc 38 398 0
..LDL517:
/*    398 */	fmadd	d4, d23, d23, d23
/*    398 */	fmul	d16, d23, d23
	.loc 38 396 0
..LDL518:
/*    396 */	fsub	d17, d20, d17
	.loc 38 398 0
..LDL519:
/*    398 */	fsub	d6, d24, d6
	.loc 38 399 0
..LDL520:
/*    399 */	fmadd	d1, d5, d5, d1
	.loc 38 398 0
..LDL521:
/*    398 */	fmadd	d16, d16, d16, d23
	.loc 38 396 0
..LDL522:
/*    396 */	fmadd	d3, d0, d3, d17
	.loc 38 398 0
..LDL523:
/*    398 */	fmadd	d5, d7, d19, d6
	.loc 38 399 0
..LDL524:
/*    399 */	fmul	d3, d3, d22
	.loc 38 398 0
..LDL525:
/*    398 */	fmul	d0, d5, d21
/*    398 */	fmadd	d5, d4, d0, d0
	.loc 38 399 0
..LDL526:
/*    399 */	fmadd	d4, d18, d3, d3
	.loc 38 398 0
..LDL527:
/*    398 */	fmadd	d0, d16, d5, d0
	.loc 38 399 0
..LDL528:
/*    399 */	fmadd	d1, d1, d4, d3
	.loc 38 398 0
..LDL529:
/*    398 */	str	d0, [x3, x6, lsl #3]	//  (*)
	.loc 38 399 0
..LDL530:
/*    399 */	str	d1, [x3, x13, lsl #3]	//  (*)
.L2369:					// :term
	.loc 38 429 0
..LDL531:
/*    429 */	add	w9, w9, 1
/*    429 */	add	x11, x11, 1
/*    429 */	subs	w8, w8, 1
/*    429 */	bne	.L2349
.L2371:					// :term
	.loc 38 430 0
..LDL532:
/*    430 */	add	w2, w2, w5
/*    430 */	cmp	w2, w1
/*    430 */	ble	.L2346
.L2374:
/*    430 */	add	x19, sp, 32
/*    430 */	ldr	x0, [x19, -16]
/*    430 */	bl	__mpc_obar
/*    430 */	ldr	x0, [x19, -16]
/*    430 */	bl	__mpc_obar
/*    ??? */	add	sp, sp, 64
	.cfi_def_cfa_offset 64
/*    ??? */	ldp	x19, x20, [sp, 32]	//  (*)
	.cfi_restore 19
	.cfi_restore 20
/*    ??? */	ldp	x21, x22, [sp, 16]	//  (*)
	.cfi_restore 21
	.cfi_restore 22
/*    ??? */	ldp	x23, x24, [sp]	//  (*)
	.cfi_restore 23
	.cfi_restore 24
/*    ??? */	ldp	x29, x30, [sp, 48]	//  (*)
	.cfi_restore 29
	.cfi_restore 30
/*    430 */	add	sp, sp, 64
	.cfi_def_cfa_offset 0
/*    430 */	ret	
..D8.pchi:
	.cfi_endproc
.LFE7:
	.size	_Z22ComputeSYMGS_BLOCK_SVERK19SparseMatrix_STRUCTRK13Vector_STRUCTRS2_R9TraceData._OMP_5, .-_Z22ComputeSYMGS_BLOCK_SVERK19SparseMatrix_STRUCTRK13Vector_STRUCTRS2_R9TraceData._OMP_5
	.ident	"$Compiler: Fujitsu C/C++ Compiler 4.7.0 (Nov 10 2021 09:37:15) ../src/ComputeSYMGS.cpp _Z22ComputeSYMGS_BLOCK_SVERK19SparseMatrix_STRUCTRK13Vector_STRUCTRS2_R9TraceData._OMP_6 $"
	.text
	.align	2
	.type	_Z22ComputeSYMGS_BLOCK_SVERK19SparseMatrix_STRUCTRK13Vector_STRUCTRS2_R9TraceData._OMP_6, %function
_Z22ComputeSYMGS_BLOCK_SVERK19SparseMatrix_STRUCTRK13Vector_STRUCTRS2_R9TraceData._OMP_6:
	.loc 38 444 0
..LDL533:
.LFB8:
	.cfi_startproc
/*    430 */	sub	sp, sp, 64
	.cfi_def_cfa_offset 64
/*    ??? */	stp	x29, x30, [sp, 48]	//  (*)
	.cfi_offset 29, -16
	.cfi_offset 30, -8
/*    ??? */	stp	x19, x20, [sp, 32]	//  (*)
	.cfi_offset 19, -32
	.cfi_offset 20, -24
/*    ??? */	stp	x21, x22, [sp, 16]	//  (*)
	.cfi_offset 21, -48
	.cfi_offset 22, -40
/*    ??? */	stp	x23, x24, [sp]	//  (*)
	.cfi_offset 23, -64
	.cfi_offset 24, -56
/*    ??? */	sub	sp, sp, 64
	.cfi_def_cfa_offset 128
/*    430 */	str	x1, [sp, 32]
/*    430 */	str	x2, [sp, 24]
/*    430 */	str	x3, [sp, 16]
/*    430 */	str	x4, [sp, 8]
	.loc 38 444 0 is_stmt 0
..LDL534:
	.loc 38 444 0 is_stmt 0
..LDL535:
	.loc 38 446 0 is_stmt 1
..LDL536:
/*    446 */	ldr	w2, [x0, 4]	//  "firstBlock"
/*    446 */	ldr	x1, [x0, 32]	//  "A"
/*    446 */	ldr	w3, [x0]	//  "lastBlock"
/*    446 */	ldr	w5, [x1, 336]	//  (*)
/*    446 */	cmp	w2, w3
/*    446 */	neg	w1, w5
/*    446 */	ble	.L2413
/*    446 */	sxtw	x4, w3
/*    446 */	sxtw	x2, w2
/*    446 */	add	x4, x4, 1
/*    446 */	sxtw	x1, w1
/*    446 */	add	x3, sp, 32
/*    446 */	sub	x4, x4, x2
/*    446 */	ldr	x6, [x3]
/*    446 */	sdiv	x4, x4, x1
/*    446 */	add	x7, x4, 1
/*    446 */	sdiv	x4, x7, x6
/*    446 */	msub	x6, x6, x4, x7
/*    446 */	cbnz	x6, .L2380
/*    446 */	ldr	x3, [x3, -8]
/*    446 */	mul	x3, x3, x1
/*    446 */	madd	x2, x3, x4, x2
/*    446 */	b	.L2383
.L2380:
/*    446 */	ldr	x3, [x3, -8]
/*    446 */	cmp	x3, x6
/*    446 */	blt	.L2382
/*    446 */	madd	x3, x3, x4, x6
/*    446 */	madd	x2, x3, x1, x2
/*    446 */	b	.L2383
.L2382:
/*    446 */	add	x4, x4, 1
/*    446 */	mul	x3, x3, x1
/*    446 */	madd	x2, x3, x4, x2
.L2383:
/*    446 */	mul	x3, x1, x4
/*    446 */	sub	x1, x3, x1
/*    446 */	add	x1, x1, x2
/*    446 */	cbz	x4, .L2413
	.loc 38 500 0 is_stmt 0
..LDL537:
/*    500 */	cntd	x10, ALL, mul 1
	.loc 38 451 0 is_stmt 1
..LDL538:
	.loc 38 517 0 is_stmt 0
..LDL539:
/*    517 */	fmov	d3, 1.000000e+00
.L2385:					// :entr
	.loc 38 447 0 is_stmt 1
..LDL540:
/*    447 */	add	w6, w2, 1
/*    447 */	ldr	x3, [x0, 32]	//  "A"
/*    447 */	ldr	w4, [x3, 332]	//  (*)
	.loc 38 448 0
..LDL541:
/*    448 */	ldr	w3, [x3, 336]	//  (*)
	.loc 38 447 0
..LDL542:
/*    447 */	mul	w6, w4, w6
/*    447 */	sub	w6, w6, 1
	.loc 38 448 0
..LDL543:
/*    448 */	sdiv	w9, w6, w3
	.loc 38 449 0
..LDL544:
/*    449 */	msub	w4, w4, w3, w6
/*    449 */	sdiv	w3, w4, w3
	.loc 38 451 0
..LDL545:
/*    451 */	add	w4, w3, 1
/*    451 */	cmp	w9, w3
/*    451 */	sub	w4, w9, w4
/*    451 */	add	w8, w4, 1
/*    451 */	ble	.L2410
	.loc 38 455 0 is_stmt 0
..LDL546:
/*    455 */	sxtw	x7, w9
.L2388:					// :entr
	.loc 38 452 0 is_stmt 1
..LDL547:
/*    452 */	ldr	x3, [x0, 32]	//  "A"
/*    452 */	ldr	w12, [x3, 336]	//  (*)
	.loc 37 1506 0
..LDL548:
/*   1506 */	ldr	x6, [x3, 256]	//  (*)
	.loc 38 457 0
..LDL549:
	.loc 38 458 0 is_stmt 0
..LDL550:
/*    458 */	ldr	x4, [x3, 72]	//  (*)
	.loc 38 452 0 is_stmt 1
..LDL551:
/*    452 */	mul	w11, w12, w9
	.loc 38 455 0
..LDL552:
/*    455 */	ldr	w6, [x6, x7, lsl #2]	//  (*)
	.loc 38 457 0
..LDL553:
/*    457 */	cmp	w12, 4
	.loc 38 458 0 is_stmt 0
..LDL554:
/*    458 */	sxtw	x11, w11
	.loc 38 457 0
..LDL555:
/*    457 */	bne	.L2395
	.loc 38 458 0 is_stmt 1
..LDL556:
/*    458 */	add	x18, x11, 3
	.loc 38 459 0
..LDL557:
/*    459 */	add	x13, x11, 2
	.loc 38 463 0
..LDL558:
/*    463 */	ldr	x20, [x3, 64]	//  (*)
	.loc 38 468 0
..LDL559:
/*    468 */	ldr	x3, [x0, 24]	//  "matrixDiagonal"
	.loc 38 458 0
..LDL560:
/*    458 */	ldr	x22, [x4, x18, lsl #3]	//  (*)
	.loc 38 460 0
..LDL561:
/*    460 */	add	x12, x11, 1
	.loc 38 473 0
..LDL562:
/*    473 */	fmov	z1.d, 0.000000e+00
	.loc 38 459 0
..LDL563:
/*    459 */	ldr	x21, [x4, x13, lsl #3]	//  (*)
	.loc 38 460 0
..LDL564:
/*    460 */	ldr	x29, [x4, x12, lsl #3]	//  (*)
	.loc 38 461 0
..LDL565:
/*    461 */	ldr	x14, [x4, x11, lsl #3]	//  (*)
	.loc 38 468 0
..LDL566:
/*    468 */	ldr	x16, [x3, x18, lsl #3]	//  (*)
	.loc 38 469 0
..LDL567:
/*    469 */	ldr	x17, [x3, x13, lsl #3]	//  (*)
	.loc 38 470 0
..LDL568:
/*    470 */	ldr	x4, [x3, x12, lsl #3]	//  (*)
	.loc 38 471 0
..LDL569:
/*    471 */	ldr	x3, [x3, x11, lsl #3]	//  (*)
	.loc 38 463 0
..LDL570:
/*    463 */	ldr	x15, [x20, x18, lsl #3]	//  (*)
	.loc 38 464 0
..LDL571:
/*    464 */	ldr	x30, [x20, x13, lsl #3]	//  (*)
	.loc 38 465 0
..LDL572:
/*    465 */	ldr	x19, [x20, x12, lsl #3]	//  (*)
	.loc 38 466 0
..LDL573:
/*    466 */	ldr	x20, [x20, x11, lsl #3]	//  (*)
	.loc 38 468 0
..LDL574:
/*    468 */	ldr	d7, [x16]	//  (*)
	.loc 38 469 0
..LDL575:
/*    469 */	ldr	d5, [x17]	//  (*)
	.loc 38 470 0
..LDL576:
/*    470 */	ldr	d2, [x4]	//  (*)
	.loc 38 471 0
..LDL577:
/*    471 */	ldr	d19, [x3]	//  (*)
	.loc 38 478 0
..LDL578:
/*    478 */	cmp	w6, 0
/*    478 */	mov	z0.d, z1.d
/*    478 */	mov	z21.d, z1.d
/*    478 */	mov	z6.d, z1.d
/*    478 */	ble	.L2394
/*    478 */	mov	w3, 0
	.loc 38 491 0 is_stmt 0
..LDL579:
/*    491 */	ldr	x16, [x0, 8]	//  "xv"
/*    491 */	mov	z0.d, z1.d
/*    491 */	mov	z21.d, z1.d
	.loc 38 479 0
..LDL580:
/*    479 */	sxtw	x17, w6
	.loc 38 491 0
..LDL581:
/*    491 */	mov	z6.d, z1.d
	.p2align 5
.L2392:					// :entr:term
	.loc 38 479 0 is_stmt 1
..LDL582:
/*    479 */	sxtw	x24, w3
	.loc 38 481 0
..LDL583:
/*    481 */	sxtw	x4, w3
	.loc 38 479 0
..LDL584:
/*    479 */	whilelo	p0.d, x24, x17
	.loc 38 486 0
..LDL585:
/*    486 */	add	x23, x15, x4, lsl #2
	.loc 38 500 0
..LDL586:
/*    500 */	add	x3, x24, x10
/*    500 */	cmp	w3, w6
	.loc 38 486 0
..LDL587:
/*    486 */	ld1sw	{z20.d}, p0/z, [x23, 0, mul vl]	//  (*)
	.loc 38 488 0
..LDL588:
/*    488 */	add	x23, x19, x4, lsl #2
	.loc 38 487 0
..LDL589:
/*    487 */	add	x24, x30, x4, lsl #2
	.loc 38 488 0
..LDL590:
/*    488 */	ld1sw	{z4.d}, p0/z, [x23, 0, mul vl]	//  (*)
	.loc 38 487 0
..LDL591:
/*    487 */	ld1sw	{z18.d}, p0/z, [x24, 0, mul vl]	//  (*)
	.loc 38 481 0
..LDL592:
/*    481 */	add	x23, x22, x4, lsl #3
	.loc 38 489 0
..LDL593:
/*    489 */	add	x24, x20, x4, lsl #2
	.loc 38 481 0
..LDL594:
/*    481 */	ld1d	{z16.d}, p0/z, [x23, 0, mul vl]	//  (*)
	.loc 38 489 0
..LDL595:
/*    489 */	ld1sw	{z17.d}, p0/z, [x24, 0, mul vl]	//  (*)
	.loc 38 482 0
..LDL596:
/*    482 */	add	x23, x21, x4, lsl #3
/*    482 */	ld1d	{z23.d}, p0/z, [x23, 0, mul vl]	//  (*)
	.loc 38 483 0
..LDL597:
/*    483 */	add	x23, x29, x4, lsl #3
	.loc 38 491 0
..LDL598:
/*    491 */	ld1d	{z20.d}, p0/z, [x16, z20.d, lsl #3]	//  (*)
	.loc 38 483 0
..LDL599:
/*    483 */	ld1d	{z22.d}, p0/z, [x23, 0, mul vl]	//  (*)
	.loc 38 484 0
..LDL600:
/*    484 */	add	x4, x14, x4, lsl #3
	.loc 38 493 0
..LDL601:
/*    493 */	ld1d	{z4.d}, p0/z, [x16, z4.d, lsl #3]	//  (*)
	.loc 38 492 0
..LDL602:
/*    492 */	ld1d	{z24.d}, p0/z, [x16, z18.d, lsl #3]	//  (*)
	.loc 38 484 0
..LDL603:
/*    484 */	ld1d	{z18.d}, p0/z, [x4, 0, mul vl]	//  (*)
	.loc 38 494 0
..LDL604:
/*    494 */	ld1d	{z17.d}, p0/z, [x16, z17.d, lsl #3]	//  (*)
	.loc 38 496 0
..LDL605:
/*    496 */	fmla	z1.d, p0/m, z20.d, z16.d
	.loc 38 498 0
..LDL606:
/*    498 */	fmla	z21.d, p0/m, z4.d, z22.d
	.loc 38 497 0
..LDL607:
/*    497 */	fmla	z0.d, p0/m, z24.d, z23.d
	.loc 38 499 0
..LDL608:
/*    499 */	fmla	z6.d, p0/m, z17.d, z18.d
	.loc 38 500 0 is_stmt 0
..LDL609:
/*    500 */	blt	.L2392
.L2394:
	.loc 38 502 0 is_stmt 1
..LDL610:
/*    502 */	ptrue	p0.d, ALL
	.loc 38 513 0
..LDL611:
	.loc 38 508 0 is_stmt 0
..LDL612:
/*    508 */	ldr	x3, [x0, 16]	//  "rv"
	.loc 38 519 0 is_stmt 1
..LDL613:
/*    519 */	frecpe	d18, d2
	.loc 38 513 0
..LDL614:
/*    513 */	ldr	x4, [x0, 8]	//  "xv"
	.loc 38 502 0
..LDL615:
/*    502 */	faddv	d16, p0, z1.d
	.loc 38 503 0
..LDL616:
/*    503 */	faddv	d0, p0, z0.d
	.loc 38 505 0
..LDL617:
/*    505 */	faddv	d1, p0, z6.d
	.loc 38 513 0
..LDL618:
	.loc 38 508 0 is_stmt 0
..LDL619:
/*    508 */	ldr	d17, [x3, x13, lsl #3]	//  (*)
	.loc 38 504 0 is_stmt 1
..LDL620:
/*    504 */	faddv	d4, p0, z21.d
	.loc 38 513 0
..LDL621:
/*    513 */	ldr	d6, [x4, x13, lsl #3]	//  (*)
/*    513 */	fsub	d0, d17, d0
	.loc 38 514 0
..LDL622:
/*    514 */	ldr	d17, [x4, x12, lsl #3]	//  (*)
	.loc 38 513 0
..LDL623:
/*    513 */	fmadd	d0, d6, d5, d0
	.loc 38 514 0
..LDL624:
	.loc 38 509 0 is_stmt 0
..LDL625:
/*    509 */	ldr	d6, [x3, x12, lsl #3]	//  (*)
	.loc 38 514 0
..LDL626:
/*    514 */	fsub	d4, d6, d4
	.loc 38 515 0 is_stmt 1
..LDL627:
/*    515 */	ldr	d6, [x4, x11, lsl #3]	//  (*)
	.loc 38 514 0
..LDL628:
/*    514 */	fmadd	d4, d17, d2, d4
	.loc 38 515 0
..LDL629:
	.loc 38 510 0 is_stmt 0
..LDL630:
/*    510 */	ldr	d17, [x3, x11, lsl #3]	//  (*)
	.loc 38 515 0
..LDL631:
/*    515 */	fsub	d1, d17, d1
	.loc 38 517 0 is_stmt 1
..LDL632:
	.loc 38 512 0 is_stmt 0
..LDL633:
/*    512 */	ldr	d17, [x4, x18, lsl #3]	//  (*)
	.loc 38 519 0 is_stmt 1
..LDL634:
/*    519 */	fmul	d4, d4, d18
	.loc 38 515 0
..LDL635:
/*    515 */	fmadd	d1, d6, d19, d1
	.loc 38 517 0
..LDL636:
	.loc 38 507 0 is_stmt 0
..LDL637:
/*    507 */	ldr	d6, [x3, x18, lsl #3]	//  (*)
	.loc 38 517 0
..LDL638:
/*    517 */	fsub	d6, d6, d16
/*    517 */	frecpe	d16, d7
/*    517 */	fmadd	d17, d17, d7, d6
/*    517 */	fmsub	d6, d7, d16, d3
/*    517 */	fmul	d16, d17, d16
/*    517 */	fmadd	d7, d6, d6, d6
/*    517 */	fmul	d17, d6, d6
/*    517 */	fmadd	d7, d7, d16, d16
/*    517 */	fmadd	d6, d17, d17, d6
/*    517 */	fmadd	d6, d6, d7, d16
	.loc 38 520 0 is_stmt 1
..LDL639:
/*    520 */	frecpe	d7, d19
	.loc 38 517 0
..LDL640:
/*    517 */	str	d6, [x4, x18, lsl #3]	//  (*)
	.loc 38 518 0
..LDL641:
/*    518 */	frecpe	d6, d5
/*    518 */	fmsub	d16, d5, d6, d3
/*    518 */	fmul	d0, d0, d6
	.loc 38 519 0
..LDL642:
/*    519 */	fmsub	d5, d2, d18, d3
	.loc 38 520 0
..LDL643:
/*    520 */	fmsub	d2, d19, d7, d3
/*    520 */	fmul	d7, d1, d7
	.loc 38 518 0
..LDL644:
/*    518 */	fmadd	d6, d16, d16, d16
/*    518 */	fmul	d17, d16, d16
	.loc 38 520 0
..LDL645:
/*    520 */	fmadd	d19, d2, d2, d2
/*    520 */	fmul	d1, d2, d2
	.loc 38 518 0
..LDL646:
/*    518 */	fmadd	d6, d6, d0, d0
/*    518 */	fmadd	d18, d17, d17, d16
	.loc 38 519 0
..LDL647:
/*    519 */	fmadd	d17, d5, d5, d5
/*    519 */	fmul	d16, d5, d5
	.loc 38 520 0
..LDL648:
/*    520 */	fmadd	d1, d1, d1, d2
	.loc 38 518 0
..LDL649:
/*    518 */	fmadd	d0, d18, d6, d0
	.loc 38 519 0
..LDL650:
/*    519 */	fmadd	d6, d17, d4, d4
/*    519 */	fmadd	d5, d16, d16, d5
	.loc 38 520 0
..LDL651:
/*    520 */	fmadd	d16, d19, d7, d7
	.loc 38 518 0
..LDL652:
/*    518 */	str	d0, [x4, x13, lsl #3]	//  (*)
	.loc 38 519 0
..LDL653:
/*    519 */	fmadd	d0, d5, d6, d4
	.loc 38 520 0
..LDL654:
/*    520 */	fmadd	d1, d1, d16, d7
	.loc 38 519 0
..LDL655:
/*    519 */	str	d0, [x4, x12, lsl #3]	//  (*)
	.loc 38 520 0
..LDL656:
/*    520 */	str	d1, [x4, x11, lsl #3]	//  (*)
	.loc 38 521 0 is_stmt 0
..LDL657:
/*    521 */	b	.L2408
.L2395:
	.loc 38 521 0 is_stmt 1
..LDL658:
	.loc 38 525 0 is_stmt 0
..LDL659:
/*    525 */	ldr	x13, [x3, 64]	//  (*)
	.loc 38 521 0
..LDL660:
/*    521 */	cmp	w12, 2
/*    521 */	beq	.L2402
	.loc 38 562 0 is_stmt 1
..LDL661:
/*    562 */	ldr	x12, [x4, x11, lsl #3]	//  (*)
	.loc 38 564 0
..LDL662:
/*    564 */	ldr	x13, [x13, x11, lsl #3]	//  (*)
	.loc 38 568 0
..LDL663:
/*    568 */	fmov	z0.d, 0.000000e+00
	.loc 38 570 0
..LDL664:
/*    570 */	cmp	w6, 0
/*    570 */	ble	.L2408
/*    570 */	mov	w3, 0
	.loc 38 571 0 is_stmt 0
..LDL665:
/*    571 */	sxtw	x14, w6
	.loc 38 577 0
..LDL666:
/*    577 */	ldr	x11, [x0, 8]	//  "xv"
	.p2align 5
.L2399:					// :entr:term
	.loc 38 571 0 is_stmt 1
..LDL667:
/*    571 */	sxtw	x16, w3
	.loc 38 573 0
..LDL668:
/*    573 */	sxtw	x4, w3
	.loc 38 571 0
..LDL669:
/*    571 */	whilelo	p0.d, x16, x14
	.loc 38 575 0
..LDL670:
/*    575 */	add	x15, x13, x4, lsl #2
	.loc 38 580 0
..LDL671:
/*    580 */	add	x3, x16, x10
	.loc 38 573 0
..LDL672:
/*    573 */	add	x4, x12, x4, lsl #3
	.loc 38 580 0
..LDL673:
/*    580 */	cmp	w3, w6
	.loc 38 575 0
..LDL674:
/*    575 */	ld1sw	{z2.d}, p0/z, [x15, 0, mul vl]	//  (*)
	.loc 38 573 0
..LDL675:
/*    573 */	ld1d	{z1.d}, p0/z, [x4, 0, mul vl]	//  (*)
	.loc 38 577 0
..LDL676:
/*    577 */	ld1d	{z2.d}, p0/z, [x11, z2.d, lsl #3]	//  (*)
	.loc 38 579 0
..LDL677:
/*    579 */	fmla	z0.d, p0/m, z2.d, z1.d
	.loc 38 580 0 is_stmt 0
..LDL678:
/*    580 */	blt	.L2399
	.loc 38 588 0 is_stmt 1
..LDL679:
/*    588 */	b	.L2408
.L2402:
	.loc 38 522 0
..LDL680:
/*    522 */	add	x17, x11, 1
	.loc 38 523 0
..LDL681:
/*    523 */	ldr	x14, [x4, x11, lsl #3]	//  (*)
	.loc 38 531 0
..LDL682:
/*    531 */	fmov	z5.d, 0.000000e+00
	.loc 38 528 0
..LDL683:
/*    528 */	ldr	x3, [x0, 24]	//  "matrixDiagonal"
	.loc 38 522 0
..LDL684:
/*    522 */	ldr	x15, [x4, x17, lsl #3]	//  (*)
	.loc 38 525 0
..LDL685:
/*    525 */	ldr	x18, [x13, x17, lsl #3]	//  (*)
	.loc 38 526 0
..LDL686:
/*    526 */	ldr	x12, [x13, x11, lsl #3]	//  (*)
	.loc 38 528 0
..LDL687:
/*    528 */	ldr	x4, [x3, x17, lsl #3]	//  (*)
	.loc 38 529 0
..LDL688:
/*    529 */	ldr	x3, [x3, x11, lsl #3]	//  (*)
	.loc 38 528 0
..LDL689:
/*    528 */	ldr	d18, [x4]	//  (*)
	.loc 38 529 0
..LDL690:
/*    529 */	ldr	d4, [x3]	//  (*)
	.loc 38 534 0
..LDL691:
/*    534 */	cmp	w6, 0
/*    534 */	mov	z0.d, z5.d
/*    534 */	ble	.L2407
/*    534 */	mov	w3, 0
	.loc 38 535 0 is_stmt 0
..LDL692:
/*    535 */	sxtw	x16, w6
	.loc 38 543 0
..LDL693:
/*    543 */	ldr	x13, [x0, 8]	//  "xv"
/*    543 */	mov	z0.d, z5.d
	.p2align 5
.L2405:					// :entr:term
	.loc 38 535 0 is_stmt 1
..LDL694:
/*    535 */	sxtw	x30, w3
	.loc 38 537 0
..LDL695:
/*    537 */	sxtw	x4, w3
	.loc 38 535 0
..LDL696:
/*    535 */	whilelo	p0.d, x30, x16
	.loc 38 540 0
..LDL697:
/*    540 */	add	x29, x18, x4, lsl #2
	.loc 38 548 0
..LDL698:
/*    548 */	add	x3, x30, x10
	.loc 38 541 0
..LDL699:
/*    541 */	add	x30, x12, x4, lsl #2
	.loc 38 548 0
..LDL700:
/*    548 */	cmp	w3, w6
	.loc 38 540 0
..LDL701:
/*    540 */	ld1sw	{z7.d}, p0/z, [x29, 0, mul vl]	//  (*)
	.loc 38 537 0
..LDL702:
/*    537 */	add	x29, x15, x4, lsl #3
	.loc 38 541 0
..LDL703:
/*    541 */	ld1sw	{z6.d}, p0/z, [x30, 0, mul vl]	//  (*)
	.loc 38 537 0
..LDL704:
/*    537 */	ld1d	{z2.d}, p0/z, [x29, 0, mul vl]	//  (*)
	.loc 38 538 0
..LDL705:
/*    538 */	add	x4, x14, x4, lsl #3
/*    538 */	ld1d	{z1.d}, p0/z, [x4, 0, mul vl]	//  (*)
	.loc 38 543 0
..LDL706:
/*    543 */	ld1d	{z7.d}, p0/z, [x13, z7.d, lsl #3]	//  (*)
	.loc 38 544 0
..LDL707:
/*    544 */	ld1d	{z6.d}, p0/z, [x13, z6.d, lsl #3]	//  (*)
	.loc 38 546 0
..LDL708:
/*    546 */	fmla	z5.d, p0/m, z7.d, z2.d
	.loc 38 547 0
..LDL709:
/*    547 */	fmla	z0.d, p0/m, z6.d, z1.d
	.loc 38 548 0 is_stmt 0
..LDL710:
/*    548 */	blt	.L2405
.L2407:
	.loc 38 550 0 is_stmt 1
..LDL711:
/*    550 */	ptrue	p0.d, ALL
	.loc 38 557 0
..LDL712:
	.loc 38 554 0 is_stmt 0
..LDL713:
/*    554 */	ldr	x4, [x0, 16]	//  "rv"
	.loc 38 559 0 is_stmt 1
..LDL714:
/*    559 */	frecpe	d2, d18
	.loc 38 560 0
..LDL715:
/*    560 */	frecpe	d17, d4
	.loc 38 557 0
..LDL716:
/*    557 */	ldr	x3, [x0, 8]	//  "xv"
	.loc 38 550 0
..LDL717:
/*    550 */	faddv	d20, p0, z5.d
	.loc 38 551 0
..LDL718:
/*    551 */	faddv	d23, p0, z0.d
	.loc 38 560 0
..LDL719:
/*    560 */	fmsub	d16, d4, d17, d3
	.loc 38 559 0
..LDL720:
/*    559 */	fmsub	d1, d18, d2, d3
	.loc 38 557 0
..LDL721:
	.loc 38 554 0 is_stmt 0
..LDL722:
/*    554 */	ldr	d22, [x4, x11, lsl #3]	//  (*)
	.loc 38 559 0 is_stmt 1
..LDL723:
	.loc 38 553 0 is_stmt 0
..LDL724:
/*    553 */	ldr	d24, [x4, x17, lsl #3]	//  (*)
	.loc 38 557 0 is_stmt 1
..LDL725:
/*    557 */	ldr	d7, [x3, x11, lsl #3]	//  (*)
	.loc 38 559 0
..LDL726:
	.loc 38 556 0 is_stmt 0
..LDL727:
/*    556 */	ldr	d6, [x3, x17, lsl #3]	//  (*)
	.loc 38 560 0 is_stmt 1
..LDL728:
/*    560 */	fmadd	d0, d16, d16, d16
/*    560 */	fmul	d19, d16, d16
	.loc 38 559 0
..LDL729:
/*    559 */	fmadd	d5, d1, d1, d1
/*    559 */	fmul	d21, d1, d1
/*    559 */	fsub	d20, d24, d20
	.loc 38 557 0
..LDL730:
/*    557 */	fsub	d22, d22, d23
	.loc 38 560 0
..LDL731:
/*    560 */	fmadd	d16, d19, d19, d16
	.loc 38 559 0
..LDL732:
/*    559 */	fmadd	d1, d21, d21, d1
/*    559 */	fmadd	d6, d6, d18, d20
	.loc 38 557 0
..LDL733:
/*    557 */	fmadd	d4, d7, d4, d22
	.loc 38 559 0
..LDL734:
/*    559 */	fmul	d2, d6, d2
	.loc 38 560 0
..LDL735:
/*    560 */	fmul	d4, d4, d17
	.loc 38 559 0
..LDL736:
/*    559 */	fmadd	d5, d5, d2, d2
	.loc 38 560 0
..LDL737:
/*    560 */	fmadd	d0, d0, d4, d4
	.loc 38 559 0
..LDL738:
/*    559 */	fmadd	d1, d1, d5, d2
	.loc 38 560 0
..LDL739:
/*    560 */	fmadd	d0, d16, d0, d4
	.loc 38 559 0
..LDL740:
/*    559 */	str	d1, [x3, x17, lsl #3]	//  (*)
	.loc 38 560 0
..LDL741:
/*    560 */	str	d0, [x3, x11, lsl #3]	//  (*)
.L2408:					// :term
	.loc 38 589 0
..LDL742:
/*    589 */	sub	w9, w9, 1
/*    589 */	sub	x7, x7, 1
/*    589 */	subs	w8, w8, 1
/*    589 */	bne	.L2388
.L2410:					// :term
	.loc 38 590 0
..LDL743:
/*    590 */	sub	w2, w2, w5
/*    590 */	cmp	w2, w1
/*    590 */	bge	.L2385
.L2413:
/*    590 */	add	x19, sp, 32
/*    590 */	ldr	x0, [x19, -16]
/*    590 */	bl	__mpc_obar
/*    590 */	ldr	x0, [x19, -16]
/*    590 */	bl	__mpc_obar
/*    ??? */	add	sp, sp, 64
	.cfi_def_cfa_offset 64
/*    ??? */	ldp	x19, x20, [sp, 32]	//  (*)
	.cfi_restore 19
	.cfi_restore 20
/*    ??? */	ldp	x21, x22, [sp, 16]	//  (*)
	.cfi_restore 21
	.cfi_restore 22
/*    ??? */	ldp	x23, x24, [sp]	//  (*)
	.cfi_restore 23
	.cfi_restore 24
/*    ??? */	ldp	x29, x30, [sp, 48]	//  (*)
	.cfi_restore 29
	.cfi_restore 30
/*    590 */	add	sp, sp, 64
	.cfi_def_cfa_offset 0
/*    590 */	ret	
..D9.pchi:
	.cfi_endproc
.LFE8:
	.size	_Z22ComputeSYMGS_BLOCK_SVERK19SparseMatrix_STRUCTRK13Vector_STRUCTRS2_R9TraceData._OMP_6, .-_Z22ComputeSYMGS_BLOCK_SVERK19SparseMatrix_STRUCTRK13Vector_STRUCTRS2_R9TraceData._OMP_6
	.ident	"$Compiler: Fujitsu C/C++ Compiler 4.7.0 (Nov 10 2021 09:37:15) ../src/ComputeSYMGS.cpp _Z22ComputeFusedSYMGS_SPMVRK19SparseMatrix_STRUCTRK13Vector_STRUCTRS2_S5_ $"
	.text
	.align	2
	.global	_Z22ComputeFusedSYMGS_SPMVRK19SparseMatrix_STRUCTRK13Vector_STRUCTRS2_S5_
	.type	_Z22ComputeFusedSYMGS_SPMVRK19SparseMatrix_STRUCTRK13Vector_STRUCTRS2_S5_, %function
_Z22ComputeFusedSYMGS_SPMVRK19SparseMatrix_STRUCTRK13Vector_STRUCTRS2_S5_:
	.loc 38 1251 0
..LDL744:
.LFB9:
	.cfi_startproc
/*   1310 */	sub	sp, sp, 48
	.cfi_def_cfa_offset 48
/*    ??? */	str	x30, [sp, 32]	//  (*)
	.cfi_offset 30, -16
/*    ??? */	stp	x19, x20, [sp, 16]	//  (*)
	.cfi_offset 19, -32
	.cfi_offset 20, -24
/*    ??? */	stp	x21, x22, [sp]	//  (*)
	.cfi_offset 21, -48
	.cfi_offset 22, -40
/*    ??? */	sub	sp, sp, 80
	.cfi_def_cfa_offset 128
/*   1251 */	add	x19, sp, 16
/*   1251 */	str	x0, [x19, 40]
	.loc 38 1252 0
..LDL745:
/*   1252 */	ldr	w5, [x2]	//  (*)
/*   1252 */	ldr	w4, [x0, 36]	//  (*)
/*   1252 */	cmp	w5, w4
/*   1252 */	bne	.L2428
	.loc 38 1258 0
..LDL746:
/*   1258 */	ldr	x1, [x1, 8]	//  (*)
/*   1258 */	str	x1, [x19, 32]
	.loc 38 1259 0
..LDL747:
/*   1259 */	ldr	x1, [x2, 8]	//  (*)
/*   1259 */	str	x1, [x19, 24]
	.loc 38 1260 0
..LDL748:
/*   1260 */	ldr	x1, [x3, 8]	//  (*)
/*   1260 */	str	x1, [x19, 16]
	.loc 38 1261 0
..LDL749:
/*   1261 */	ldr	x1, [x0, 80]	//  (*)
/*   1261 */	str	x1, [x19, 8]
	.loc 38 1266 0
..LDL750:
/*   1266 */	str	wzr, [x19, 4]
	.loc 37 641 0
..LDL751:
/*    641 */	ldp	x0, x1, [x0, 280]	//  (*)
/*    641 */	sub	x0, x1, x0
/*    641 */	mov	x1, 24
/*    641 */	sdiv	x0, x0, x1
	.loc 38 1266 0
..LDL752:
/*   1266 */	cbz	x0, .L2422
	.loc 38 1268 0 is_stmt 0
..LDL753:
/*   1268 */	adrp	x0, _Z22ComputeFusedSYMGS_SPMVRK19SparseMatrix_STRUCTRK13Vector_STRUCTRS2_S5_._OMP_7
	.loc 37 641 0
..LDL754:
/*    641 */	mov	x20, 24
	.loc 38 1285 0
..LDL755:
/*   1285 */	add	x22, x19, 40
	.loc 38 1268 0
..LDL756:
/*   1268 */	add	x21, x0, :lo12:_Z22ComputeFusedSYMGS_SPMVRK19SparseMatrix_STRUCTRK13Vector_STRUCTRS2_S5_._OMP_7
	.p2align 5
.L2420:					// :entr:term
	.loc 38 1268 0 is_stmt 0
..LDL757:
/*   1268 */	mov	x2, 0
/*   1268 */	mov	x0, x21
/*   1268 */	mov	x1, x19
/*   1268 */	bl	__mpc_opar
	.loc 38 1285 0 is_stmt 1
..LDL758:
/*   1285 */	ldr	w0, [x22, -36]
/*   1285 */	add	w0, w0, 1
/*   1285 */	str	w0, [x22, -36]
/*   1285 */	sxtw	x1, w0
	.loc 37 641 0
..LDL759:
/*    641 */	ldr	x0, [x22]
/*    641 */	ldp	x0, x2, [x0, 280]	//  (*)
/*    641 */	sub	x0, x2, x0
/*    641 */	sdiv	x0, x0, x20
	.loc 38 1285 0
..LDL760:
/*   1285 */	cmp	x1, x0
/*   1285 */	bcc	.L2420
.L2422:
	.loc 37 641 0
..LDL761:
/*    641 */	ldr	x0, [x19, 40]
/*    641 */	ldp	x0, x1, [x0, 280]	//  (*)
/*    641 */	sub	x0, x1, x0
/*    641 */	mov	x1, 24
/*    641 */	sdiv	x0, x0, x1
	.loc 38 1290 0
..LDL762:
/*   1290 */	sub	x0, x0, 1
/*   1290 */	str	w0, [x19]
/*   1290 */	cmp	w0, 0
/*   1290 */	blt	.L2427
	.loc 38 1292 0 is_stmt 0
..LDL763:
/*   1292 */	adrp	x0, _Z22ComputeFusedSYMGS_SPMVRK19SparseMatrix_STRUCTRK13Vector_STRUCTRS2_S5_._OMP_8
/*   1292 */	add	x20, x0, :lo12:_Z22ComputeFusedSYMGS_SPMVRK19SparseMatrix_STRUCTRK13Vector_STRUCTRS2_S5_._OMP_8
	.p2align 5
.L2425:					// :entr:term
	.loc 38 1292 0 is_stmt 0
..LDL764:
/*   1292 */	mov	x2, 0
/*   1292 */	mov	x0, x20
/*   1292 */	mov	x1, x19
/*   1292 */	bl	__mpc_opar
	.loc 38 1311 0 is_stmt 1
..LDL765:
/*   1311 */	ldr	w0, [x19]
/*   1311 */	sub	w0, w0, 1
/*   1311 */	str	w0, [x19]
/*   1311 */	cmp	w0, 0
/*   1311 */	bge	.L2425
.L2427:
	.loc 38 1313 0
..LDL766:
/*   1313 */	mov	w0, 0
/*   1313 */	b	.L2429
.L2428:
	.loc 38 1252 0
..LDL767:
/*   1252 */	adrp	x0, .LR.3
/*   1252 */	adrp	x1, .LR.2
/*   1252 */	mov	w2, 1252
/*   1252 */	add	x0, x0, :lo12:.LR.3
/*   1252 */	add	x1, x1, :lo12:.LR.2
/*   1252 */	adrp	x3, .LR.6
/*   1252 */	add	x3, x3, :lo12:.LR.6
/*   1252 */	bl	__assert_fail
.L2429:					// :epi:term
	.loc 38 1314 0
..LDL768:
/*    ??? */	add	sp, sp, 80
	.cfi_def_cfa_offset 48
/*    ??? */	ldp	x19, x20, [sp, 16]	//  (*)
	.cfi_restore 19
	.cfi_restore 20
/*    ??? */	ldp	x21, x22, [sp]	//  (*)
	.cfi_restore 21
	.cfi_restore 22
/*    ??? */	ldr	x30, [sp, 32]	//  (*)
	.cfi_restore 30
/*   1314 */	add	sp, sp, 48
	.cfi_def_cfa_offset 0
/*   1314 */	ret	
..D10.pchi:
	.cfi_endproc
.LFE9:
	.size	_Z22ComputeFusedSYMGS_SPMVRK19SparseMatrix_STRUCTRK13Vector_STRUCTRS2_S5_, .-_Z22ComputeFusedSYMGS_SPMVRK19SparseMatrix_STRUCTRK13Vector_STRUCTRS2_S5_
	.ident	"$Compiler: Fujitsu C/C++ Compiler 4.7.0 (Nov 10 2021 09:37:15) ../src/ComputeSYMGS.cpp _Z22ComputeFusedSYMGS_SPMVRK19SparseMatrix_STRUCTRK13Vector_STRUCTRS2_S5_._OMP_7 $"
	.text
	.align	2
	.type	_Z22ComputeFusedSYMGS_SPMVRK19SparseMatrix_STRUCTRK13Vector_STRUCTRS2_S5_._OMP_7, %function
_Z22ComputeFusedSYMGS_SPMVRK19SparseMatrix_STRUCTRK13Vector_STRUCTRS2_S5_._OMP_7:
	.loc 38 1268 0
..LDL769:
.LFB10:
	.cfi_startproc
/*    595 */	sub	sp, sp, 80
	.cfi_def_cfa_offset 80
/*    ??? */	stp	x19, x30, [sp, 56]	//  (*)
	.cfi_offset 30, -16
	.cfi_offset 19, -24
/*    ??? */	stp	d8, d9, [sp, 40]	//  (*)
	.cfi_offset 72, -40
	.cfi_offset 73, -32
/*    ??? */	stp	d10, d11, [sp, 24]	//  (*)
	.cfi_offset 74, -56
	.cfi_offset 75, -48
/*    ??? */	stp	d12, d13, [sp, 8]	//  (*)
	.cfi_offset 76, -72
	.cfi_offset 77, -64
/*    ??? */	str	d14, [sp]	//  (*)
	.cfi_offset 78, -80
/*    ??? */	sub	sp, sp, 48
	.cfi_def_cfa_offset 128
/*    595 */	str	x1, [sp, 32]
/*    595 */	str	x2, [sp, 24]
/*    595 */	str	x3, [sp, 16]
/*    595 */	str	x4, [sp, 8]
	.loc 38 1268 0 is_stmt 0
..LDL770:
	.loc 38 1268 0 is_stmt 0
..LDL771:
	.loc 38 1270 0 is_stmt 1
..LDL772:
/*   1270 */	ldrsw	x2, [x0, 4]	//  "l"
	.loc 37 1506 0
..LDL773:
/*   1506 */	ldr	x1, [x0, 40]	//  "A"
/*   1506 */	add	x3, x2, x2
/*   1506 */	ldr	x1, [x1, 280]	//  (*)
/*   1506 */	add	x2, x3, x2
/*   1506 */	lsl	x6, x2, 3
	.loc 37 641 0
..LDL774:
/*    641 */	add	x2, x6, 8
/*    641 */	ldr	x2, [x1, x2]	//  (*)
/*    641 */	ldr	x1, [x1, x6]	//  (*)
/*    641 */	sub	x1, x2, x1
/*    641 */	asr	x2, x1, 1
/*    641 */	add	x1, x1, x2, lsr #62
/*    641 */	asr	x1, x1, 2
/*   1270 */	cbz	x1, .L2450
	.loc 38 1270 0
..LDL775:
/*   1270 */	add	x2, sp, 32
/*   1270 */	ldr	x4, [x2]
/*   1270 */	sdiv	x3, x1, x4
/*   1270 */	msub	x1, x4, x3, x1
/*   1270 */	cbnz	x1, .L2434
/*   1270 */	ldr	x1, [x2, -8]
/*   1270 */	mul	x2, x1, x3
/*   1270 */	b	.L2437
.L2434:
/*   1270 */	ldr	x2, [x2, -8]
/*   1270 */	cmp	x2, x1
/*   1270 */	blt	.L2436
/*   1270 */	madd	x2, x2, x3, x1
/*   1270 */	b	.L2437
.L2436:
/*   1270 */	add	x3, x3, 1
/*   1270 */	mul	x2, x2, x3
.L2437:
/*   1270 */	sub	x1, x3, 1
/*   1270 */	add	x1, x1, x2
/*   1270 */	cbz	x3, .L2450
	.loc 38 1279 0 is_stmt 0
..LDL776:
/*   1279 */	ptrue	p1.d, ALL
	.loc 38 1276 0
..LDL777:
/*   1276 */	ldr	x7, [x0, 32]	//  "rv"
	.loc 38 1283 0
..LDL778:
/*   1283 */	fmov	d12, 1.000000e+00
	.loc 38 1282 0
..LDL779:
/*   1282 */	ldr	x10, [x0, 24]	//  "xv"
	.loc 38 1280 0
..LDL780:
/*   1280 */	fmov	z27.d, 0.000000e+00
	.loc 38 1271 0
..LDL781:
/*   1271 */	sxtw	x8, w2
.L2439:					// :entr
	.loc 37 1506 0 is_stmt 1
..LDL782:
/*   1506 */	ldr	x3, [x0, 40]	//  "A"
	.loc 38 1275 0
..LDL783:
/*   1275 */	ldr	x4, [x0, 8]	//  "matrixDiagonal"
	.loc 37 1506 0
..LDL784:
/*   1506 */	ldr	x9, [x3, 280]	//  (*)
	.loc 38 1274 0
..LDL785:
/*   1274 */	ldr	x2, [x3, 48]	//  (*)
	.loc 38 1272 0
..LDL786:
/*   1272 */	ldp	x3, x5, [x3, 64]	//  (*)
	.loc 37 1506 0
..LDL787:
/*   1506 */	ldr	x9, [x9, x6]	//  (*)
	.loc 38 1271 0
..LDL788:
/*   1271 */	ldrsw	x13, [x9, x8, lsl #2]	//  (*)
	.loc 38 1274 0
..LDL789:
/*   1274 */	ldrb	w2, [x2, x13]	//  (*)
	.loc 38 1275 0
..LDL790:
/*   1275 */	ldr	x4, [x4, x13, lsl #3]	//  (*)
	.loc 38 1276 0
..LDL791:
/*   1276 */	ldr	d26, [x7, x13, lsl #3]	//  (*)
	.loc 38 1273 0
..LDL792:
/*   1273 */	ldr	x15, [x3, x13, lsl #3]	//  (*)
	.loc 38 1272 0
..LDL793:
/*   1272 */	ldr	x11, [x5, x13, lsl #3]	//  (*)
	.loc 38 1274 0
..LDL794:
/*   1274 */	uxtb	w3, w2
	.loc 38 1275 0
..LDL795:
/*   1275 */	ldr	d28, [x4]	//  (*)
	.loc 38 1278 0
..LDL796:
/*   1278 */	uxtb	w4, w2
/*   1278 */	cmp	w3, 0
/*   1278 */	csel	w2, w3, wzr, ge
/*   1278 */	cbz	w4, .L2447
/*   1278 */	asr	w3, w2, 2
/*   1278 */	mov	x5, 0
/*   1278 */	add	w3, w2, w3, lsr #29
/*   1278 */	asr	w9, w3, 3
/*   1278 */	sub	w12, w2, w9, lsl #3
/*   1278 */	cbz	w9, .L2444
/*   1278 */	sub	w3, w9, 8
/*   1278 */	mov	z0.d, z27.d
/*   1278 */	cmp	w3, 0
/*   1278 */	blt	.L2453
	.loc 38 1280 0 is_stmt 0
..LDL797:
/*   1280 */	ldr	x14, [x0, 24]	//  "xv"
	.loc 38 1279 0
..LDL798:
/*   1279 */	add	x4, x15, 224
	.loc 38 1280 0
..LDL799:
/*   1280 */	mov	z19.d, z27.d
/*   1280 */	mov	z18.d, z27.d
/*   1280 */	add	x2, x11, 448
/*   1280 */	mov	z16.d, z27.d
/*   1280 */	mov	z6.d, z27.d
	.loc 38 1278 0
..LDL800:
/*   1278 */	cmp	w3, 16
	.loc 38 1280 0
..LDL801:
/*   1280 */	mov	z5.d, z27.d
/*   1280 */	mov	z3.d, z27.d
/*   1280 */	mov	z2.d, z27.d
/*   1280 */	mov	z0.d, z27.d
	.loc 38 1278 0
..LDL802:
/*   1278 */	blt	.L2895
	.loc 38 1281 0
..LDL803:
/*   1281 */	mov	z1.d, z0.d
	.loc 38 1279 0
..LDL804:
/*   1279 */	ld1sw	{z31.d}, p1/z, [x4, -7, mul vl]	//  (*)
	.loc 38 1281 0
..LDL805:
/*   1281 */	mov	z22.d, z16.d
/*   1281 */	mov	z4.d, z2.d
/*   1281 */	mov	z7.d, z3.d
	.loc 38 1279 0
..LDL806:
/*   1279 */	ld1sw	{z30.d}, p1/z, [x4, -6, mul vl]	//  (*)
/*   1279 */	ld1sw	{z29.d}, p1/z, [x4, -5, mul vl]	//  (*)
	.loc 38 1281 0
..LDL807:
/*   1281 */	mov	z17.d, z5.d
/*   1281 */	mov	z20.d, z6.d
	.loc 38 1279 0
..LDL808:
/*   1279 */	ld1sw	{z8.d}, p1/z, [x4, -4, mul vl]	//  (*)
/*   1279 */	ld1sw	{z9.d}, p1/z, [x4, -3, mul vl]	//  (*)
	.loc 38 1281 0
..LDL809:
/*   1281 */	mov	z24.d, z18.d
/*   1281 */	mov	z25.d, z19.d
	.loc 38 1279 0
..LDL810:
/*   1279 */	ld1sw	{z10.d}, p1/z, [x4, -2, mul vl]	//  (*)
/*   1279 */	ld1sw	{z16.d}, p1/z, [x4, -1, mul vl]	//  (*)
	.p2align 5
.L2442:					// :entr:term:body:swpl
/*   1279 */	ld1sw	{z0.d}, p1/z, [x4, 0, mul vl]	//  (*)
	.loc 38 1280 0
..LDL811:
/*   1280 */	ld1d	{z31.d}, p1/z, [x14, z31.d, lsl #3]	//  (*)
/*   1280 */	ld1d	{z11.d}, p1/z, [x14, z30.d, lsl #3]	//  (*)
/*   1280 */	ld1d	{z23.d}, p1/z, [x14, z29.d, lsl #3]	//  (*)
/*   1280 */	ld1d	{z21.d}, p1/z, [x14, z8.d, lsl #3]	//  (*)
/*   1280 */	ld1d	{z18.d}, p1/z, [x14, z9.d, lsl #3]	//  (*)
/*   1280 */	ld1d	{z6.d}, p1/z, [x14, z10.d, lsl #3]	//  (*)
/*   1280 */	ld1d	{z3.d}, p1/z, [x14, z16.d, lsl #3]	//  (*)
/*   1280 */	ld1d	{z0.d}, p1/z, [x14, z0.d, lsl #3]	//  (*)
/*   1280 */	ld1d	{z14.d}, p1/z, [x2, -7, mul vl]	//  (*)
/*   1280 */	ld1d	{z13.d}, p1/z, [x2, -6, mul vl]	//  (*)
/*   1280 */	ld1d	{z9.d}, p1/z, [x2, -5, mul vl]	//  (*)
/*   1280 */	ld1d	{z10.d}, p1/z, [x2, -4, mul vl]	//  (*)
/*   1280 */	ld1d	{z19.d}, p1/z, [x2, -3, mul vl]	//  (*)
/*   1280 */	ld1d	{z16.d}, p1/z, [x2, -2, mul vl]	//  (*)
/*   1280 */	ld1d	{z5.d}, p1/z, [x2, -1, mul vl]	//  (*)
/*   1280 */	ld1d	{z2.d}, p1/z, [x2, 0, mul vl]	//  (*)
	.loc 38 1281 0
..LDL812:
/*   1281 */	add	x16, x4, 256
	.loc 38 1279 0
..LDL813:
/*   1279 */	ld1sw	{z29.d}, p1/z, [x4, 1, mul vl]	//  (*)
/*   1279 */	ld1sw	{z8.d}, p1/z, [x4, 2, mul vl]	//  (*)
/*   1279 */	ld1sw	{z30.d}, p1/z, [x4, 3, mul vl]	//  (*)
	.loc 38 1280 0
..LDL814:
/*   1280 */	fmls	z25.d, p1/m, z14.d, z31.d
/*   1280 */	fmls	z24.d, p1/m, z13.d, z11.d
	.loc 38 1279 0
..LDL815:
/*   1279 */	ld1sw	{z31.d}, p1/z, [x4, 4, mul vl]	//  (*)
	.loc 38 1280 0
..LDL816:
/*   1280 */	fmls	z22.d, p1/m, z9.d, z23.d
	.loc 38 1279 0
..LDL817:
/*   1279 */	ld1sw	{z9.d}, p1/z, [x4, 5, mul vl]	//  (*)
	.loc 38 1280 0
..LDL818:
/*   1280 */	fmls	z20.d, p1/m, z10.d, z21.d
	.loc 38 1279 0
..LDL819:
/*   1279 */	ld1sw	{z10.d}, p1/z, [x4, 6, mul vl]	//  (*)
	.loc 38 1280 0
..LDL820:
/*   1280 */	fmsb	z19.d, p1/m, z18.d, z17.d
/*   1280 */	fmsb	z16.d, p1/m, z6.d, z7.d
	.loc 38 1279 0
..LDL821:
/*   1279 */	ld1sw	{z7.d}, p1/z, [x4, 7, mul vl]	//  (*)
	.loc 38 1281 0
..LDL822:
/*   1281 */	add	x17, x2, 512
	.loc 38 1280 0
..LDL823:
/*   1280 */	fmls	z4.d, p1/m, z5.d, z3.d
/*   1280 */	fmls	z1.d, p1/m, z2.d, z0.d
	.loc 38 1279 0
..LDL824:
/*   1279 */	ld1sw	{z0.d}, p1/z, [x16, 0, mul vl]	//  (*)
	.loc 38 1280 0
..LDL825:
/*   1280 */	ld1d	{z11.d}, p1/z, [x14, z29.d, lsl #3]	//  (*)
/*   1280 */	ld1d	{z8.d}, p1/z, [x14, z8.d, lsl #3]	//  (*)
/*   1280 */	ld1d	{z23.d}, p1/z, [x14, z30.d, lsl #3]	//  (*)
/*   1280 */	ld1d	{z21.d}, p1/z, [x14, z31.d, lsl #3]	//  (*)
/*   1280 */	ld1d	{z18.d}, p1/z, [x14, z9.d, lsl #3]	//  (*)
/*   1280 */	ld1d	{z6.d}, p1/z, [x14, z10.d, lsl #3]	//  (*)
/*   1280 */	ld1d	{z3.d}, p1/z, [x14, z7.d, lsl #3]	//  (*)
/*   1280 */	ld1d	{z0.d}, p1/z, [x14, z0.d, lsl #3]	//  (*)
/*   1280 */	ld1d	{z14.d}, p1/z, [x2, 1, mul vl]	//  (*)
/*   1280 */	ld1d	{z13.d}, p1/z, [x2, 2, mul vl]	//  (*)
/*   1280 */	ld1d	{z9.d}, p1/z, [x2, 3, mul vl]	//  (*)
/*   1280 */	ld1d	{z10.d}, p1/z, [x2, 4, mul vl]	//  (*)
/*   1280 */	ld1d	{z17.d}, p1/z, [x2, 5, mul vl]	//  (*)
/*   1280 */	ld1d	{z7.d}, p1/z, [x2, 6, mul vl]	//  (*)
/*   1280 */	ld1d	{z5.d}, p1/z, [x2, 7, mul vl]	//  (*)
/*   1280 */	ld1d	{z2.d}, p1/z, [x17, 0, mul vl]	//  (*)
	.loc 38 1281 0
..LDL826:
/*   1281 */	add	x4, x16, 256
	.loc 38 1279 0
..LDL827:
/*   1279 */	ld1sw	{z31.d}, p1/z, [x16, 1, mul vl]	//  (*)
/*   1279 */	ld1sw	{z30.d}, p1/z, [x16, 2, mul vl]	//  (*)
/*   1279 */	ld1sw	{z29.d}, p1/z, [x16, 3, mul vl]	//  (*)
	.loc 38 1280 0
..LDL828:
/*   1280 */	fmls	z25.d, p1/m, z14.d, z11.d
/*   1280 */	fmls	z24.d, p1/m, z13.d, z8.d
	.loc 38 1279 0
..LDL829:
/*   1279 */	ld1sw	{z8.d}, p1/z, [x16, 4, mul vl]	//  (*)
	.loc 38 1280 0
..LDL830:
/*   1280 */	fmls	z22.d, p1/m, z9.d, z23.d
	.loc 38 1279 0
..LDL831:
/*   1279 */	ld1sw	{z9.d}, p1/z, [x16, 5, mul vl]	//  (*)
	.loc 38 1280 0
..LDL832:
/*   1280 */	fmls	z20.d, p1/m, z10.d, z21.d
	.loc 38 1279 0
..LDL833:
/*   1279 */	ld1sw	{z10.d}, p1/z, [x16, 6, mul vl]	//  (*)
	.loc 38 1280 0
..LDL834:
/*   1280 */	fmsb	z17.d, p1/m, z18.d, z19.d
/*   1280 */	fmsb	z7.d, p1/m, z6.d, z16.d
	.loc 38 1279 0
..LDL835:
/*   1279 */	ld1sw	{z16.d}, p1/z, [x16, 7, mul vl]	//  (*)
/*   1279 */	add	x5, x5, 128
	.loc 38 1281 0
..LDL836:
/*   1281 */	add	x2, x17, 512
	.loc 38 1280 0
..LDL837:
/*   1280 */	fmls	z4.d, p1/m, z5.d, z3.d
/*   1280 */	fmls	z1.d, p1/m, z2.d, z0.d
	.loc 38 1281 0
..LDL838:
/*   1281 */	sub	w3, w3, 16
	.loc 38 1279 0
..LDL839:
/*   1279 */	cmp	w3, 16
/*   1279 */	bge	.L2442
/*   1279 */	ld1sw	{z0.d}, p1/z, [x4, 0, mul vl]	//  (*)
	.loc 38 1280 0
..LDL840:
/*   1280 */	ld1d	{z11.d}, p1/z, [x14, z31.d, lsl #3]	//  (*)
	.loc 38 1281 0
..LDL841:
/*   1281 */	add	x4, x4, 256
/*   1281 */	sub	w3, w3, 8
	.loc 38 1280 0
..LDL842:
/*   1280 */	ld1d	{z13.d}, p1/z, [x14, z30.d, lsl #3]	//  (*)
/*   1280 */	ld1d	{z19.d}, p1/z, [x2, -7, mul vl]	//  (*)
	.loc 38 1279 0
..LDL843:
/*   1279 */	add	x5, x5, 64
	.loc 38 1281 0
..LDL844:
/*   1281 */	cmp	w3, 0
	.loc 38 1280 0
..LDL845:
/*   1280 */	ld1d	{z14.d}, p1/z, [x14, z29.d, lsl #3]	//  (*)
/*   1280 */	ld1d	{z18.d}, p1/z, [x2, -6, mul vl]	//  (*)
/*   1280 */	ld1d	{z23.d}, p1/z, [x14, z16.d, lsl #3]	//  (*)
/*   1280 */	ld1d	{z16.d}, p1/z, [x2, -5, mul vl]	//  (*)
/*   1280 */	ld1d	{z31.d}, p1/z, [x14, z8.d, lsl #3]	//  (*)
/*   1280 */	ld1d	{z6.d}, p1/z, [x2, -4, mul vl]	//  (*)
/*   1280 */	ld1d	{z30.d}, p1/z, [x14, z9.d, lsl #3]	//  (*)
/*   1280 */	ld1d	{z5.d}, p1/z, [x2, -3, mul vl]	//  (*)
/*   1280 */	ld1d	{z29.d}, p1/z, [x14, z10.d, lsl #3]	//  (*)
/*   1280 */	ld1d	{z3.d}, p1/z, [x2, -2, mul vl]	//  (*)
/*   1280 */	ld1d	{z2.d}, p1/z, [x2, -1, mul vl]	//  (*)
/*   1280 */	ld1d	{z21.d}, p1/z, [x14, z0.d, lsl #3]	//  (*)
/*   1280 */	ld1d	{z0.d}, p1/z, [x2, 0, mul vl]	//  (*)
	.loc 38 1281 0
..LDL846:
/*   1281 */	add	x2, x2, 512
	.loc 38 1280 0
..LDL847:
/*   1280 */	fmsb	z19.d, p1/m, z11.d, z25.d
/*   1280 */	fmsb	z18.d, p1/m, z13.d, z24.d
/*   1280 */	fmsb	z16.d, p1/m, z14.d, z22.d
/*   1280 */	fmsb	z2.d, p1/m, z23.d, z4.d
/*   1280 */	fmsb	z6.d, p1/m, z31.d, z20.d
/*   1280 */	fmsb	z5.d, p1/m, z30.d, z17.d
/*   1280 */	fmsb	z3.d, p1/m, z29.d, z7.d
/*   1280 */	fmsb	z0.d, p1/m, z21.d, z1.d
	.loc 38 1281 0
..LDL848:
/*   1281 */	blt	.L2892
.L2895:
	.p2align 5
.L2898:					// :entr:term:mod:swpl
	.loc 38 1279 0 is_stmt 1
..LDL849:
/*   1279 */	ld1sw	{z24.d}, p1/z, [x4, -7, mul vl]	//  (*)
/*   1279 */	ld1sw	{z23.d}, p1/z, [x4, -6, mul vl]	//  (*)
/*   1279 */	add	x5, x5, 64
	.loc 38 1281 0 is_stmt 0
..LDL850:
/*   1281 */	subs	w3, w3, 8
	.loc 38 1279 0
..LDL851:
/*   1279 */	ld1sw	{z4.d}, p1/z, [x4, -5, mul vl]	//  (*)
/*   1279 */	ld1sw	{z10.d}, p1/z, [x4, -4, mul vl]	//  (*)
/*   1279 */	ld1sw	{z21.d}, p1/z, [x4, -3, mul vl]	//  (*)
/*   1279 */	ld1sw	{z22.d}, p1/z, [x4, -2, mul vl]	//  (*)
/*   1279 */	ld1sw	{z29.d}, p1/z, [x4, -1, mul vl]	//  (*)
/*   1279 */	ld1sw	{z25.d}, p1/z, [x4, 0, mul vl]	//  (*)
	.loc 38 1281 0
..LDL852:
/*   1281 */	add	x4, x4, 256
	.loc 38 1280 0 is_stmt 1
..LDL853:
/*   1280 */	ld1d	{z20.d}, p1/z, [x2, -7, mul vl]	//  (*)
/*   1280 */	ld1d	{z1.d}, p1/z, [x2, -6, mul vl]	//  (*)
/*   1280 */	ld1d	{z7.d}, p1/z, [x2, -5, mul vl]	//  (*)
/*   1280 */	ld1d	{z17.d}, p1/z, [x2, -4, mul vl]	//  (*)
/*   1280 */	ld1d	{z9.d}, p1/z, [x2, -3, mul vl]	//  (*)
/*   1280 */	ld1d	{z8.d}, p1/z, [x2, -2, mul vl]	//  (*)
/*   1280 */	ld1d	{z31.d}, p1/z, [x2, -1, mul vl]	//  (*)
/*   1280 */	ld1d	{z30.d}, p1/z, [x2, 0, mul vl]	//  (*)
	.loc 38 1281 0 is_stmt 0
..LDL854:
/*   1281 */	add	x2, x2, 512
	.loc 38 1280 0
..LDL855:
/*   1280 */	ld1d	{z24.d}, p1/z, [x14, z24.d, lsl #3]	//  (*)
/*   1280 */	ld1d	{z23.d}, p1/z, [x14, z23.d, lsl #3]	//  (*)
/*   1280 */	ld1d	{z4.d}, p1/z, [x14, z4.d, lsl #3]	//  (*)
/*   1280 */	ld1d	{z10.d}, p1/z, [x14, z10.d, lsl #3]	//  (*)
/*   1280 */	ld1d	{z21.d}, p1/z, [x14, z21.d, lsl #3]	//  (*)
/*   1280 */	ld1d	{z22.d}, p1/z, [x14, z22.d, lsl #3]	//  (*)
/*   1280 */	ld1d	{z29.d}, p1/z, [x14, z29.d, lsl #3]	//  (*)
/*   1280 */	ld1d	{z25.d}, p1/z, [x14, z25.d, lsl #3]	//  (*)
/*   1280 */	fmls	z19.d, p1/m, z20.d, z24.d
/*   1280 */	fmls	z18.d, p1/m, z1.d, z23.d
/*   1280 */	fmls	z16.d, p1/m, z7.d, z4.d
/*   1280 */	fmls	z6.d, p1/m, z17.d, z10.d
/*   1280 */	fmls	z5.d, p1/m, z9.d, z21.d
/*   1280 */	fmls	z3.d, p1/m, z8.d, z22.d
/*   1280 */	fmls	z2.d, p1/m, z31.d, z29.d
/*   1280 */	fmls	z0.d, p1/m, z30.d, z25.d
	.loc 38 1281 0
..LDL856:
/*   1281 */	bpl	.L2898
.L2892:
	.loc 38 1280 0
..LDL857:
/*   1280 */	fadd	z0.d, z0.d, z2.d
/*   1280 */	fadd	z1.d, z3.d, z5.d
/*   1280 */	fadd	z2.d, z6.d, z16.d
/*   1280 */	fadd	z3.d, z19.d, z18.d
/*   1280 */	fadd	z0.d, z1.d, z0.d
/*   1280 */	fadd	z1.d, z3.d, z2.d
/*   1280 */	fadd	z0.d, z1.d, z0.d
.L2453:
	.loc 38 1278 0 is_stmt 1
..LDL858:
/*   1278 */	adds	w3, w3, 7
/*   1278 */	bmi	.L2443
	.loc 38 1280 0 is_stmt 0
..LDL859:
/*   1280 */	ldr	x2, [x0, 24]	//  "xv"
	.p2align 5
.L2465:					// :entr:term:mod
	.loc 38 1279 0 is_stmt 1
..LDL860:
/*   1279 */	ld1sw	{z1.d}, p1/z, [x15, x5, lsl #2]	//  (*)
	.loc 38 1281 0 is_stmt 0
..LDL861:
/*   1281 */	subs	w3, w3, 1
	.loc 38 1280 0 is_stmt 1
..LDL862:
/*   1280 */	ld1d	{z2.d}, p1/z, [x2, z1.d, lsl #3]	//  (*)
/*   1280 */	ld1d	{z1.d}, p1/z, [x11, x5, lsl #3]	//  (*)
	.loc 38 1279 0 is_stmt 0
..LDL863:
/*   1279 */	add	x5, x5, 8
	.loc 38 1280 0
..LDL864:
/*   1280 */	fmls	z0.d, p1/m, z1.d, z2.d
	.loc 38 1279 0
..LDL865:
/*   1279 */	bpl	.L2465
.L2443:
	.loc 38 1280 0
..LDL866:
/*   1280 */	movprfx	z1, z0
/*   1280 */	ext	z1.b, z1.b, z0.b, 32
/*   1280 */	fadd	z1.d, z1.d, z0.d
/*   1280 */	movprfx	z0, z1
/*   1280 */	ext	z0.b, z0.b, z1.b, 16
/*   1280 */	fadd	z1.d, z1.d, z0.d
/*   1280 */	movprfx	z0, z1
/*   1280 */	ext	z0.b, z0.b, z1.b, 8
/*   1280 */	fadd	z0.d, z1.d, z0.d
/*   1280 */	fadd	d26, d26, d0
.L2444:
	.loc 38 1278 0 is_stmt 1
..LDL867:
/*   1278 */	sbfiz	x2, x9, 3, 32
/*   1278 */	cbz	w12, .L2447
	.loc 38 1279 0 is_stmt 0
..LDL868:
/*   1279 */	whilelt	p0.d, wzr, w12
	.loc 38 1280 0 is_stmt 1
..LDL869:
/*   1280 */	ldr	x3, [x0, 24]	//  "xv"
	.loc 38 1279 0
..LDL870:
/*   1279 */	ld1sw	{z0.d}, p0/z, [x15, x2, lsl #2]	//  (*)
	.loc 38 1280 0
..LDL871:
/*   1280 */	ld1d	{z1.d}, p0/z, [x11, x2, lsl #3]	//  (*)
/*   1280 */	ld1d	{z0.d}, p0/z, [x3, z0.d, lsl #3]	//  (*)
/*   1280 */	fmsb	z1.d, p0/m, z0.d, z27.d
/*   1280 */	sel	z1.d, p0, z1.d, z27.d
/*   1280 */	movprfx	z0, z1
/*   1280 */	ext	z0.b, z0.b, z1.b, 32
/*   1280 */	fadd	z0.d, z1.d, z0.d
/*   1280 */	movprfx	z1, z0
/*   1280 */	ext	z1.b, z1.b, z0.b, 16
/*   1280 */	fadd	z1.d, z0.d, z1.d
/*   1280 */	movprfx	z0, z1
/*   1280 */	ext	z0.b, z0.b, z1.b, 8
/*   1280 */	fadd	z0.d, z1.d, z0.d
/*   1280 */	fadd	d26, d26, d0
.L2447:					// :term
	.loc 38 1283 0
..LDL872:
	.loc 38 1282 0 is_stmt 0
..LDL873:
/*   1282 */	ldr	d2, [x10, x13, lsl #3]	//  (*)
	.loc 38 1283 0
..LDL874:
/*   1283 */	frecpe	d1, d28
	.loc 38 1284 0 is_stmt 1
..LDL875:
/*   1284 */	add	x8, x8, 1
/*   1284 */	cmp	x8, x1
	.loc 38 1283 0
..LDL876:
/*   1283 */	fmsub	d0, d28, d1, d12
/*   1283 */	fmadd	d4, d2, d28, d26
/*   1283 */	fmadd	d3, d0, d0, d0
/*   1283 */	fmul	d2, d0, d0
/*   1283 */	fmul	d1, d4, d1
/*   1283 */	fmadd	d0, d2, d2, d0
/*   1283 */	fmadd	d2, d3, d1, d1
/*   1283 */	fmadd	d0, d0, d2, d1
/*   1283 */	str	d0, [x10, x13, lsl #3]	//  (*)
	.loc 38 1284 0 is_stmt 0
..LDL877:
/*   1284 */	bls	.L2439
	.loc 38 1284 0 is_stmt 1
..LDL878:
.L2450:
/*   1284 */	add	x19, sp, 32
/*   1284 */	ldr	x0, [x19, -16]
/*   1284 */	bl	__mpc_obar
/*   1284 */	ldr	x0, [x19, -16]
/*   1284 */	bl	__mpc_obar
/*    ??? */	add	sp, sp, 48
	.cfi_def_cfa_offset 80
/*    ??? */	ldr	x19, [sp, 56]	//  (*)
	.cfi_restore 19
/*    ??? */	ldr	d14, [sp]	//  (*)
	.cfi_restore 78
/*    ??? */	ldp	d8, d9, [sp, 40]	//  (*)
	.cfi_restore 72
	.cfi_restore 73
/*    ??? */	ldp	d10, d11, [sp, 24]	//  (*)
	.cfi_restore 74
	.cfi_restore 75
/*    ??? */	ldp	d12, d13, [sp, 8]	//  (*)
	.cfi_restore 76
	.cfi_restore 77
/*    ??? */	ldr	x30, [sp, 64]	//  (*)
	.cfi_restore 30
/*   1284 */	add	sp, sp, 80
	.cfi_def_cfa_offset 0
/*   1284 */	ret	
..D11.pchi:
	.cfi_endproc
.LFE10:
	.size	_Z22ComputeFusedSYMGS_SPMVRK19SparseMatrix_STRUCTRK13Vector_STRUCTRS2_S5_._OMP_7, .-_Z22ComputeFusedSYMGS_SPMVRK19SparseMatrix_STRUCTRK13Vector_STRUCTRS2_S5_._OMP_7
	.ident	"$Compiler: Fujitsu C/C++ Compiler 4.7.0 (Nov 10 2021 09:37:15) ../src/ComputeSYMGS.cpp _Z22ComputeFusedSYMGS_SPMVRK19SparseMatrix_STRUCTRK13Vector_STRUCTRS2_S5_._OMP_8 $"
	.text
	.align	2
	.type	_Z22ComputeFusedSYMGS_SPMVRK19SparseMatrix_STRUCTRK13Vector_STRUCTRS2_S5_._OMP_8, %function
_Z22ComputeFusedSYMGS_SPMVRK19SparseMatrix_STRUCTRK13Vector_STRUCTRS2_S5_._OMP_8:
	.loc 38 1292 0
..LDL879:
.LFB11:
	.cfi_startproc
/*   1284 */	sub	sp, sp, 128
	.cfi_def_cfa_offset 128
/*    ??? */	stp	x29, x30, [sp, 112]	//  (*)
	.cfi_offset 29, -16
	.cfi_offset 30, -8
/*    ??? */	stp	x19, x20, [sp, 96]	//  (*)
	.cfi_offset 19, -32
	.cfi_offset 20, -24
/*    ??? */	stp	x21, x22, [sp, 80]	//  (*)
	.cfi_offset 21, -48
	.cfi_offset 22, -40
/*    ??? */	stp	x23, x24, [sp, 64]	//  (*)
	.cfi_offset 23, -64
	.cfi_offset 24, -56
/*    ??? */	stp	d8, d9, [sp, 48]	//  (*)
	.cfi_offset 72, -80
	.cfi_offset 73, -72
/*    ??? */	stp	d10, d11, [sp, 32]	//  (*)
	.cfi_offset 74, -96
	.cfi_offset 75, -88
/*    ??? */	stp	d12, d13, [sp, 16]	//  (*)
	.cfi_offset 76, -112
	.cfi_offset 77, -104
/*    ??? */	stp	d14, d15, [sp]	//  (*)
	.cfi_offset 78, -128
	.cfi_offset 79, -120
/*    ??? */	sub	sp, sp, 64
	.cfi_def_cfa_offset 192
/*   1284 */	str	x1, [sp, 32]
/*   1284 */	str	x2, [sp, 24]
/*   1284 */	str	x3, [sp, 16]
/*   1284 */	str	x4, [sp, 8]
	.loc 38 1292 0 is_stmt 0
..LDL880:
	.loc 38 1292 0 is_stmt 0
..LDL881:
	.loc 38 1294 0 is_stmt 1
..LDL882:
/*   1294 */	ldrsw	x2, [x0]	//  "l"
	.loc 37 1506 0
..LDL883:
/*   1506 */	ldr	x1, [x0, 40]	//  "A"
/*   1506 */	add	x3, x2, x2
/*   1506 */	ldr	x1, [x1, 280]	//  (*)
/*   1506 */	add	x2, x3, x2
/*   1506 */	lsl	x6, x2, 3
	.loc 37 641 0
..LDL884:
/*    641 */	add	x2, x6, 8
/*    641 */	ldr	x2, [x1, x2]	//  (*)
/*    641 */	ldr	x1, [x1, x6]	//  (*)
/*    641 */	sub	x1, x2, x1
/*    641 */	asr	x2, x1, 1
/*    641 */	add	x1, x1, x2, lsr #62
/*    641 */	asr	x1, x1, 2
	.loc 38 1294 0
..LDL885:
/*   1294 */	sub	x1, x1, 1
/*   1294 */	cmp	w1, 0
/*   1294 */	blt	.L2487
/*   1294 */	sxtw	x1, w1
/*   1294 */	add	x2, sp, 32
/*   1294 */	add	x4, x1, 1
/*   1294 */	ldr	x5, [x2]
/*   1294 */	sdiv	x3, x4, x5
/*   1294 */	msub	x4, x5, x3, x4
/*   1294 */	cbnz	x4, .L2471
/*   1294 */	ldr	x2, [x2, -8]
/*   1294 */	msub	x2, x2, x3, x1
/*   1294 */	b	.L2474
.L2471:
/*   1294 */	ldr	x2, [x2, -8]
/*   1294 */	cmp	x2, x4
/*   1294 */	blt	.L2473
/*   1294 */	madd	x2, x2, x3, x4
/*   1294 */	sub	x2, x1, x2
/*   1294 */	b	.L2474
.L2473:
/*   1294 */	add	x3, x3, 1
/*   1294 */	msub	x2, x2, x3, x1
.L2474:
/*   1294 */	mov	x1, 0
/*   1294 */	sub	x1, x1, x3
/*   1294 */	add	x1, x1, 1
/*   1294 */	add	x1, x1, x2
/*   1294 */	cbz	x3, .L2487
	.loc 38 1307 0 is_stmt 0
..LDL886:
/*   1307 */	ldr	x15, [x0, 32]	//  "rv"
	.loc 38 1303 0
..LDL887:
/*   1303 */	index	z26.d, 0, -1
	.loc 38 1294 0
..LDL888:
/*   1294 */	sub	w3, w2, w1
	.loc 38 1307 0
..LDL889:
/*   1307 */	fmov	d15, 1.000000e+00
	.loc 38 1309 0
..LDL890:
/*   1309 */	ldr	x8, [x0, 16]	//  "yv"
	.loc 38 1306 0
..LDL891:
/*   1306 */	ldr	x14, [x0, 24]	//  "xv"
	.loc 38 1294 0
..LDL892:
/*   1294 */	add	w3, w3, 1
/*   1294 */	cmp	w2, w1
	.loc 38 1302 0
..LDL893:
/*   1302 */	ptrue	p1.d, ALL
	.loc 38 1294 0
..LDL894:
/*   1294 */	csinc	w16, w3, wzr, ge
	.loc 38 1295 0
..LDL895:
/*   1295 */	sxtw	x11, w2
	.loc 38 1302 0
..LDL896:
/*   1302 */	mov	x17, 0
.L2476:					// :entr
	.loc 37 1506 0 is_stmt 1
..LDL897:
/*   1506 */	ldr	x2, [x0, 40]	//  "A"
	.loc 38 1299 0
..LDL898:
/*   1299 */	ldr	x3, [x0, 8]	//  "matrixDiagonal"
	.loc 38 1300 0
..LDL899:
/*   1300 */	eor	v1.8b, v1.8b, v1.8b
	.loc 37 1506 0
..LDL900:
/*   1506 */	ldr	x5, [x2, 280]	//  (*)
	.loc 38 1298 0
..LDL901:
/*   1298 */	ldr	x1, [x2, 48]	//  (*)
	.loc 38 1296 0
..LDL902:
/*   1296 */	ldp	x2, x4, [x2, 64]	//  (*)
	.loc 37 1506 0
..LDL903:
/*   1506 */	ldr	x5, [x5, x6]	//  (*)
	.loc 38 1295 0
..LDL904:
/*   1295 */	ldrsw	x10, [x5, x11, lsl #2]	//  (*)
	.loc 38 1298 0
..LDL905:
/*   1298 */	ldrb	w1, [x1, x10]	//  (*)
	.loc 38 1299 0
..LDL906:
/*   1299 */	ldr	x3, [x3, x10, lsl #3]	//  (*)
	.loc 38 1296 0
..LDL907:
/*   1296 */	ldr	x13, [x4, x10, lsl #3]	//  (*)
	.loc 38 1297 0
..LDL908:
/*   1297 */	ldr	x12, [x2, x10, lsl #3]	//  (*)
	.loc 38 1299 0
..LDL909:
/*   1299 */	ldr	d14, [x3]	//  (*)
	.loc 38 1302 0
..LDL910:
/*   1302 */	sub	w2, w1, 1
/*   1302 */	cmp	w1, 0
/*   1302 */	csel	w1, w1, wzr, ge
/*   1302 */	cmp	w2, 0
/*   1302 */	blt	.L2484
	.loc 38 1303 0 is_stmt 0
..LDL911:
/*   1303 */	sxtw	x9, w2
	.loc 38 1302 0
..LDL912:
/*   1302 */	asr	w2, w1, 2
	.loc 38 1304 0
..LDL913:
/*   1304 */	fmov	z19.d, 0.000000e+00
	.loc 38 1302 0
..LDL914:
/*   1302 */	add	w2, w1, w2, lsr #29
/*   1302 */	asr	w7, w2, 3
/*   1302 */	sub	w18, w1, w7, lsl #3
/*   1302 */	cbz	w7, .L2481
/*   1302 */	sub	w4, w7, 8
/*   1302 */	mov	x5, x9
/*   1302 */	cmp	w4, 0
/*   1302 */	blt	.L2490
	.loc 38 1304 0
..LDL915:
/*   1304 */	ldr	x29, [x0, 24]	//  "xv"
/*   1304 */	lsl	x2, x9, 3
/*   1304 */	mov	z18.d, z19.d
/*   1304 */	mov	z16.d, z19.d
	.loc 38 1303 0
..LDL916:
/*   1303 */	lsl	x3, x9, 2
	.loc 38 1304 0
..LDL917:
/*   1304 */	sub	x1, x2, 192
/*   1304 */	mov	z7.d, z19.d
/*   1304 */	mov	z5.d, z19.d
/*   1304 */	mov	z0.d, z19.d
/*   1304 */	mov	z2.d, z19.d
	.loc 38 1303 0
..LDL918:
/*   1303 */	add	x3, x3, x12
	.loc 38 1304 0
..LDL919:
/*   1304 */	mov	z4.d, z19.d
/*   1304 */	add	x2, x2, x13
/*   1304 */	add	x20, x1, x13
	.loc 38 1302 0
..LDL920:
/*   1302 */	cmp	w4, 16
/*   1302 */	blt	.L2906
	.loc 38 1303 0
..LDL921:
/*   1303 */	ld1sw	{z30.d}, p1/z, [x3, z26.d, lsl #2]	//  (*)
/*   1303 */	sub	x1, x3, 32
/*   1303 */	sub	x30, x3, 64
	.loc 38 1305 0
..LDL922:
/*   1305 */	mov	z25.d, z19.d
	.loc 38 1303 0
..LDL923:
/*   1303 */	ld1sw	{z29.d}, p1/z, [x1, z26.d, lsl #2]	//  (*)
/*   1303 */	sub	x1, x3, 96
/*   1303 */	sub	x21, x3, 128
	.loc 38 1305 0
..LDL924:
/*   1305 */	mov	z1.d, z4.d
	.loc 38 1303 0
..LDL925:
/*   1303 */	ld1sw	{z28.d}, p1/z, [x30, z26.d, lsl #2]	//  (*)
/*   1303 */	sub	x30, x3, 160
	.loc 38 1305 0
..LDL926:
/*   1305 */	mov	x19, x20
/*   1305 */	mov	z3.d, z2.d
	.loc 38 1303 0
..LDL927:
/*   1303 */	ld1sw	{z31.d}, p1/z, [x1, z26.d, lsl #2]	//  (*)
	.loc 38 1305 0
..LDL928:
/*   1305 */	mov	z6.d, z0.d
	.loc 38 1303 0
..LDL929:
/*   1303 */	ld1sw	{z8.d}, p1/z, [x21, z26.d, lsl #2]	//  (*)
	.loc 38 1305 0
..LDL930:
/*   1305 */	mov	z17.d, z5.d
	.loc 38 1303 0
..LDL931:
/*   1303 */	ld1sw	{z9.d}, p1/z, [x30, z26.d, lsl #2]	//  (*)
	.loc 38 1305 0
..LDL932:
/*   1305 */	mov	z27.d, z7.d
/*   1305 */	mov	z20.d, z16.d
/*   1305 */	mov	z23.d, z18.d
	.p2align 5
.L2479:					// :entr:term:body:swpl
	.loc 38 1303 0
..LDL933:
/*   1303 */	sub	x1, x3, 192
/*   1303 */	ld1sw	{z2.d}, p1/z, [x1, z26.d, lsl #2]	//  (*)
/*   1303 */	sub	x1, x3, 224
/*   1303 */	ld1sw	{z0.d}, p1/z, [x1, z26.d, lsl #2]	//  (*)
	.loc 38 1304 0
..LDL934:
/*   1304 */	ld1d	{z30.d}, p1/z, [x29, z30.d, lsl #3]	//  (*)
/*   1304 */	ld1d	{z24.d}, p1/z, [x2, z26.d, lsl #3]	//  (*)
/*   1304 */	ld1d	{z29.d}, p1/z, [x29, z29.d, lsl #3]	//  (*)
/*   1304 */	sub	x1, x2, 64
/*   1304 */	ld1d	{z22.d}, p1/z, [x1, z26.d, lsl #3]	//  (*)
/*   1304 */	ld1d	{z28.d}, p1/z, [x29, z28.d, lsl #3]	//  (*)
/*   1304 */	sub	x1, x2, 128
/*   1304 */	ld1d	{z21.d}, p1/z, [x1, z26.d, lsl #3]	//  (*)
/*   1304 */	ld1d	{z11.d}, p1/z, [x29, z31.d, lsl #3]	//  (*)
/*   1304 */	ld1d	{z10.d}, p1/z, [x19, z26.d, lsl #3]	//  (*)
/*   1304 */	ld1d	{z18.d}, p1/z, [x29, z8.d, lsl #3]	//  (*)
/*   1304 */	sub	x1, x19, 64
/*   1304 */	ld1d	{z19.d}, p1/z, [x1, z26.d, lsl #3]	//  (*)
/*   1304 */	ld1d	{z7.d}, p1/z, [x29, z9.d, lsl #3]	//  (*)
/*   1304 */	sub	x1, x19, 128
/*   1304 */	ld1d	{z16.d}, p1/z, [x1, z26.d, lsl #3]	//  (*)
/*   1304 */	ld1d	{z4.d}, p1/z, [x29, z2.d, lsl #3]	//  (*)
/*   1304 */	sub	x1, x19, 192
/*   1304 */	ld1d	{z5.d}, p1/z, [x1, z26.d, lsl #3]	//  (*)
/*   1304 */	ld1d	{z0.d}, p1/z, [x29, z0.d, lsl #3]	//  (*)
/*   1304 */	sub	x1, x19, 256
/*   1304 */	ld1d	{z2.d}, p1/z, [x1, z26.d, lsl #3]	//  (*)
	.loc 38 1305 0
..LDL935:
/*   1305 */	sub	x1, x3, 256
	.loc 38 1303 0
..LDL936:
/*   1303 */	ld1sw	{z8.d}, p1/z, [x1, z26.d, lsl #2]	//  (*)
/*   1303 */	sub	x1, x3, 288
/*   1303 */	ld1sw	{z9.d}, p1/z, [x1, z26.d, lsl #2]	//  (*)
/*   1303 */	sub	x1, x3, 320
/*   1303 */	ld1sw	{z31.d}, p1/z, [x1, z26.d, lsl #2]	//  (*)
	.loc 38 1304 0
..LDL937:
/*   1304 */	fmad	z24.d, p1/m, z30.d, z25.d
	.loc 38 1303 0
..LDL938:
/*   1303 */	sub	x1, x3, 352
	.loc 38 1304 0
..LDL939:
/*   1304 */	fmad	z22.d, p1/m, z29.d, z23.d
	.loc 38 1303 0
..LDL940:
/*   1303 */	ld1sw	{z23.d}, p1/z, [x1, z26.d, lsl #2]	//  (*)
	.loc 38 1304 0
..LDL941:
/*   1304 */	fmad	z21.d, p1/m, z28.d, z20.d
	.loc 38 1303 0
..LDL942:
/*   1303 */	sub	x1, x3, 384
	.loc 38 1304 0
..LDL943:
/*   1304 */	movprfx	z13.d, p1/z, z27.d
/*   1304 */	fmla	z13.d, p1/m, z10.d, z11.d
	.loc 38 1303 0
..LDL944:
/*   1303 */	ld1sw	{z28.d}, p1/z, [x1, z26.d, lsl #2]	//  (*)
	.loc 38 1304 0
..LDL945:
/*   1304 */	fmad	z19.d, p1/m, z18.d, z17.d
	.loc 38 1303 0
..LDL946:
/*   1303 */	sub	x1, x3, 416
/*   1303 */	ld1sw	{z29.d}, p1/z, [x1, z26.d, lsl #2]	//  (*)
	.loc 38 1304 0
..LDL947:
/*   1304 */	fmad	z16.d, p1/m, z7.d, z6.d
	.loc 38 1305 0
..LDL948:
/*   1305 */	sub	x1, x19, 512
/*   1305 */	sub	x30, x2, 512
	.loc 38 1304 0
..LDL949:
/*   1304 */	fmad	z5.d, p1/m, z4.d, z3.d
/*   1304 */	fmad	z2.d, p1/m, z0.d, z1.d
	.loc 38 1303 0
..LDL950:
/*   1303 */	sub	x20, x3, 448
/*   1303 */	ld1sw	{z1.d}, p1/z, [x20, z26.d, lsl #2]	//  (*)
/*   1303 */	sub	x20, x3, 480
/*   1303 */	ld1sw	{z0.d}, p1/z, [x20, z26.d, lsl #2]	//  (*)
	.loc 38 1304 0
..LDL951:
/*   1304 */	ld1d	{z25.d}, p1/z, [x29, z8.d, lsl #3]	//  (*)
/*   1304 */	ld1d	{z10.d}, p1/z, [x30, z26.d, lsl #3]	//  (*)
/*   1304 */	ld1d	{z11.d}, p1/z, [x29, z9.d, lsl #3]	//  (*)
/*   1304 */	sub	x30, x2, 576
/*   1304 */	ld1d	{z12.d}, p1/z, [x30, z26.d, lsl #3]	//  (*)
/*   1304 */	ld1d	{z9.d}, p1/z, [x29, z31.d, lsl #3]	//  (*)
/*   1304 */	sub	x30, x2, 640
/*   1304 */	ld1d	{z20.d}, p1/z, [x30, z26.d, lsl #3]	//  (*)
/*   1304 */	ld1d	{z27.d}, p1/z, [x29, z23.d, lsl #3]	//  (*)
/*   1304 */	ld1d	{z8.d}, p1/z, [x1, z26.d, lsl #3]	//  (*)
/*   1304 */	ld1d	{z18.d}, p1/z, [x29, z28.d, lsl #3]	//  (*)
/*   1304 */	sub	x1, x19, 576
/*   1304 */	ld1d	{z17.d}, p1/z, [x1, z26.d, lsl #3]	//  (*)
/*   1304 */	ld1d	{z7.d}, p1/z, [x29, z29.d, lsl #3]	//  (*)
/*   1304 */	sub	x1, x19, 640
/*   1304 */	ld1d	{z6.d}, p1/z, [x1, z26.d, lsl #3]	//  (*)
/*   1304 */	ld1d	{z4.d}, p1/z, [x29, z1.d, lsl #3]	//  (*)
/*   1304 */	sub	x1, x19, 704
/*   1304 */	ld1d	{z3.d}, p1/z, [x1, z26.d, lsl #3]	//  (*)
/*   1304 */	ld1d	{z0.d}, p1/z, [x29, z0.d, lsl #3]	//  (*)
/*   1304 */	sub	x1, x19, 768
/*   1304 */	ld1d	{z1.d}, p1/z, [x1, z26.d, lsl #3]	//  (*)
	.loc 38 1305 0
..LDL952:
/*   1305 */	sub	x3, x3, 512
	.loc 38 1303 0
..LDL953:
/*   1303 */	ld1sw	{z30.d}, p1/z, [x3, z26.d, lsl #2]	//  (*)
/*   1303 */	sub	x1, x3, 32
/*   1303 */	ld1sw	{z29.d}, p1/z, [x1, z26.d, lsl #2]	//  (*)
/*   1303 */	sub	x1, x3, 64
/*   1303 */	ld1sw	{z28.d}, p1/z, [x1, z26.d, lsl #2]	//  (*)
	.loc 38 1304 0
..LDL954:
/*   1304 */	fmad	z25.d, p1/m, z10.d, z24.d
	.loc 38 1303 0
..LDL955:
/*   1303 */	sub	x1, x3, 96
	.loc 38 1304 0
..LDL956:
/*   1304 */	movprfx	z23.d, p1/z, z22.d
/*   1304 */	fmla	z23.d, p1/m, z12.d, z11.d
	.loc 38 1303 0
..LDL957:
/*   1303 */	ld1sw	{z31.d}, p1/z, [x1, z26.d, lsl #2]	//  (*)
	.loc 38 1304 0
..LDL958:
/*   1304 */	fmad	z20.d, p1/m, z9.d, z21.d
	.loc 38 1303 0
..LDL959:
/*   1303 */	sub	x1, x3, 128
	.loc 38 1304 0
..LDL960:
/*   1304 */	fmad	z27.d, p1/m, z8.d, z13.d
	.loc 38 1303 0
..LDL961:
/*   1303 */	ld1sw	{z8.d}, p1/z, [x1, z26.d, lsl #2]	//  (*)
	.loc 38 1304 0
..LDL962:
/*   1304 */	fmad	z17.d, p1/m, z18.d, z19.d
	.loc 38 1303 0
..LDL963:
/*   1303 */	sub	x1, x3, 160
	.loc 38 1302 0
..LDL964:
/*   1302 */	sub	x5, x5, 128
	.loc 38 1303 0
..LDL965:
/*   1303 */	ld1sw	{z9.d}, p1/z, [x1, z26.d, lsl #2]	//  (*)
	.loc 38 1304 0
..LDL966:
/*   1304 */	fmad	z6.d, p1/m, z7.d, z16.d
	.loc 38 1305 0
..LDL967:
/*   1305 */	sub	x19, x19, 1024
/*   1305 */	sub	x2, x2, 1024
	.loc 38 1304 0
..LDL968:
/*   1304 */	fmad	z3.d, p1/m, z4.d, z5.d
/*   1304 */	fmad	z1.d, p1/m, z0.d, z2.d
	.loc 38 1305 0
..LDL969:
/*   1305 */	sub	w4, w4, 16
	.loc 38 1302 0
..LDL970:
/*   1302 */	cmp	w4, 16
/*   1302 */	bge	.L2479
	.loc 38 1303 0
..LDL971:
/*   1303 */	sub	x1, x3, 192
/*   1303 */	sub	x30, x3, 224
	.loc 38 1304 0
..LDL972:
/*   1304 */	ld1d	{z11.d}, p1/z, [x29, z30.d, lsl #3]	//  (*)
	.loc 38 1303 0
..LDL973:
/*   1303 */	ld1sw	{z22.d}, p1/z, [x1, z26.d, lsl #2]	//  (*)
	.loc 38 1304 0
..LDL974:
/*   1304 */	sub	x20, x2, 64
/*   1304 */	sub	x1, x2, 128
	.loc 38 1303 0
..LDL975:
/*   1303 */	ld1sw	{z21.d}, p1/z, [x30, z26.d, lsl #2]	//  (*)
	.loc 38 1304 0
..LDL976:
/*   1304 */	sub	x23, x19, 64
/*   1304 */	sub	x21, x19, 128
/*   1304 */	sub	x30, x19, 192
/*   1304 */	sub	x22, x19, 256
/*   1304 */	ld1d	{z10.d}, p1/z, [x29, z29.d, lsl #3]	//  (*)
	.loc 38 1305 0
..LDL977:
/*   1305 */	sub	x3, x3, 256
/*   1305 */	sub	w4, w4, 8
	.loc 38 1304 0
..LDL978:
/*   1304 */	ld1d	{z30.d}, p1/z, [x29, z28.d, lsl #3]	//  (*)
/*   1304 */	ld1d	{z19.d}, p1/z, [x2, z26.d, lsl #3]	//  (*)
	.loc 38 1302 0
..LDL979:
/*   1302 */	sub	x5, x5, 64
	.loc 38 1305 0
..LDL980:
/*   1305 */	sub	x2, x2, 512
	.loc 38 1304 0
..LDL981:
/*   1304 */	ld1d	{z18.d}, p1/z, [x20, z26.d, lsl #3]	//  (*)
	.loc 38 1305 0
..LDL982:
/*   1305 */	sub	x20, x19, 512
/*   1305 */	cmp	w4, 0
	.loc 38 1304 0
..LDL983:
/*   1304 */	ld1d	{z16.d}, p1/z, [x1, z26.d, lsl #3]	//  (*)
/*   1304 */	ld1d	{z29.d}, p1/z, [x29, z31.d, lsl #3]	//  (*)
/*   1304 */	ld1d	{z7.d}, p1/z, [x19, z26.d, lsl #3]	//  (*)
/*   1304 */	ld1d	{z28.d}, p1/z, [x29, z8.d, lsl #3]	//  (*)
/*   1304 */	ld1d	{z5.d}, p1/z, [x23, z26.d, lsl #3]	//  (*)
/*   1304 */	ld1d	{z24.d}, p1/z, [x29, z9.d, lsl #3]	//  (*)
/*   1304 */	ld1d	{z0.d}, p1/z, [x21, z26.d, lsl #3]	//  (*)
/*   1304 */	ld1d	{z2.d}, p1/z, [x30, z26.d, lsl #3]	//  (*)
/*   1304 */	ld1d	{z4.d}, p1/z, [x22, z26.d, lsl #3]	//  (*)
/*   1304 */	ld1d	{z22.d}, p1/z, [x29, z22.d, lsl #3]	//  (*)
/*   1304 */	ld1d	{z21.d}, p1/z, [x29, z21.d, lsl #3]	//  (*)
/*   1304 */	fmad	z19.d, p1/m, z11.d, z25.d
/*   1304 */	fmad	z18.d, p1/m, z10.d, z23.d
/*   1304 */	fmad	z16.d, p1/m, z30.d, z20.d
/*   1304 */	fmad	z7.d, p1/m, z29.d, z27.d
/*   1304 */	fmad	z5.d, p1/m, z28.d, z17.d
/*   1304 */	fmad	z0.d, p1/m, z24.d, z6.d
/*   1304 */	fmad	z2.d, p1/m, z22.d, z3.d
/*   1304 */	fmad	z4.d, p1/m, z21.d, z1.d
	.loc 38 1305 0
..LDL984:
/*   1305 */	blt	.L2903
.L2906:
	.p2align 5
.L2909:					// :entr:term:mod:swpl
	.loc 38 1303 0 is_stmt 1
..LDL985:
/*   1303 */	ld1sw	{z6.d}, p1/z, [x3, z26.d, lsl #2]	//  (*)
/*   1303 */	sub	x1, x3, 32
/*   1303 */	sub	x30, x3, 64
/*   1303 */	sub	x19, x3, 96
/*   1303 */	ld1sw	{z3.d}, p1/z, [x30, z26.d, lsl #2]	//  (*)
/*   1303 */	sub	x30, x3, 160
/*   1303 */	ld1sw	{z23.d}, p1/z, [x1, z26.d, lsl #2]	//  (*)
/*   1303 */	sub	x1, x3, 128
/*   1303 */	sub	x24, x3, 192
	.loc 38 1304 0
..LDL986:
/*   1304 */	sub	x23, x2, 64
	.loc 38 1303 0
..LDL987:
/*   1303 */	ld1sw	{z1.d}, p1/z, [x19, z26.d, lsl #2]	//  (*)
/*   1303 */	sub	x21, x3, 224
	.loc 38 1304 0
..LDL988:
/*   1304 */	sub	x22, x2, 128
	.loc 38 1303 0
..LDL989:
/*   1303 */	ld1sw	{z20.d}, p1/z, [x1, z26.d, lsl #2]	//  (*)
	.loc 38 1304 0
..LDL990:
/*   1304 */	sub	x1, x20, 64
	.loc 38 1303 0
..LDL991:
/*   1303 */	ld1sw	{z9.d}, p1/z, [x30, z26.d, lsl #2]	//  (*)
	.loc 38 1304 0
..LDL992:
/*   1304 */	sub	x30, x20, 128
/*   1304 */	sub	x19, x20, 192
	.loc 38 1303 0
..LDL993:
/*   1303 */	ld1sw	{z28.d}, p1/z, [x24, z26.d, lsl #2]	//  (*)
	.loc 38 1304 0
..LDL994:
/*   1304 */	sub	x24, x20, 256
	.loc 38 1302 0 is_stmt 0
..LDL995:
/*   1302 */	sub	x5, x5, 64
	.loc 38 1303 0 is_stmt 1
..LDL996:
/*   1303 */	ld1sw	{z25.d}, p1/z, [x21, z26.d, lsl #2]	//  (*)
	.loc 38 1305 0 is_stmt 0
..LDL997:
/*   1305 */	sub	x3, x3, 256
/*   1305 */	subs	w4, w4, 8
	.loc 38 1304 0 is_stmt 1
..LDL998:
/*   1304 */	ld1d	{z17.d}, p1/z, [x2, z26.d, lsl #3]	//  (*)
	.loc 38 1305 0 is_stmt 0
..LDL999:
/*   1305 */	sub	x2, x2, 512
	.loc 38 1304 0
..LDL1000:
/*   1304 */	ld1d	{z22.d}, p1/z, [x23, z26.d, lsl #3]	//  (*)
/*   1304 */	ld1d	{z24.d}, p1/z, [x22, z26.d, lsl #3]	//  (*)
/*   1304 */	ld1d	{z21.d}, p1/z, [x20, z26.d, lsl #3]	//  (*)
	.loc 38 1305 0
..LDL1001:
/*   1305 */	sub	x20, x20, 512
	.loc 38 1304 0
..LDL1002:
/*   1304 */	ld1d	{z29.d}, p1/z, [x1, z26.d, lsl #3]	//  (*)
/*   1304 */	ld1d	{z8.d}, p1/z, [x30, z26.d, lsl #3]	//  (*)
/*   1304 */	ld1d	{z31.d}, p1/z, [x19, z26.d, lsl #3]	//  (*)
/*   1304 */	ld1d	{z30.d}, p1/z, [x24, z26.d, lsl #3]	//  (*)
/*   1304 */	ld1d	{z6.d}, p1/z, [x29, z6.d, lsl #3]	//  (*)
/*   1304 */	ld1d	{z27.d}, p1/z, [x29, z3.d, lsl #3]	//  (*)
/*   1304 */	ld1d	{z23.d}, p1/z, [x29, z23.d, lsl #3]	//  (*)
/*   1304 */	ld1d	{z3.d}, p1/z, [x29, z1.d, lsl #3]	//  (*)
/*   1304 */	ld1d	{z20.d}, p1/z, [x29, z20.d, lsl #3]	//  (*)
/*   1304 */	ld1d	{z1.d}, p1/z, [x29, z9.d, lsl #3]	//  (*)
/*   1304 */	ld1d	{z28.d}, p1/z, [x29, z28.d, lsl #3]	//  (*)
/*   1304 */	ld1d	{z25.d}, p1/z, [x29, z25.d, lsl #3]	//  (*)
/*   1304 */	fmla	z19.d, p1/m, z17.d, z6.d
/*   1304 */	fmla	z16.d, p1/m, z24.d, z27.d
/*   1304 */	fmla	z18.d, p1/m, z22.d, z23.d
/*   1304 */	fmla	z7.d, p1/m, z21.d, z3.d
/*   1304 */	fmla	z5.d, p1/m, z29.d, z20.d
/*   1304 */	fmla	z0.d, p1/m, z8.d, z1.d
/*   1304 */	fmla	z2.d, p1/m, z31.d, z28.d
/*   1304 */	fmla	z4.d, p1/m, z30.d, z25.d
	.loc 38 1305 0
..LDL1003:
/*   1305 */	bpl	.L2909
.L2903:
	.loc 38 1304 0
..LDL1004:
/*   1304 */	fadd	z1.d, z4.d, z2.d
/*   1304 */	fadd	z0.d, z0.d, z5.d
/*   1304 */	fadd	z2.d, z7.d, z16.d
/*   1304 */	fadd	z3.d, z19.d, z18.d
/*   1304 */	fadd	z0.d, z0.d, z1.d
/*   1304 */	fadd	z1.d, z3.d, z2.d
/*   1304 */	fadd	z19.d, z1.d, z0.d
.L2490:
	.loc 38 1302 0 is_stmt 1
..LDL1005:
/*   1302 */	adds	w1, w4, 7
/*   1302 */	bmi	.L2481
	.loc 38 1304 0 is_stmt 0
..LDL1006:
/*   1304 */	ldr	x3, [x0, 24]	//  "xv"
	.p2align 5
.L2502:					// :entr:term:mod
	.loc 38 1303 0 is_stmt 1
..LDL1007:
/*   1303 */	index	z0.d, 0, -1
/*   1303 */	mov	x4, x5
	.loc 38 1302 0 is_stmt 0
..LDL1008:
/*   1302 */	sub	x5, x5, 8
	.loc 38 1303 0
..LDL1009:
/*   1303 */	add	x2, x12, x4, lsl #2
	.loc 38 1305 0
..LDL1010:
/*   1305 */	subs	w1, w1, 1
	.loc 38 1304 0 is_stmt 1
..LDL1011:
/*   1304 */	add	x4, x13, x4, lsl #3
	.loc 38 1303 0
..LDL1012:
/*   1303 */	ld1sw	{z1.d}, p1/z, [x2, z0.d, lsl #2]	//  (*)
	.loc 38 1304 0
..LDL1013:
/*   1304 */	ld1d	{z0.d}, p1/z, [x4, z0.d, lsl #3]	//  (*)
/*   1304 */	ld1d	{z1.d}, p1/z, [x3, z1.d, lsl #3]	//  (*)
/*   1304 */	fmla	z19.d, p1/m, z0.d, z1.d
	.loc 38 1302 0 is_stmt 0
..LDL1014:
/*   1302 */	bpl	.L2502
.L2481:
	.loc 38 1302 0 is_stmt 1
..LDL1015:
/*   1302 */	sbfiz	x1, x7, 3, 32
/*   1302 */	sub	x1, x17, x1
/*   1302 */	add	x1, x1, x9
/*   1302 */	cbz	w18, .L2483
/*   1302 */	whilelt	p0.d, wzr, w18
	.loc 38 1304 0
..LDL1016:
/*   1304 */	ldr	x3, [x0, 24]	//  "xv"
	.loc 38 1303 0
..LDL1017:
/*   1303 */	add	x2, x12, x1, lsl #2
	.loc 38 1304 0
..LDL1018:
/*   1304 */	add	x1, x13, x1, lsl #3
	.loc 38 1303 0
..LDL1019:
/*   1303 */	ld1sw	{z0.d}, p0/z, [x2, z26.d, lsl #2]	//  (*)
	.loc 38 1304 0
..LDL1020:
/*   1304 */	ld1d	{z1.d}, p0/z, [x1, z26.d, lsl #3]	//  (*)
/*   1304 */	ld1d	{z0.d}, p0/z, [x3, z0.d, lsl #3]	//  (*)
/*   1304 */	fmla	z19.d, p0/m, z0.d, z1.d
.L2483:
/*   1304 */	movprfx	z0, z19
/*   1304 */	ext	z0.b, z0.b, z19.b, 32
/*   1304 */	fadd	z0.d, z0.d, z19.d
/*   1304 */	movprfx	z1, z0
/*   1304 */	ext	z1.b, z1.b, z0.b, 16
/*   1304 */	fadd	z1.d, z0.d, z1.d
/*   1304 */	movprfx	z0, z1
/*   1304 */	ext	z0.b, z0.b, z1.b, 8
/*   1304 */	fadd	z1.d, z1.d, z0.d
.L2484:					// :term
	.loc 38 1306 0
..LDL1021:
/*   1306 */	ldr	d0, [x14, x10, lsl #3]	//  (*)
	.loc 38 1307 0
..LDL1022:
/*   1307 */	ldr	d4, [x15, x10, lsl #3]	//  (*)
/*   1307 */	frecpe	d2, d14
	.loc 38 1310 0
..LDL1023:
/*   1310 */	sub	x11, x11, 1
/*   1310 */	subs	w16, w16, 1
	.loc 38 1307 0
..LDL1024:
/*   1307 */	fmsub	d3, d14, d2, d15
	.loc 38 1306 0
..LDL1025:
/*   1306 */	fmsub	d1, d0, d14, d1
	.loc 38 1307 0
..LDL1026:
/*   1307 */	fmadd	d0, d3, d3, d3
/*   1307 */	fmul	d5, d3, d3
/*   1307 */	fsub	d4, d4, d1
/*   1307 */	fmadd	d3, d5, d5, d3
/*   1307 */	fmul	d2, d4, d2
/*   1307 */	fmadd	d0, d0, d2, d2
/*   1307 */	fmadd	d0, d3, d0, d2
	.loc 38 1308 0
..LDL1027:
/*   1308 */	fmadd	d1, d0, d14, d1
	.loc 38 1307 0
..LDL1028:
/*   1307 */	str	d0, [x14, x10, lsl #3]	//  (*)
	.loc 38 1309 0
..LDL1029:
/*   1309 */	str	d1, [x8, x10, lsl #3]	//  (*)
	.loc 38 1310 0 is_stmt 0
..LDL1030:
/*   1310 */	bne	.L2476
	.loc 38 1310 0 is_stmt 1
..LDL1031:
.L2487:
/*   1310 */	add	x19, sp, 32
/*   1310 */	ldr	x0, [x19, -16]
/*   1310 */	bl	__mpc_obar
/*   1310 */	ldr	x0, [x19, -16]
/*   1310 */	bl	__mpc_obar
/*    ??? */	add	sp, sp, 64
	.cfi_def_cfa_offset 128
/*    ??? */	ldp	x19, x20, [sp, 96]	//  (*)
	.cfi_restore 19
	.cfi_restore 20
/*    ??? */	ldp	x21, x22, [sp, 80]	//  (*)
	.cfi_restore 21
	.cfi_restore 22
/*    ??? */	ldp	x23, x24, [sp, 64]	//  (*)
	.cfi_restore 23
	.cfi_restore 24
/*    ??? */	ldp	d8, d9, [sp, 48]	//  (*)
	.cfi_restore 72
	.cfi_restore 73
/*    ??? */	ldp	d10, d11, [sp, 32]	//  (*)
	.cfi_restore 74
	.cfi_restore 75
/*    ??? */	ldp	d12, d13, [sp, 16]	//  (*)
	.cfi_restore 76
	.cfi_restore 77
/*    ??? */	ldp	d14, d15, [sp]	//  (*)
	.cfi_restore 78
	.cfi_restore 79
/*    ??? */	ldp	x29, x30, [sp, 112]	//  (*)
	.cfi_restore 29
	.cfi_restore 30
/*   1310 */	add	sp, sp, 128
	.cfi_def_cfa_offset 0
/*   1310 */	ret	
..D12.pchi:
	.cfi_endproc
.LFE11:
	.size	_Z22ComputeFusedSYMGS_SPMVRK19SparseMatrix_STRUCTRK13Vector_STRUCTRS2_S5_._OMP_8, .-_Z22ComputeFusedSYMGS_SPMVRK19SparseMatrix_STRUCTRK13Vector_STRUCTRS2_S5_._OMP_8
	.ident	"$Compiler: Fujitsu C/C++ Compiler 4.7.0 (Nov 10 2021 09:37:15) ../src/ComputeSYMGS.cpp _Z16ComputeSYMGS_TDGRK19SparseMatrix_STRUCTRK13Vector_STRUCTRS2_R9TraceData $"
	.text
	.align	2
	.global	_Z16ComputeSYMGS_TDGRK19SparseMatrix_STRUCTRK13Vector_STRUCTRS2_R9TraceData
	.type	_Z16ComputeSYMGS_TDGRK19SparseMatrix_STRUCTRK13Vector_STRUCTRS2_R9TraceData, %function
_Z16ComputeSYMGS_TDGRK19SparseMatrix_STRUCTRK13Vector_STRUCTRS2_R9TraceData:
	.loc 38 1316 0
..LDL1032:
.LFB12:
	.cfi_startproc
/*   1383 */	sub	sp, sp, 64
	.cfi_def_cfa_offset 64
/*    ??? */	str	x30, [sp, 48]	//  (*)
	.cfi_offset 30, -16
/*    ??? */	stp	x19, x20, [sp, 32]	//  (*)
	.cfi_offset 19, -32
	.cfi_offset 20, -24
/*    ??? */	stp	x21, x22, [sp, 16]	//  (*)
	.cfi_offset 21, -48
	.cfi_offset 22, -40
/*    ??? */	str	x23, [sp, 8]	//  (*)
	.cfi_offset 23, -56
/*    ??? */	sub	sp, sp, 128
	.cfi_def_cfa_offset 192
/*   1316 */	add	x20, sp, 8
/*   1316 */	str	x0, [x20, 32]
	.loc 38 1318 0
..LDL1033:
/*   1318 */	ldr	w4, [x2]	//  (*)
/*   1318 */	ldr	w3, [x0, 36]	//  (*)
/*   1318 */	cmp	w4, w3
/*   1318 */	bne	.L2517
	.loc 38 1324 0
..LDL1034:
/*   1324 */	ldr	x4, [x1, 8]	//  (*)
	.loc 38 1339 0
..LDL1035:
/*   1339 */	mov	w1, 256
/*   1339 */	mov	w3, 655360
/*   1339 */	add	x19, x20, 40
/*   1339 */	movk	w3, 6, lsl #0
	.loc 38 1324 0
..LDL1036:
/*   1324 */	str	x4, [x20, 24]
	.loc 38 1325 0
..LDL1037:
/*   1325 */	ldr	x2, [x2, 8]	//  (*)
/*   1325 */	str	x2, [x20, 16]
	.loc 38 1326 0
..LDL1038:
/*   1326 */	ldr	x0, [x0, 80]	//  (*)
	.loc 38 1339 0
..LDL1039:
/*   1339 */	str	w1, [x20, 40]
/*   1339 */	str	wzr, [x20, 44]
/*   1339 */	str	w3, [x20, 48]
	.loc 38 1326 0
..LDL1040:
/*   1326 */	str	x0, [x20, 8]
	.loc 38 1339 0 is_stmt 0
..LDL1041:
/*   1339 */	mov	x0, x19
/*   1339 */	bl	__jwe_xset_sccr
	.loc 38 1339 0 is_stmt 1
..LDL1042:
/*   1339 */	str	wzr, [x20, 4]
	.loc 37 641 0
..LDL1043:
/*    641 */	ldr	x1, [x20, 32]
/*    641 */	ldp	x1, x0, [x1, 280]	//  (*)
/*    641 */	sub	x0, x0, x1
/*    641 */	mov	x1, 24
/*    641 */	sdiv	x0, x0, x1
	.loc 38 1339 0
..LDL1044:
/*   1339 */	cbz	x0, .L2511
	.loc 38 1341 0 is_stmt 0
..LDL1045:
/*   1341 */	adrp	x0, _Z16ComputeSYMGS_TDGRK19SparseMatrix_STRUCTRK13Vector_STRUCTRS2_R9TraceData._OMP_9
	.loc 37 641 0
..LDL1046:
/*    641 */	mov	x23, 24
	.loc 38 1359 0
..LDL1047:
/*   1359 */	add	x22, x20, 32
	.loc 38 1341 0
..LDL1048:
/*   1341 */	add	x21, x0, :lo12:_Z16ComputeSYMGS_TDGRK19SparseMatrix_STRUCTRK13Vector_STRUCTRS2_R9TraceData._OMP_9
	.p2align 5
.L2509:					// :entr:term
	.loc 38 1341 0 is_stmt 0
..LDL1049:
/*   1341 */	mov	x2, 0
/*   1341 */	mov	x0, x21
/*   1341 */	mov	x1, x20
/*   1341 */	bl	__mpc_opar
	.loc 38 1359 0 is_stmt 1
..LDL1050:
/*   1359 */	ldr	w0, [x22, -28]
	.loc 37 641 0
..LDL1051:
/*    641 */	ldr	x2, [x22]
	.loc 38 1359 0
..LDL1052:
/*   1359 */	add	w0, w0, 1
/*   1359 */	str	w0, [x22, -28]
/*   1359 */	sxtw	x1, w0
	.loc 37 641 0
..LDL1053:
/*    641 */	ldp	x2, x0, [x2, 280]	//  (*)
/*    641 */	sub	x0, x0, x2
/*    641 */	sdiv	x0, x0, x23
	.loc 38 1359 0
..LDL1054:
/*   1359 */	cmp	x1, x0
/*   1359 */	bcc	.L2509
.L2511:
	.loc 37 641 0
..LDL1055:
/*    641 */	ldr	x1, [x20, 32]
/*    641 */	ldp	x1, x0, [x1, 280]	//  (*)
/*    641 */	sub	x0, x0, x1
/*    641 */	mov	x1, 24
/*    641 */	sdiv	x0, x0, x1
	.loc 38 1364 0
..LDL1056:
/*   1364 */	sub	x0, x0, 1
/*   1364 */	str	w0, [x20]
/*   1364 */	cmp	w0, 0
/*   1364 */	blt	.L2516
	.loc 38 1366 0 is_stmt 0
..LDL1057:
/*   1366 */	adrp	x0, _Z16ComputeSYMGS_TDGRK19SparseMatrix_STRUCTRK13Vector_STRUCTRS2_R9TraceData._OMP_10
/*   1366 */	add	x21, x0, :lo12:_Z16ComputeSYMGS_TDGRK19SparseMatrix_STRUCTRK13Vector_STRUCTRS2_R9TraceData._OMP_10
	.p2align 5
.L2514:					// :entr:term
	.loc 38 1366 0 is_stmt 0
..LDL1058:
/*   1366 */	mov	x2, 0
/*   1366 */	mov	x0, x21
/*   1366 */	mov	x1, x20
/*   1366 */	bl	__mpc_opar
	.loc 38 1384 0 is_stmt 1
..LDL1059:
/*   1384 */	ldr	w0, [x20]
/*   1384 */	sub	w0, w0, 1
/*   1384 */	str	w0, [x20]
/*   1384 */	cmp	w0, 0
/*   1384 */	bge	.L2514
.L2516:
	.loc 38 1392 0
..LDL1060:
/*   1392 */	mov	w0, 512
/*   1392 */	str	w0, [x20, 40]
/*   1392 */	mov	x0, x19
/*   1392 */	bl	__jwe_xset_sccr
/*   1392 */	mov	w0, 0
/*   1392 */	b	.L2518
.L2517:
	.loc 38 1318 0
..LDL1061:
/*   1318 */	adrp	x0, .LR.3
/*   1318 */	adrp	x1, .LR.2
/*   1318 */	mov	w2, 1318
/*   1318 */	add	x0, x0, :lo12:.LR.3
/*   1318 */	add	x1, x1, :lo12:.LR.2
/*   1318 */	adrp	x3, .LR.5
/*   1318 */	add	x3, x3, :lo12:.LR.5
/*   1318 */	bl	__assert_fail
.L2518:					// :epi:term
	.loc 38 1393 0
..LDL1062:
/*    ??? */	add	sp, sp, 128
	.cfi_def_cfa_offset 64
/*    ??? */	ldp	x19, x20, [sp, 32]	//  (*)
	.cfi_restore 19
	.cfi_restore 20
/*    ??? */	ldp	x21, x22, [sp, 16]	//  (*)
	.cfi_restore 21
	.cfi_restore 22
/*    ??? */	ldr	x23, [sp, 8]	//  (*)
	.cfi_restore 23
/*    ??? */	ldr	x30, [sp, 48]	//  (*)
	.cfi_restore 30
/*   1393 */	add	sp, sp, 64
	.cfi_def_cfa_offset 0
/*   1393 */	ret	
..D13.pchi:
	.cfi_endproc
.LFE12:
	.size	_Z16ComputeSYMGS_TDGRK19SparseMatrix_STRUCTRK13Vector_STRUCTRS2_R9TraceData, .-_Z16ComputeSYMGS_TDGRK19SparseMatrix_STRUCTRK13Vector_STRUCTRS2_R9TraceData
	.ident	"$Compiler: Fujitsu C/C++ Compiler 4.7.0 (Nov 10 2021 09:37:15) ../src/ComputeSYMGS.cpp _Z16ComputeSYMGS_TDGRK19SparseMatrix_STRUCTRK13Vector_STRUCTRS2_R9TraceData._OMP_9 $"
	.text
	.align	2
	.type	_Z16ComputeSYMGS_TDGRK19SparseMatrix_STRUCTRK13Vector_STRUCTRS2_R9TraceData._OMP_9, %function
_Z16ComputeSYMGS_TDGRK19SparseMatrix_STRUCTRK13Vector_STRUCTRS2_R9TraceData._OMP_9:
	.loc 38 1341 0
..LDL1063:
.LFB13:
	.cfi_startproc
/*   1314 */	sub	sp, sp, 80
	.cfi_def_cfa_offset 80
/*    ??? */	stp	x19, x30, [sp, 56]	//  (*)
	.cfi_offset 30, -16
	.cfi_offset 19, -24
/*    ??? */	stp	d8, d9, [sp, 40]	//  (*)
	.cfi_offset 72, -40
	.cfi_offset 73, -32
/*    ??? */	stp	d10, d11, [sp, 24]	//  (*)
	.cfi_offset 74, -56
	.cfi_offset 75, -48
/*    ??? */	stp	d12, d13, [sp, 8]	//  (*)
	.cfi_offset 76, -72
	.cfi_offset 77, -64
/*    ??? */	str	d14, [sp]	//  (*)
	.cfi_offset 78, -80
/*    ??? */	sub	sp, sp, 48
	.cfi_def_cfa_offset 128
/*   1314 */	str	x1, [sp, 32]
/*   1314 */	str	x2, [sp, 24]
/*   1314 */	str	x3, [sp, 16]
/*   1314 */	str	x4, [sp, 8]
	.loc 38 1341 0 is_stmt 0
..LDL1064:
	.loc 38 1341 0 is_stmt 0
..LDL1065:
	.loc 38 1344 0 is_stmt 1
..LDL1066:
/*   1344 */	ldrsw	x2, [x0, 4]	//  "l"
	.loc 37 1506 0
..LDL1067:
/*   1506 */	ldr	x1, [x0, 32]	//  "A"
/*   1506 */	add	x3, x2, x2
/*   1506 */	ldr	x1, [x1, 280]	//  (*)
/*   1506 */	add	x2, x3, x2
/*   1506 */	lsl	x6, x2, 3
	.loc 37 641 0
..LDL1068:
/*    641 */	add	x2, x6, 8
/*    641 */	ldr	x2, [x1, x2]	//  (*)
/*    641 */	ldr	x1, [x1, x6]	//  (*)
/*    641 */	sub	x1, x2, x1
/*    641 */	asr	x2, x1, 1
/*    641 */	add	x1, x1, x2, lsr #62
/*    641 */	asr	x1, x1, 2
/*   1344 */	cbz	x1, .L2539
	.loc 38 1344 0
..LDL1069:
/*   1344 */	add	x2, sp, 32
/*   1344 */	ldr	x4, [x2]
/*   1344 */	sdiv	x3, x1, x4
/*   1344 */	msub	x1, x4, x3, x1
/*   1344 */	cbnz	x1, .L2523
/*   1344 */	ldr	x1, [x2, -8]
/*   1344 */	mul	x2, x1, x3
/*   1344 */	b	.L2526
.L2523:
/*   1344 */	ldr	x2, [x2, -8]
/*   1344 */	cmp	x2, x1
/*   1344 */	blt	.L2525
/*   1344 */	madd	x2, x2, x3, x1
/*   1344 */	b	.L2526
.L2525:
/*   1344 */	add	x3, x3, 1
/*   1344 */	mul	x2, x2, x3
.L2526:
/*   1344 */	sub	x1, x3, 1
/*   1344 */	add	x1, x1, x2
/*   1344 */	cbz	x3, .L2539
	.loc 38 1353 0 is_stmt 0
..LDL1070:
/*   1353 */	ptrue	p0.d, ALL
	.loc 38 1350 0
..LDL1071:
/*   1350 */	ldr	x8, [x0, 24]	//  "rv"
	.loc 38 1357 0
..LDL1072:
/*   1357 */	fmov	d12, 1.000000e+00
	.loc 38 1356 0
..LDL1073:
/*   1356 */	ldr	x3, [x0, 16]	//  "xv"
	.loc 38 1354 0
..LDL1074:
/*   1354 */	fmov	z27.d, 0.000000e+00
	.loc 38 1345 0
..LDL1075:
/*   1345 */	sxtw	x11, w2
	.loc 38 1356 0
..LDL1076:
/*   1356 */	orr	x10, x3, 72057594037927936
.L2528:					// :entr
	.loc 37 1506 0 is_stmt 1
..LDL1077:
/*   1506 */	ldr	x4, [x0, 32]	//  "A"
	.loc 38 1349 0
..LDL1078:
/*   1349 */	ldr	x2, [x0, 8]	//  "matrixDiagonal"
	.loc 37 1506 0
..LDL1079:
/*   1506 */	ldr	x7, [x4, 280]	//  (*)
	.loc 38 1348 0
..LDL1080:
/*   1348 */	ldr	x3, [x4, 48]	//  (*)
	.loc 38 1346 0
..LDL1081:
/*   1346 */	ldp	x4, x5, [x4, 64]	//  (*)
	.loc 37 1506 0
..LDL1082:
/*   1506 */	ldr	x7, [x7, x6]	//  (*)
	.loc 38 1345 0
..LDL1083:
/*   1345 */	ldrsw	x13, [x7, x11, lsl #2]	//  (*)
	.loc 38 1348 0
..LDL1084:
/*   1348 */	ldrb	w3, [x3, x13]	//  (*)
	.loc 38 1349 0
..LDL1085:
/*   1349 */	ldr	x2, [x2, x13, lsl #3]	//  (*)
	.loc 38 1350 0
..LDL1086:
/*   1350 */	ldr	d26, [x8, x13, lsl #3]	//  (*)
	.loc 38 1347 0
..LDL1087:
/*   1347 */	ldr	x7, [x4, x13, lsl #3]	//  (*)
	.loc 38 1346 0
..LDL1088:
/*   1346 */	ldr	x9, [x5, x13, lsl #3]	//  (*)
	.loc 38 1348 0
..LDL1089:
/*   1348 */	uxtb	w4, w3
	.loc 38 1349 0
..LDL1090:
/*   1349 */	ldr	d28, [x2]	//  (*)
	.loc 38 1352 0
..LDL1091:
/*   1352 */	uxtb	w3, w3
/*   1352 */	cmp	w4, 0
/*   1352 */	csel	w2, w4, wzr, ge
/*   1352 */	cbz	w3, .L2536
/*   1352 */	asr	w3, w2, 2
/*   1352 */	mov	x5, 0
/*   1352 */	add	w3, w2, w3, lsr #29
/*   1352 */	asr	w14, w3, 3
/*   1352 */	sub	w12, w2, w14, lsl #3
/*   1352 */	cbz	w14, .L2533
/*   1352 */	sub	w3, w14, 8
/*   1352 */	mov	z0.d, z27.d
/*   1352 */	cmp	w3, 0
/*   1352 */	blt	.L2542
	.loc 38 1354 0 is_stmt 0
..LDL1092:
/*   1354 */	ldr	x15, [x0, 16]	//  "xv"
	.loc 38 1353 0
..LDL1093:
/*   1353 */	add	x4, x7, 224
	.loc 38 1354 0
..LDL1094:
/*   1354 */	mov	z19.d, z27.d
/*   1354 */	mov	z18.d, z27.d
/*   1354 */	add	x2, x9, 448
/*   1354 */	mov	z16.d, z27.d
/*   1354 */	mov	z6.d, z27.d
	.loc 38 1352 0
..LDL1095:
/*   1352 */	cmp	w3, 16
	.loc 38 1354 0
..LDL1096:
/*   1354 */	mov	z5.d, z27.d
/*   1354 */	mov	z3.d, z27.d
/*   1354 */	mov	z2.d, z27.d
/*   1354 */	mov	z0.d, z27.d
/*   1354 */	orr	x15, x15, 72057594037927936
	.loc 38 1352 0
..LDL1097:
/*   1352 */	blt	.L2917
	.loc 38 1355 0
..LDL1098:
/*   1355 */	mov	z1.d, z0.d
	.loc 38 1353 0
..LDL1099:
/*   1353 */	ld1sw	{z31.d}, p0/z, [x4, -7, mul vl]	//  (*)
	.loc 38 1355 0
..LDL1100:
/*   1355 */	mov	z22.d, z16.d
/*   1355 */	mov	z4.d, z2.d
/*   1355 */	mov	z7.d, z3.d
	.loc 38 1353 0
..LDL1101:
/*   1353 */	ld1sw	{z30.d}, p0/z, [x4, -6, mul vl]	//  (*)
/*   1353 */	ld1sw	{z29.d}, p0/z, [x4, -5, mul vl]	//  (*)
	.loc 38 1355 0
..LDL1102:
/*   1355 */	mov	z17.d, z5.d
/*   1355 */	mov	z20.d, z6.d
	.loc 38 1353 0
..LDL1103:
/*   1353 */	ld1sw	{z8.d}, p0/z, [x4, -4, mul vl]	//  (*)
/*   1353 */	ld1sw	{z9.d}, p0/z, [x4, -3, mul vl]	//  (*)
	.loc 38 1355 0
..LDL1104:
/*   1355 */	mov	z24.d, z18.d
/*   1355 */	mov	z25.d, z19.d
	.loc 38 1353 0
..LDL1105:
/*   1353 */	ld1sw	{z10.d}, p0/z, [x4, -2, mul vl]	//  (*)
/*   1353 */	ld1sw	{z16.d}, p0/z, [x4, -1, mul vl]	//  (*)
	.p2align 5
.L2531:					// :entr:term:body:swpl
/*   1353 */	ld1sw	{z0.d}, p0/z, [x4, 0, mul vl]	//  (*)
	.loc 38 1354 0
..LDL1106:
/*   1354 */	ld1d	{z31.d}, p0/z, [x15, z31.d, lsl #3]	//  (*)
/*   1354 */	ld1d	{z11.d}, p0/z, [x15, z30.d, lsl #3]	//  (*)
/*   1354 */	ld1d	{z23.d}, p0/z, [x15, z29.d, lsl #3]	//  (*)
/*   1354 */	ld1d	{z21.d}, p0/z, [x15, z8.d, lsl #3]	//  (*)
/*   1354 */	ld1d	{z18.d}, p0/z, [x15, z9.d, lsl #3]	//  (*)
/*   1354 */	ld1d	{z6.d}, p0/z, [x15, z10.d, lsl #3]	//  (*)
/*   1354 */	ld1d	{z3.d}, p0/z, [x15, z16.d, lsl #3]	//  (*)
/*   1354 */	ld1d	{z0.d}, p0/z, [x15, z0.d, lsl #3]	//  (*)
/*   1354 */	ld1d	{z14.d}, p0/z, [x2, -7, mul vl]	//  (*)
/*   1354 */	ld1d	{z13.d}, p0/z, [x2, -6, mul vl]	//  (*)
/*   1354 */	ld1d	{z9.d}, p0/z, [x2, -5, mul vl]	//  (*)
/*   1354 */	ld1d	{z10.d}, p0/z, [x2, -4, mul vl]	//  (*)
/*   1354 */	ld1d	{z19.d}, p0/z, [x2, -3, mul vl]	//  (*)
/*   1354 */	ld1d	{z16.d}, p0/z, [x2, -2, mul vl]	//  (*)
/*   1354 */	ld1d	{z5.d}, p0/z, [x2, -1, mul vl]	//  (*)
/*   1354 */	ld1d	{z2.d}, p0/z, [x2, 0, mul vl]	//  (*)
	.loc 38 1355 0
..LDL1107:
/*   1355 */	add	x17, x4, 256
	.loc 38 1353 0
..LDL1108:
/*   1353 */	ld1sw	{z29.d}, p0/z, [x4, 1, mul vl]	//  (*)
/*   1353 */	ld1sw	{z8.d}, p0/z, [x4, 2, mul vl]	//  (*)
/*   1353 */	ld1sw	{z30.d}, p0/z, [x4, 3, mul vl]	//  (*)
	.loc 38 1354 0
..LDL1109:
/*   1354 */	fmls	z25.d, p0/m, z14.d, z31.d
/*   1354 */	fmls	z24.d, p0/m, z13.d, z11.d
	.loc 38 1353 0
..LDL1110:
/*   1353 */	ld1sw	{z31.d}, p0/z, [x4, 4, mul vl]	//  (*)
	.loc 38 1354 0
..LDL1111:
/*   1354 */	fmls	z22.d, p0/m, z9.d, z23.d
	.loc 38 1353 0
..LDL1112:
/*   1353 */	ld1sw	{z9.d}, p0/z, [x4, 5, mul vl]	//  (*)
	.loc 38 1354 0
..LDL1113:
/*   1354 */	fmls	z20.d, p0/m, z10.d, z21.d
	.loc 38 1353 0
..LDL1114:
/*   1353 */	ld1sw	{z10.d}, p0/z, [x4, 6, mul vl]	//  (*)
	.loc 38 1354 0
..LDL1115:
/*   1354 */	fmsb	z19.d, p0/m, z18.d, z17.d
/*   1354 */	fmsb	z16.d, p0/m, z6.d, z7.d
	.loc 38 1353 0
..LDL1116:
/*   1353 */	ld1sw	{z7.d}, p0/z, [x4, 7, mul vl]	//  (*)
	.loc 38 1355 0
..LDL1117:
/*   1355 */	add	x16, x2, 512
	.loc 38 1354 0
..LDL1118:
/*   1354 */	fmls	z4.d, p0/m, z5.d, z3.d
/*   1354 */	fmls	z1.d, p0/m, z2.d, z0.d
	.loc 38 1353 0
..LDL1119:
/*   1353 */	ld1sw	{z0.d}, p0/z, [x17, 0, mul vl]	//  (*)
	.loc 38 1354 0
..LDL1120:
/*   1354 */	ld1d	{z11.d}, p0/z, [x15, z29.d, lsl #3]	//  (*)
/*   1354 */	ld1d	{z8.d}, p0/z, [x15, z8.d, lsl #3]	//  (*)
/*   1354 */	ld1d	{z23.d}, p0/z, [x15, z30.d, lsl #3]	//  (*)
/*   1354 */	ld1d	{z21.d}, p0/z, [x15, z31.d, lsl #3]	//  (*)
/*   1354 */	ld1d	{z18.d}, p0/z, [x15, z9.d, lsl #3]	//  (*)
/*   1354 */	ld1d	{z6.d}, p0/z, [x15, z10.d, lsl #3]	//  (*)
/*   1354 */	ld1d	{z3.d}, p0/z, [x15, z7.d, lsl #3]	//  (*)
/*   1354 */	ld1d	{z0.d}, p0/z, [x15, z0.d, lsl #3]	//  (*)
/*   1354 */	ld1d	{z14.d}, p0/z, [x2, 1, mul vl]	//  (*)
/*   1354 */	ld1d	{z13.d}, p0/z, [x2, 2, mul vl]	//  (*)
/*   1354 */	ld1d	{z9.d}, p0/z, [x2, 3, mul vl]	//  (*)
/*   1354 */	ld1d	{z10.d}, p0/z, [x2, 4, mul vl]	//  (*)
/*   1354 */	ld1d	{z17.d}, p0/z, [x2, 5, mul vl]	//  (*)
/*   1354 */	ld1d	{z7.d}, p0/z, [x2, 6, mul vl]	//  (*)
/*   1354 */	ld1d	{z5.d}, p0/z, [x2, 7, mul vl]	//  (*)
/*   1354 */	ld1d	{z2.d}, p0/z, [x16, 0, mul vl]	//  (*)
	.loc 38 1355 0
..LDL1121:
/*   1355 */	add	x4, x17, 256
	.loc 38 1353 0
..LDL1122:
/*   1353 */	ld1sw	{z31.d}, p0/z, [x17, 1, mul vl]	//  (*)
/*   1353 */	ld1sw	{z30.d}, p0/z, [x17, 2, mul vl]	//  (*)
/*   1353 */	ld1sw	{z29.d}, p0/z, [x17, 3, mul vl]	//  (*)
	.loc 38 1354 0
..LDL1123:
/*   1354 */	fmls	z25.d, p0/m, z14.d, z11.d
/*   1354 */	fmls	z24.d, p0/m, z13.d, z8.d
	.loc 38 1353 0
..LDL1124:
/*   1353 */	ld1sw	{z8.d}, p0/z, [x17, 4, mul vl]	//  (*)
	.loc 38 1354 0
..LDL1125:
/*   1354 */	fmls	z22.d, p0/m, z9.d, z23.d
	.loc 38 1353 0
..LDL1126:
/*   1353 */	ld1sw	{z9.d}, p0/z, [x17, 5, mul vl]	//  (*)
	.loc 38 1354 0
..LDL1127:
/*   1354 */	fmls	z20.d, p0/m, z10.d, z21.d
	.loc 38 1353 0
..LDL1128:
/*   1353 */	ld1sw	{z10.d}, p0/z, [x17, 6, mul vl]	//  (*)
	.loc 38 1354 0
..LDL1129:
/*   1354 */	fmsb	z17.d, p0/m, z18.d, z19.d
/*   1354 */	fmsb	z7.d, p0/m, z6.d, z16.d
	.loc 38 1353 0
..LDL1130:
/*   1353 */	ld1sw	{z16.d}, p0/z, [x17, 7, mul vl]	//  (*)
/*   1353 */	add	x5, x5, 128
	.loc 38 1355 0
..LDL1131:
/*   1355 */	add	x2, x16, 512
	.loc 38 1354 0
..LDL1132:
/*   1354 */	fmls	z4.d, p0/m, z5.d, z3.d
/*   1354 */	fmls	z1.d, p0/m, z2.d, z0.d
	.loc 38 1355 0
..LDL1133:
/*   1355 */	sub	w3, w3, 16
	.loc 38 1353 0
..LDL1134:
/*   1353 */	cmp	w3, 16
/*   1353 */	bge	.L2531
/*   1353 */	ld1sw	{z0.d}, p0/z, [x4, 0, mul vl]	//  (*)
	.loc 38 1354 0
..LDL1135:
/*   1354 */	ld1d	{z11.d}, p0/z, [x15, z31.d, lsl #3]	//  (*)
	.loc 38 1355 0
..LDL1136:
/*   1355 */	add	x4, x4, 256
/*   1355 */	sub	w3, w3, 8
	.loc 38 1354 0
..LDL1137:
/*   1354 */	ld1d	{z13.d}, p0/z, [x15, z30.d, lsl #3]	//  (*)
/*   1354 */	ld1d	{z19.d}, p0/z, [x2, -7, mul vl]	//  (*)
	.loc 38 1353 0
..LDL1138:
/*   1353 */	add	x5, x5, 64
	.loc 38 1355 0
..LDL1139:
/*   1355 */	cmp	w3, 0
	.loc 38 1354 0
..LDL1140:
/*   1354 */	ld1d	{z14.d}, p0/z, [x15, z29.d, lsl #3]	//  (*)
/*   1354 */	ld1d	{z18.d}, p0/z, [x2, -6, mul vl]	//  (*)
/*   1354 */	ld1d	{z23.d}, p0/z, [x15, z16.d, lsl #3]	//  (*)
/*   1354 */	ld1d	{z16.d}, p0/z, [x2, -5, mul vl]	//  (*)
/*   1354 */	ld1d	{z31.d}, p0/z, [x15, z8.d, lsl #3]	//  (*)
/*   1354 */	ld1d	{z6.d}, p0/z, [x2, -4, mul vl]	//  (*)
/*   1354 */	ld1d	{z30.d}, p0/z, [x15, z9.d, lsl #3]	//  (*)
/*   1354 */	ld1d	{z5.d}, p0/z, [x2, -3, mul vl]	//  (*)
/*   1354 */	ld1d	{z29.d}, p0/z, [x15, z10.d, lsl #3]	//  (*)
/*   1354 */	ld1d	{z3.d}, p0/z, [x2, -2, mul vl]	//  (*)
/*   1354 */	ld1d	{z2.d}, p0/z, [x2, -1, mul vl]	//  (*)
/*   1354 */	ld1d	{z21.d}, p0/z, [x15, z0.d, lsl #3]	//  (*)
/*   1354 */	ld1d	{z0.d}, p0/z, [x2, 0, mul vl]	//  (*)
	.loc 38 1355 0
..LDL1141:
/*   1355 */	add	x2, x2, 512
	.loc 38 1354 0
..LDL1142:
/*   1354 */	fmsb	z19.d, p0/m, z11.d, z25.d
/*   1354 */	fmsb	z18.d, p0/m, z13.d, z24.d
/*   1354 */	fmsb	z16.d, p0/m, z14.d, z22.d
/*   1354 */	fmsb	z2.d, p0/m, z23.d, z4.d
/*   1354 */	fmsb	z6.d, p0/m, z31.d, z20.d
/*   1354 */	fmsb	z5.d, p0/m, z30.d, z17.d
/*   1354 */	fmsb	z3.d, p0/m, z29.d, z7.d
/*   1354 */	fmsb	z0.d, p0/m, z21.d, z1.d
	.loc 38 1355 0
..LDL1143:
/*   1355 */	blt	.L2914
.L2917:
	.p2align 5
.L2920:					// :entr:term:mod:swpl
	.loc 38 1353 0 is_stmt 1
..LDL1144:
/*   1353 */	ld1sw	{z23.d}, p0/z, [x4, -7, mul vl]	//  (*)
/*   1353 */	ld1sw	{z1.d}, p0/z, [x4, -6, mul vl]	//  (*)
/*   1353 */	add	x5, x5, 64
	.loc 38 1355 0 is_stmt 0
..LDL1145:
/*   1355 */	subs	w3, w3, 8
	.loc 38 1353 0
..LDL1146:
/*   1353 */	ld1sw	{z17.d}, p0/z, [x4, -5, mul vl]	//  (*)
/*   1353 */	ld1sw	{z10.d}, p0/z, [x4, -4, mul vl]	//  (*)
/*   1353 */	ld1sw	{z4.d}, p0/z, [x4, -3, mul vl]	//  (*)
/*   1353 */	ld1sw	{z20.d}, p0/z, [x4, -2, mul vl]	//  (*)
/*   1353 */	ld1sw	{z22.d}, p0/z, [x4, -1, mul vl]	//  (*)
/*   1353 */	ld1sw	{z21.d}, p0/z, [x4, 0, mul vl]	//  (*)
	.loc 38 1355 0
..LDL1147:
/*   1355 */	add	x4, x4, 256
	.loc 38 1354 0 is_stmt 1
..LDL1148:
/*   1354 */	ld1d	{z7.d}, p0/z, [x2, -7, mul vl]	//  (*)
/*   1354 */	ld1d	{z9.d}, p0/z, [x2, -6, mul vl]	//  (*)
/*   1354 */	ld1d	{z8.d}, p0/z, [x2, -5, mul vl]	//  (*)
/*   1354 */	ld1d	{z31.d}, p0/z, [x2, -4, mul vl]	//  (*)
/*   1354 */	ld1d	{z30.d}, p0/z, [x2, -3, mul vl]	//  (*)
/*   1354 */	ld1d	{z29.d}, p0/z, [x2, -2, mul vl]	//  (*)
/*   1354 */	ld1d	{z25.d}, p0/z, [x2, -1, mul vl]	//  (*)
/*   1354 */	ld1d	{z24.d}, p0/z, [x2, 0, mul vl]	//  (*)
	.loc 38 1355 0 is_stmt 0
..LDL1149:
/*   1355 */	add	x2, x2, 512
	.loc 38 1354 0
..LDL1150:
/*   1354 */	ld1d	{z23.d}, p0/z, [x15, z23.d, lsl #3]	//  (*)
/*   1354 */	ld1d	{z1.d}, p0/z, [x15, z1.d, lsl #3]	//  (*)
/*   1354 */	ld1d	{z17.d}, p0/z, [x15, z17.d, lsl #3]	//  (*)
/*   1354 */	ld1d	{z10.d}, p0/z, [x15, z10.d, lsl #3]	//  (*)
/*   1354 */	ld1d	{z4.d}, p0/z, [x15, z4.d, lsl #3]	//  (*)
/*   1354 */	ld1d	{z20.d}, p0/z, [x15, z20.d, lsl #3]	//  (*)
/*   1354 */	ld1d	{z22.d}, p0/z, [x15, z22.d, lsl #3]	//  (*)
/*   1354 */	ld1d	{z21.d}, p0/z, [x15, z21.d, lsl #3]	//  (*)
/*   1354 */	fmls	z19.d, p0/m, z7.d, z23.d
/*   1354 */	fmls	z18.d, p0/m, z9.d, z1.d
/*   1354 */	fmls	z16.d, p0/m, z8.d, z17.d
/*   1354 */	fmls	z6.d, p0/m, z31.d, z10.d
/*   1354 */	fmls	z5.d, p0/m, z30.d, z4.d
/*   1354 */	fmls	z3.d, p0/m, z29.d, z20.d
/*   1354 */	fmls	z2.d, p0/m, z25.d, z22.d
/*   1354 */	fmls	z0.d, p0/m, z24.d, z21.d
	.loc 38 1355 0
..LDL1151:
/*   1355 */	bpl	.L2920
.L2914:
	.loc 38 1354 0
..LDL1152:
/*   1354 */	fadd	z0.d, z0.d, z2.d
/*   1354 */	fadd	z1.d, z3.d, z5.d
/*   1354 */	fadd	z2.d, z6.d, z16.d
/*   1354 */	fadd	z3.d, z19.d, z18.d
/*   1354 */	fadd	z0.d, z1.d, z0.d
/*   1354 */	fadd	z1.d, z3.d, z2.d
/*   1354 */	fadd	z0.d, z1.d, z0.d
.L2542:
	.loc 38 1352 0 is_stmt 1
..LDL1153:
/*   1352 */	adds	w3, w3, 7
/*   1352 */	bmi	.L2532
	.loc 38 1354 0 is_stmt 0
..LDL1154:
/*   1354 */	ldr	x2, [x0, 16]	//  "xv"
/*   1354 */	orr	x2, x2, 72057594037927936
	.p2align 5
.L2554:					// :entr:term:mod
	.loc 38 1353 0 is_stmt 1
..LDL1155:
/*   1353 */	ld1sw	{z1.d}, p0/z, [x7, x5, lsl #2]	//  (*)
	.loc 38 1355 0 is_stmt 0
..LDL1156:
/*   1355 */	subs	w3, w3, 1
	.loc 38 1354 0 is_stmt 1
..LDL1157:
/*   1354 */	ld1d	{z2.d}, p0/z, [x2, z1.d, lsl #3]	//  (*)
/*   1354 */	ld1d	{z1.d}, p0/z, [x9, x5, lsl #3]	//  (*)
	.loc 38 1353 0 is_stmt 0
..LDL1158:
/*   1353 */	add	x5, x5, 8
	.loc 38 1354 0
..LDL1159:
/*   1354 */	fmls	z0.d, p0/m, z1.d, z2.d
	.loc 38 1353 0
..LDL1160:
/*   1353 */	bpl	.L2554
.L2532:
	.loc 38 1354 0
..LDL1161:
/*   1354 */	movprfx	z1, z0
/*   1354 */	ext	z1.b, z1.b, z0.b, 32
/*   1354 */	fadd	z1.d, z1.d, z0.d
/*   1354 */	movprfx	z0, z1
/*   1354 */	ext	z0.b, z0.b, z1.b, 16
/*   1354 */	fadd	z1.d, z1.d, z0.d
/*   1354 */	movprfx	z0, z1
/*   1354 */	ext	z0.b, z0.b, z1.b, 8
/*   1354 */	fadd	z0.d, z1.d, z0.d
/*   1354 */	fadd	d26, d26, d0
.L2533:
	.loc 38 1352 0 is_stmt 1
..LDL1162:
/*   1352 */	sbfiz	x2, x14, 3, 32
/*   1352 */	cbz	w12, .L2536
	.loc 38 1353 0 is_stmt 0
..LDL1163:
/*   1353 */	whilelt	p1.d, wzr, w12
	.loc 38 1354 0 is_stmt 1
..LDL1164:
/*   1354 */	ldr	x3, [x0, 16]	//  "xv"
	.loc 38 1353 0
..LDL1165:
/*   1353 */	ld1sw	{z0.d}, p1/z, [x7, x2, lsl #2]	//  (*)
	.loc 38 1354 0
..LDL1166:
/*   1354 */	ld1d	{z1.d}, p1/z, [x9, x2, lsl #3]	//  (*)
/*   1354 */	orr	x3, x3, 72057594037927936
/*   1354 */	ld1d	{z0.d}, p1/z, [x3, z0.d, lsl #3]	//  (*)
/*   1354 */	fmsb	z1.d, p1/m, z0.d, z27.d
/*   1354 */	sel	z1.d, p1, z1.d, z27.d
/*   1354 */	movprfx	z0, z1
/*   1354 */	ext	z0.b, z0.b, z1.b, 32
/*   1354 */	fadd	z0.d, z1.d, z0.d
/*   1354 */	movprfx	z1, z0
/*   1354 */	ext	z1.b, z1.b, z0.b, 16
/*   1354 */	fadd	z1.d, z0.d, z1.d
/*   1354 */	movprfx	z0, z1
/*   1354 */	ext	z0.b, z0.b, z1.b, 8
/*   1354 */	fadd	z0.d, z1.d, z0.d
/*   1354 */	fadd	d26, d26, d0
.L2536:					// :term
	.loc 38 1357 0
..LDL1167:
	.loc 38 1356 0 is_stmt 0
..LDL1168:
/*   1356 */	ldr	d2, [x10, x13, lsl #3]	//  (*)
	.loc 38 1357 0
..LDL1169:
/*   1357 */	frecpe	d1, d28
	.loc 38 1358 0 is_stmt 1
..LDL1170:
/*   1358 */	add	x11, x11, 1
/*   1358 */	cmp	x11, x1
	.loc 38 1357 0
..LDL1171:
/*   1357 */	fmsub	d0, d28, d1, d12
/*   1357 */	fmadd	d4, d2, d28, d26
/*   1357 */	fmadd	d3, d0, d0, d0
/*   1357 */	fmul	d2, d0, d0
/*   1357 */	fmul	d1, d4, d1
/*   1357 */	fmadd	d0, d2, d2, d0
/*   1357 */	fmadd	d2, d3, d1, d1
/*   1357 */	fmadd	d0, d0, d2, d1
/*   1357 */	str	d0, [x10, x13, lsl #3]	//  (*)
	.loc 38 1358 0 is_stmt 0
..LDL1172:
/*   1358 */	bls	.L2528
	.loc 38 1358 0 is_stmt 1
..LDL1173:
.L2539:
/*   1358 */	add	x19, sp, 32
/*   1358 */	ldr	x0, [x19, -16]
/*   1358 */	bl	__mpc_obar
/*   1358 */	ldr	x0, [x19, -16]
/*   1358 */	bl	__mpc_obar
/*    ??? */	add	sp, sp, 48
	.cfi_def_cfa_offset 80
/*    ??? */	ldr	x19, [sp, 56]	//  (*)
	.cfi_restore 19
/*    ??? */	ldr	d14, [sp]	//  (*)
	.cfi_restore 78
/*    ??? */	ldp	d8, d9, [sp, 40]	//  (*)
	.cfi_restore 72
	.cfi_restore 73
/*    ??? */	ldp	d10, d11, [sp, 24]	//  (*)
	.cfi_restore 74
	.cfi_restore 75
/*    ??? */	ldp	d12, d13, [sp, 8]	//  (*)
	.cfi_restore 76
	.cfi_restore 77
/*    ??? */	ldr	x30, [sp, 64]	//  (*)
	.cfi_restore 30
/*   1358 */	add	sp, sp, 80
	.cfi_def_cfa_offset 0
/*   1358 */	ret	
..D14.pchi:
	.cfi_endproc
.LFE13:
	.size	_Z16ComputeSYMGS_TDGRK19SparseMatrix_STRUCTRK13Vector_STRUCTRS2_R9TraceData._OMP_9, .-_Z16ComputeSYMGS_TDGRK19SparseMatrix_STRUCTRK13Vector_STRUCTRS2_R9TraceData._OMP_9
	.ident	"$Compiler: Fujitsu C/C++ Compiler 4.7.0 (Nov 10 2021 09:37:15) ../src/ComputeSYMGS.cpp _Z16ComputeSYMGS_TDGRK19SparseMatrix_STRUCTRK13Vector_STRUCTRS2_R9TraceData._OMP_10 $"
	.text
	.align	2
	.type	_Z16ComputeSYMGS_TDGRK19SparseMatrix_STRUCTRK13Vector_STRUCTRS2_R9TraceData._OMP_10, %function
_Z16ComputeSYMGS_TDGRK19SparseMatrix_STRUCTRK13Vector_STRUCTRS2_R9TraceData._OMP_10:
	.loc 38 1366 0
..LDL1174:
.LFB14:
	.cfi_startproc
/*   1358 */	sub	sp, sp, 128
	.cfi_def_cfa_offset 128
/*    ??? */	stp	x29, x30, [sp, 112]	//  (*)
	.cfi_offset 29, -16
	.cfi_offset 30, -8
/*    ??? */	stp	x19, x20, [sp, 96]	//  (*)
	.cfi_offset 19, -32
	.cfi_offset 20, -24
/*    ??? */	stp	x21, x22, [sp, 80]	//  (*)
	.cfi_offset 21, -48
	.cfi_offset 22, -40
/*    ??? */	str	x23, [sp, 72]	//  (*)
	.cfi_offset 23, -56
/*    ??? */	stp	d8, d9, [sp, 56]	//  (*)
	.cfi_offset 72, -72
	.cfi_offset 73, -64
/*    ??? */	stp	d10, d11, [sp, 40]	//  (*)
	.cfi_offset 74, -88
	.cfi_offset 75, -80
/*    ??? */	stp	d12, d13, [sp, 24]	//  (*)
	.cfi_offset 76, -104
	.cfi_offset 77, -96
/*    ??? */	stp	d14, d15, [sp, 8]	//  (*)
	.cfi_offset 78, -120
	.cfi_offset 79, -112
/*    ??? */	sub	sp, sp, 64
	.cfi_def_cfa_offset 192
/*   1358 */	str	x1, [sp, 32]
/*   1358 */	str	x2, [sp, 24]
/*   1358 */	str	x3, [sp, 16]
/*   1358 */	str	x4, [sp, 8]
	.loc 38 1366 0 is_stmt 0
..LDL1175:
	.loc 38 1366 0 is_stmt 0
..LDL1176:
	.loc 38 1369 0 is_stmt 1
..LDL1177:
/*   1369 */	ldrsw	x3, [x0]	//  "l"
	.loc 37 1506 0
..LDL1178:
/*   1506 */	ldr	x1, [x0, 32]	//  "A"
/*   1506 */	add	x2, x3, x3
/*   1506 */	ldr	x1, [x1, 280]	//  (*)
/*   1506 */	add	x2, x2, x3
/*   1506 */	lsl	x21, x2, 3
	.loc 37 641 0
..LDL1179:
/*    641 */	add	x2, x21, 8
/*    641 */	ldr	x2, [x1, x2]	//  (*)
/*    641 */	ldr	x1, [x1, x21]	//  (*)
/*    641 */	sub	x1, x2, x1
/*    641 */	asr	x2, x1, 1
/*    641 */	add	x1, x1, x2, lsr #62
/*    641 */	asr	x1, x1, 2
	.loc 38 1369 0
..LDL1180:
/*   1369 */	sub	x1, x1, 1
/*   1369 */	cmp	w1, 0
/*   1369 */	blt	.L2576
/*   1369 */	sxtw	x1, w1
/*   1369 */	add	x3, sp, 32
/*   1369 */	add	x5, x1, 1
/*   1369 */	ldr	x4, [x3]
/*   1369 */	sdiv	x2, x5, x4
/*   1369 */	msub	x4, x4, x2, x5
/*   1369 */	cbnz	x4, .L2560
/*   1369 */	ldr	x3, [x3, -8]
/*   1369 */	msub	x1, x3, x2, x1
/*   1369 */	b	.L2563
.L2560:
/*   1369 */	ldr	x3, [x3, -8]
/*   1369 */	cmp	x3, x4
/*   1369 */	blt	.L2562
/*   1369 */	madd	x3, x3, x2, x4
/*   1369 */	sub	x1, x1, x3
/*   1369 */	b	.L2563
.L2562:
/*   1369 */	add	x2, x2, 1
/*   1369 */	msub	x1, x3, x2, x1
.L2563:
/*   1369 */	mov	x3, 0
/*   1369 */	sub	x3, x3, x2
/*   1369 */	add	x3, x3, 1
/*   1369 */	add	x3, x3, x1
/*   1369 */	cbz	x2, .L2576
	.loc 38 1378 0 is_stmt 0
..LDL1181:
/*   1378 */	index	z11.d, 0, -1
	.loc 38 1381 0
..LDL1182:
/*   1381 */	ldr	x4, [x0, 16]	//  "xv"
	.loc 38 1369 0
..LDL1183:
/*   1369 */	sub	w2, w1, w3
	.loc 38 1377 0
..LDL1184:
/*   1377 */	ptrue	p0.d, ALL
	.loc 38 1375 0
..LDL1185:
/*   1375 */	ldr	x22, [x0, 24]	//  "rv"
	.loc 38 1382 0
..LDL1186:
/*   1382 */	fmov	d15, 1.000000e+00
	.loc 38 1369 0
..LDL1187:
/*   1369 */	add	w2, w2, 1
/*   1369 */	cmp	w1, w3
	.loc 38 1379 0
..LDL1188:
/*   1379 */	fmov	z12.d, 0.000000e+00
	.loc 38 1369 0
..LDL1189:
/*   1369 */	csinc	w19, w2, wzr, ge
	.loc 38 1370 0
..LDL1190:
/*   1370 */	sxtw	x29, w1
	.loc 38 1377 0
..LDL1191:
/*   1377 */	mov	x23, 0
	.loc 38 1381 0
..LDL1192:
/*   1381 */	orr	x20, x4, 72057594037927936
.L2565:					// :entr
	.loc 37 1506 0 is_stmt 1
..LDL1193:
/*   1506 */	ldr	x1, [x0, 32]	//  "A"
	.loc 38 1374 0
..LDL1194:
/*   1374 */	ldr	x4, [x0, 8]	//  "matrixDiagonal"
	.loc 37 1506 0
..LDL1195:
/*   1506 */	ldr	x3, [x1, 280]	//  (*)
	.loc 38 1373 0
..LDL1196:
/*   1373 */	ldr	x5, [x1, 48]	//  (*)
	.loc 38 1371 0
..LDL1197:
/*   1371 */	ldp	x1, x2, [x1, 64]	//  (*)
	.loc 37 1506 0
..LDL1198:
/*   1506 */	ldr	x3, [x3, x21]	//  (*)
	.loc 38 1370 0
..LDL1199:
/*   1370 */	ldrsw	x16, [x3, x29, lsl #2]	//  (*)
	.loc 38 1373 0
..LDL1200:
/*   1373 */	ldrb	w3, [x5, x16]	//  (*)
	.loc 38 1374 0
..LDL1201:
/*   1374 */	ldr	x4, [x4, x16, lsl #3]	//  (*)
	.loc 38 1371 0
..LDL1202:
/*   1371 */	ldr	x14, [x2, x16, lsl #3]	//  (*)
	.loc 38 1375 0
..LDL1203:
/*   1375 */	ldr	d13, [x22, x16, lsl #3]	//  (*)
	.loc 38 1372 0
..LDL1204:
/*   1372 */	ldr	x15, [x1, x16, lsl #3]	//  (*)
	.loc 38 1374 0
..LDL1205:
/*   1374 */	ldr	d14, [x4]	//  (*)
	.loc 38 1377 0
..LDL1206:
/*   1377 */	sub	w2, w3, 1
/*   1377 */	cmp	w3, 0
/*   1377 */	csel	w1, w3, wzr, ge
/*   1377 */	cmp	w2, 0
/*   1377 */	blt	.L2573
	.loc 38 1378 0 is_stmt 0
..LDL1207:
/*   1378 */	sxtw	x17, w2
	.loc 38 1377 0
..LDL1208:
/*   1377 */	asr	w2, w1, 2
/*   1377 */	add	w2, w1, w2, lsr #29
/*   1377 */	asr	w18, w2, 3
/*   1377 */	sub	w30, w1, w18, lsl #3
/*   1377 */	cbz	w18, .L2570
/*   1377 */	sub	w4, w18, 8
/*   1377 */	mov	x1, x17
/*   1377 */	mov	z0.d, z12.d
/*   1377 */	cmp	w4, 0
/*   1377 */	blt	.L2579
	.loc 38 1379 0
..LDL1209:
/*   1379 */	ldr	x6, [x0, 16]	//  "xv"
/*   1379 */	lsl	x3, x17, 3
/*   1379 */	mov	z5.d, z12.d
/*   1379 */	mov	z6.d, z12.d
	.loc 38 1378 0
..LDL1210:
/*   1378 */	lsl	x2, x17, 2
	.loc 38 1379 0
..LDL1211:
/*   1379 */	sub	x5, x3, 192
/*   1379 */	mov	z7.d, z12.d
/*   1379 */	mov	z4.d, z12.d
/*   1379 */	mov	z3.d, z12.d
/*   1379 */	mov	z2.d, z12.d
	.loc 38 1378 0
..LDL1212:
/*   1378 */	add	x2, x2, x15
	.loc 38 1379 0
..LDL1213:
/*   1379 */	mov	z16.d, z12.d
/*   1379 */	mov	z17.d, z12.d
/*   1379 */	add	x3, x3, x14
/*   1379 */	add	x5, x5, x14
/*   1379 */	orr	x13, x6, 72057594037927936
	.loc 38 1377 0
..LDL1214:
/*   1377 */	cmp	w4, 16
/*   1377 */	blt	.L2928
	.loc 38 1378 0
..LDL1215:
/*   1378 */	ld1sw	{z28.d}, p0/z, [x2, z11.d, lsl #2]	//  (*)
/*   1378 */	sub	x7, x2, 32
/*   1378 */	sub	x6, x2, 64
/*   1378 */	ld1sw	{z27.d}, p0/z, [x7, z11.d, lsl #2]	//  (*)
/*   1378 */	sub	x9, x2, 96
/*   1378 */	sub	x7, x2, 128
	.loc 38 1380 0
..LDL1216:
/*   1380 */	mov	z20.d, z4.d
/*   1380 */	mov	z0.d, z17.d
	.loc 38 1378 0
..LDL1217:
/*   1378 */	ld1sw	{z23.d}, p0/z, [x6, z11.d, lsl #2]	//  (*)
/*   1378 */	sub	x8, x2, 160
	.loc 38 1380 0
..LDL1218:
/*   1380 */	mov	x6, x5
/*   1380 */	mov	z1.d, z16.d
	.loc 38 1378 0
..LDL1219:
/*   1378 */	ld1sw	{z25.d}, p0/z, [x9, z11.d, lsl #2]	//  (*)
/*   1378 */	ld1sw	{z24.d}, p0/z, [x7, z11.d, lsl #2]	//  (*)
	.loc 38 1380 0
..LDL1220:
/*   1380 */	mov	z4.d, z7.d
	.loc 38 1378 0
..LDL1221:
/*   1378 */	ld1sw	{z26.d}, p0/z, [x8, z11.d, lsl #2]	//  (*)
	.loc 38 1380 0
..LDL1222:
/*   1380 */	mov	z21.d, z6.d
/*   1380 */	mov	z22.d, z5.d
	.p2align 5
.L2568:					// :entr:term:body:swpl
	.loc 38 1378 0
..LDL1223:
/*   1378 */	sub	x5, x2, 192
/*   1378 */	ld1sw	{z6.d}, p0/z, [x5, z11.d, lsl #2]	//  (*)
/*   1378 */	sub	x5, x2, 224
/*   1378 */	ld1sw	{z5.d}, p0/z, [x5, z11.d, lsl #2]	//  (*)
	.loc 38 1379 0
..LDL1224:
/*   1379 */	ld1d	{z30.d}, p0/z, [x13, z28.d, lsl #3]	//  (*)
/*   1379 */	ld1d	{z19.d}, p0/z, [x3, z11.d, lsl #3]	//  (*)
/*   1379 */	ld1d	{z29.d}, p0/z, [x13, z27.d, lsl #3]	//  (*)
/*   1379 */	sub	x5, x3, 64
/*   1379 */	ld1d	{z18.d}, p0/z, [x5, z11.d, lsl #3]	//  (*)
/*   1379 */	ld1d	{z28.d}, p0/z, [x13, z23.d, lsl #3]	//  (*)
/*   1379 */	sub	x5, x3, 128
/*   1379 */	ld1d	{z17.d}, p0/z, [x5, z11.d, lsl #3]	//  (*)
/*   1379 */	ld1d	{z27.d}, p0/z, [x13, z25.d, lsl #3]	//  (*)
/*   1379 */	ld1d	{z16.d}, p0/z, [x6, z11.d, lsl #3]	//  (*)
/*   1379 */	ld1d	{z8.d}, p0/z, [x13, z24.d, lsl #3]	//  (*)
/*   1379 */	sub	x5, x6, 64
/*   1379 */	ld1d	{z10.d}, p0/z, [x5, z11.d, lsl #3]	//  (*)
/*   1379 */	ld1d	{z25.d}, p0/z, [x13, z26.d, lsl #3]	//  (*)
/*   1379 */	sub	x5, x6, 128
/*   1379 */	ld1d	{z7.d}, p0/z, [x5, z11.d, lsl #3]	//  (*)
/*   1379 */	ld1d	{z24.d}, p0/z, [x13, z6.d, lsl #3]	//  (*)
/*   1379 */	sub	x5, x6, 192
/*   1379 */	ld1d	{z6.d}, p0/z, [x5, z11.d, lsl #3]	//  (*)
/*   1379 */	ld1d	{z23.d}, p0/z, [x13, z5.d, lsl #3]	//  (*)
/*   1379 */	sub	x5, x6, 256
/*   1379 */	ld1d	{z5.d}, p0/z, [x5, z11.d, lsl #3]	//  (*)
	.loc 38 1380 0
..LDL1225:
/*   1380 */	sub	x5, x2, 256
	.loc 38 1378 0
..LDL1226:
/*   1378 */	ld1sw	{z31.d}, p0/z, [x5, z11.d, lsl #2]	//  (*)
/*   1378 */	sub	x5, x2, 288
/*   1378 */	ld1sw	{z9.d}, p0/z, [x5, z11.d, lsl #2]	//  (*)
/*   1378 */	sub	x5, x2, 320
/*   1378 */	ld1sw	{z26.d}, p0/z, [x5, z11.d, lsl #2]	//  (*)
	.loc 38 1379 0
..LDL1227:
/*   1379 */	fmsb	z19.d, p0/m, z30.d, z22.d
	.loc 38 1378 0
..LDL1228:
/*   1378 */	sub	x5, x2, 352
	.loc 38 1379 0
..LDL1229:
/*   1379 */	fmsb	z18.d, p0/m, z29.d, z21.d
	.loc 38 1378 0
..LDL1230:
/*   1378 */	ld1sw	{z29.d}, p0/z, [x5, z11.d, lsl #2]	//  (*)
	.loc 38 1379 0
..LDL1231:
/*   1379 */	fmsb	z17.d, p0/m, z28.d, z4.d
	.loc 38 1378 0
..LDL1232:
/*   1378 */	sub	x5, x2, 384
	.loc 38 1379 0
..LDL1233:
/*   1379 */	fmsb	z16.d, p0/m, z27.d, z20.d
	.loc 38 1378 0
..LDL1234:
/*   1378 */	ld1sw	{z28.d}, p0/z, [x5, z11.d, lsl #2]	//  (*)
	.loc 38 1379 0
..LDL1235:
/*   1379 */	fmsb	z10.d, p0/m, z8.d, z3.d
	.loc 38 1378 0
..LDL1236:
/*   1378 */	sub	x5, x2, 416
/*   1378 */	ld1sw	{z27.d}, p0/z, [x5, z11.d, lsl #2]	//  (*)
	.loc 38 1379 0
..LDL1237:
/*   1379 */	fmsb	z7.d, p0/m, z25.d, z2.d
	.loc 38 1380 0
..LDL1238:
/*   1380 */	sub	x7, x6, 512
/*   1380 */	sub	x5, x3, 512
	.loc 38 1379 0
..LDL1239:
/*   1379 */	fmsb	z6.d, p0/m, z24.d, z1.d
/*   1379 */	fmsb	z5.d, p0/m, z23.d, z0.d
	.loc 38 1378 0
..LDL1240:
/*   1378 */	sub	x8, x2, 448
/*   1378 */	ld1sw	{z1.d}, p0/z, [x8, z11.d, lsl #2]	//  (*)
/*   1378 */	sub	x8, x2, 480
/*   1378 */	ld1sw	{z0.d}, p0/z, [x8, z11.d, lsl #2]	//  (*)
	.loc 38 1379 0
..LDL1241:
/*   1379 */	ld1d	{z22.d}, p0/z, [x13, z31.d, lsl #3]	//  (*)
/*   1379 */	ld1d	{z21.d}, p0/z, [x5, z11.d, lsl #3]	//  (*)
/*   1379 */	ld1d	{z25.d}, p0/z, [x13, z9.d, lsl #3]	//  (*)
/*   1379 */	sub	x5, x3, 576
/*   1379 */	ld1d	{z9.d}, p0/z, [x5, z11.d, lsl #3]	//  (*)
/*   1379 */	ld1d	{z8.d}, p0/z, [x13, z26.d, lsl #3]	//  (*)
/*   1379 */	sub	x5, x3, 640
/*   1379 */	ld1d	{z4.d}, p0/z, [x5, z11.d, lsl #3]	//  (*)
/*   1379 */	ld1d	{z20.d}, p0/z, [x13, z29.d, lsl #3]	//  (*)
/*   1379 */	ld1d	{z24.d}, p0/z, [x7, z11.d, lsl #3]	//  (*)
/*   1379 */	ld1d	{z26.d}, p0/z, [x13, z28.d, lsl #3]	//  (*)
/*   1379 */	sub	x5, x6, 576
/*   1379 */	ld1d	{z3.d}, p0/z, [x5, z11.d, lsl #3]	//  (*)
/*   1379 */	ld1d	{z31.d}, p0/z, [x13, z27.d, lsl #3]	//  (*)
/*   1379 */	sub	x5, x6, 640
/*   1379 */	ld1d	{z2.d}, p0/z, [x5, z11.d, lsl #3]	//  (*)
/*   1379 */	ld1d	{z30.d}, p0/z, [x13, z1.d, lsl #3]	//  (*)
/*   1379 */	sub	x5, x6, 704
/*   1379 */	ld1d	{z1.d}, p0/z, [x5, z11.d, lsl #3]	//  (*)
/*   1379 */	ld1d	{z29.d}, p0/z, [x13, z0.d, lsl #3]	//  (*)
/*   1379 */	sub	x5, x6, 768
/*   1379 */	ld1d	{z0.d}, p0/z, [x5, z11.d, lsl #3]	//  (*)
	.loc 38 1380 0
..LDL1242:
/*   1380 */	sub	x2, x2, 512
	.loc 38 1378 0
..LDL1243:
/*   1378 */	ld1sw	{z28.d}, p0/z, [x2, z11.d, lsl #2]	//  (*)
/*   1378 */	sub	x5, x2, 32
/*   1378 */	ld1sw	{z27.d}, p0/z, [x5, z11.d, lsl #2]	//  (*)
/*   1378 */	sub	x5, x2, 64
/*   1378 */	ld1sw	{z23.d}, p0/z, [x5, z11.d, lsl #2]	//  (*)
	.loc 38 1379 0
..LDL1244:
/*   1379 */	fmsb	z22.d, p0/m, z21.d, z19.d
	.loc 38 1378 0
..LDL1245:
/*   1378 */	sub	x5, x2, 96
	.loc 38 1379 0
..LDL1246:
/*   1379 */	movprfx	z21.d, p0/z, z18.d
/*   1379 */	fmls	z21.d, p0/m, z9.d, z25.d
	.loc 38 1378 0
..LDL1247:
/*   1378 */	ld1sw	{z25.d}, p0/z, [x5, z11.d, lsl #2]	//  (*)
	.loc 38 1379 0
..LDL1248:
/*   1379 */	fmsb	z4.d, p0/m, z8.d, z17.d
	.loc 38 1378 0
..LDL1249:
/*   1378 */	sub	x5, x2, 128
	.loc 38 1379 0
..LDL1250:
/*   1379 */	fmsb	z20.d, p0/m, z24.d, z16.d
	.loc 38 1378 0
..LDL1251:
/*   1378 */	ld1sw	{z24.d}, p0/z, [x5, z11.d, lsl #2]	//  (*)
	.loc 38 1379 0
..LDL1252:
/*   1379 */	fmsb	z3.d, p0/m, z26.d, z10.d
	.loc 38 1378 0
..LDL1253:
/*   1378 */	sub	x5, x2, 160
	.loc 38 1377 0
..LDL1254:
/*   1377 */	sub	x1, x1, 128
	.loc 38 1378 0
..LDL1255:
/*   1378 */	ld1sw	{z26.d}, p0/z, [x5, z11.d, lsl #2]	//  (*)
	.loc 38 1379 0
..LDL1256:
/*   1379 */	fmsb	z2.d, p0/m, z31.d, z7.d
	.loc 38 1380 0
..LDL1257:
/*   1380 */	sub	x6, x6, 1024
/*   1380 */	sub	x3, x3, 1024
	.loc 38 1379 0
..LDL1258:
/*   1379 */	fmsb	z1.d, p0/m, z30.d, z6.d
/*   1379 */	fmsb	z0.d, p0/m, z29.d, z5.d
	.loc 38 1380 0
..LDL1259:
/*   1380 */	sub	w4, w4, 16
	.loc 38 1377 0
..LDL1260:
/*   1377 */	cmp	w4, 16
/*   1377 */	bge	.L2568
	.loc 38 1378 0
..LDL1261:
/*   1378 */	sub	x7, x2, 192
/*   1378 */	sub	x5, x2, 224
	.loc 38 1379 0
..LDL1262:
/*   1379 */	ld1d	{z19.d}, p0/z, [x13, z27.d, lsl #3]	//  (*)
/*   1379 */	sub	x11, x3, 64
/*   1379 */	sub	x8, x6, 64
/*   1379 */	ld1d	{z18.d}, p0/z, [x13, z23.d, lsl #3]	//  (*)
	.loc 38 1378 0
..LDL1263:
/*   1378 */	ld1sw	{z16.d}, p0/z, [x7, z11.d, lsl #2]	//  (*)
	.loc 38 1379 0
..LDL1264:
/*   1379 */	sub	x7, x3, 128
/*   1379 */	sub	x12, x6, 128
	.loc 38 1378 0
..LDL1265:
/*   1378 */	ld1sw	{z17.d}, p0/z, [x5, z11.d, lsl #2]	//  (*)
	.loc 38 1379 0
..LDL1266:
/*   1379 */	sub	x10, x6, 192
/*   1379 */	sub	x9, x6, 256
	.loc 38 1380 0
..LDL1267:
/*   1380 */	sub	x2, x2, 256
/*   1380 */	sub	w4, w4, 8
	.loc 38 1379 0
..LDL1268:
/*   1379 */	ld1d	{z23.d}, p0/z, [x13, z25.d, lsl #3]	//  (*)
	.loc 38 1377 0
..LDL1269:
/*   1377 */	sub	x1, x1, 64
	.loc 38 1380 0
..LDL1270:
/*   1380 */	sub	x5, x6, 512
	.loc 38 1379 0
..LDL1271:
/*   1379 */	ld1d	{z27.d}, p0/z, [x13, z24.d, lsl #3]	//  (*)
	.loc 38 1380 0
..LDL1272:
/*   1380 */	cmp	w4, 0
	.loc 38 1379 0
..LDL1273:
/*   1379 */	ld1d	{z30.d}, p0/z, [x13, z26.d, lsl #3]	//  (*)
/*   1379 */	ld1d	{z7.d}, p0/z, [x7, z11.d, lsl #3]	//  (*)
/*   1379 */	ld1d	{z28.d}, p0/z, [x13, z28.d, lsl #3]	//  (*)
/*   1379 */	ld1d	{z5.d}, p0/z, [x3, z11.d, lsl #3]	//  (*)
	.loc 38 1380 0
..LDL1274:
/*   1380 */	sub	x3, x3, 512
	.loc 38 1379 0
..LDL1275:
/*   1379 */	ld1d	{z6.d}, p0/z, [x11, z11.d, lsl #3]	//  (*)
/*   1379 */	ld1d	{z25.d}, p0/z, [x6, z11.d, lsl #3]	//  (*)
/*   1379 */	ld1d	{z24.d}, p0/z, [x8, z11.d, lsl #3]	//  (*)
/*   1379 */	ld1d	{z26.d}, p0/z, [x12, z11.d, lsl #3]	//  (*)
/*   1379 */	ld1d	{z29.d}, p0/z, [x10, z11.d, lsl #3]	//  (*)
/*   1379 */	ld1d	{z31.d}, p0/z, [x9, z11.d, lsl #3]	//  (*)
/*   1379 */	ld1d	{z16.d}, p0/z, [x13, z16.d, lsl #3]	//  (*)
/*   1379 */	ld1d	{z17.d}, p0/z, [x13, z17.d, lsl #3]	//  (*)
/*   1379 */	fmsb	z7.d, p0/m, z18.d, z4.d
/*   1379 */	fmsb	z5.d, p0/m, z28.d, z22.d
/*   1379 */	fmsb	z6.d, p0/m, z19.d, z21.d
/*   1379 */	movprfx	z4.d, p0/z, z20.d
/*   1379 */	fmls	z4.d, p0/m, z25.d, z23.d
/*   1379 */	fmls	z3.d, p0/m, z24.d, z27.d
/*   1379 */	fmls	z2.d, p0/m, z26.d, z30.d
/*   1379 */	fmsb	z16.d, p0/m, z29.d, z1.d
/*   1379 */	fmsb	z17.d, p0/m, z31.d, z0.d
	.loc 38 1380 0
..LDL1276:
/*   1380 */	blt	.L2925
.L2928:
	.p2align 5
.L2931:					// :entr:term:mod:swpl
	.loc 38 1378 0 is_stmt 1
..LDL1277:
/*   1378 */	ld1sw	{z24.d}, p0/z, [x2, z11.d, lsl #2]	//  (*)
/*   1378 */	sub	x7, x2, 32
/*   1378 */	sub	x6, x2, 64
/*   1378 */	sub	x10, x2, 128
/*   1378 */	ld1sw	{z27.d}, p0/z, [x6, z11.d, lsl #2]	//  (*)
/*   1378 */	sub	x6, x2, 192
/*   1378 */	ld1sw	{z26.d}, p0/z, [x7, z11.d, lsl #2]	//  (*)
/*   1378 */	sub	x7, x2, 96
/*   1378 */	sub	x11, x2, 160
	.loc 38 1379 0
..LDL1278:
/*   1379 */	sub	x8, x3, 64
	.loc 38 1378 0
..LDL1279:
/*   1378 */	sub	x9, x2, 224
/*   1378 */	ld1sw	{z21.d}, p0/z, [x6, z11.d, lsl #2]	//  (*)
/*   1378 */	ld1sw	{z20.d}, p0/z, [x7, z11.d, lsl #2]	//  (*)
	.loc 38 1379 0
..LDL1280:
/*   1379 */	sub	x7, x3, 128
/*   1379 */	sub	x12, x5, 128
	.loc 38 1378 0
..LDL1281:
/*   1378 */	ld1sw	{z0.d}, p0/z, [x10, z11.d, lsl #2]	//  (*)
	.loc 38 1379 0
..LDL1282:
/*   1379 */	sub	x10, x5, 64
/*   1379 */	sub	x6, x5, 256
	.loc 38 1378 0
..LDL1283:
/*   1378 */	ld1sw	{z30.d}, p0/z, [x11, z11.d, lsl #2]	//  (*)
	.loc 38 1379 0
..LDL1284:
/*   1379 */	sub	x11, x5, 192
	.loc 38 1377 0 is_stmt 0
..LDL1285:
/*   1377 */	sub	x1, x1, 64
	.loc 38 1378 0 is_stmt 1
..LDL1286:
/*   1378 */	ld1sw	{z25.d}, p0/z, [x9, z11.d, lsl #2]	//  (*)
	.loc 38 1380 0 is_stmt 0
..LDL1287:
/*   1380 */	sub	x2, x2, 256
/*   1380 */	subs	w4, w4, 8
	.loc 38 1379 0 is_stmt 1
..LDL1288:
/*   1379 */	ld1d	{z23.d}, p0/z, [x3, z11.d, lsl #3]	//  (*)
	.loc 38 1380 0 is_stmt 0
..LDL1289:
/*   1380 */	sub	x3, x3, 512
	.loc 38 1379 0
..LDL1290:
/*   1379 */	ld1d	{z1.d}, p0/z, [x8, z11.d, lsl #3]	//  (*)
/*   1379 */	ld1d	{z8.d}, p0/z, [x7, z11.d, lsl #3]	//  (*)
/*   1379 */	ld1d	{z18.d}, p0/z, [x5, z11.d, lsl #3]	//  (*)
	.loc 38 1380 0
..LDL1291:
/*   1380 */	sub	x5, x5, 512
	.loc 38 1379 0
..LDL1292:
/*   1379 */	ld1d	{z19.d}, p0/z, [x10, z11.d, lsl #3]	//  (*)
/*   1379 */	ld1d	{z22.d}, p0/z, [x12, z11.d, lsl #3]	//  (*)
/*   1379 */	ld1d	{z29.d}, p0/z, [x11, z11.d, lsl #3]	//  (*)
/*   1379 */	ld1d	{z28.d}, p0/z, [x6, z11.d, lsl #3]	//  (*)
/*   1379 */	ld1d	{z24.d}, p0/z, [x13, z24.d, lsl #3]	//  (*)
/*   1379 */	ld1d	{z27.d}, p0/z, [x13, z27.d, lsl #3]	//  (*)
/*   1379 */	ld1d	{z26.d}, p0/z, [x13, z26.d, lsl #3]	//  (*)
/*   1379 */	ld1d	{z31.d}, p0/z, [x13, z21.d, lsl #3]	//  (*)
/*   1379 */	ld1d	{z20.d}, p0/z, [x13, z20.d, lsl #3]	//  (*)
/*   1379 */	ld1d	{z0.d}, p0/z, [x13, z0.d, lsl #3]	//  (*)
/*   1379 */	ld1d	{z30.d}, p0/z, [x13, z30.d, lsl #3]	//  (*)
/*   1379 */	ld1d	{z21.d}, p0/z, [x13, z25.d, lsl #3]	//  (*)
/*   1379 */	fmls	z5.d, p0/m, z23.d, z24.d
/*   1379 */	fmls	z7.d, p0/m, z8.d, z27.d
/*   1379 */	fmls	z6.d, p0/m, z1.d, z26.d
/*   1379 */	fmls	z16.d, p0/m, z29.d, z31.d
/*   1379 */	fmls	z4.d, p0/m, z18.d, z20.d
/*   1379 */	fmls	z3.d, p0/m, z19.d, z0.d
/*   1379 */	fmls	z2.d, p0/m, z22.d, z30.d
/*   1379 */	fmls	z17.d, p0/m, z28.d, z21.d
	.loc 38 1380 0
..LDL1293:
/*   1380 */	bpl	.L2931
.L2925:
	.loc 38 1379 0
..LDL1294:
/*   1379 */	fadd	z16.d, z17.d, z16.d
/*   1379 */	fadd	z0.d, z2.d, z3.d
/*   1379 */	fadd	z2.d, z4.d, z7.d
/*   1379 */	fadd	z1.d, z5.d, z6.d
/*   1379 */	fadd	z0.d, z0.d, z16.d
/*   1379 */	fadd	z1.d, z1.d, z2.d
/*   1379 */	fadd	z0.d, z1.d, z0.d
.L2579:
	.loc 38 1377 0 is_stmt 1
..LDL1295:
/*   1377 */	adds	w2, w4, 7
/*   1377 */	bmi	.L2569
	.loc 38 1379 0 is_stmt 0
..LDL1296:
/*   1379 */	ldr	x3, [x0, 16]	//  "xv"
/*   1379 */	orr	x5, x3, 72057594037927936
	.p2align 5
.L2591:					// :entr:term:mod
	.loc 38 1378 0 is_stmt 1
..LDL1297:
/*   1378 */	index	z1.d, 0, -1
/*   1378 */	mov	x3, x1
	.loc 38 1377 0 is_stmt 0
..LDL1298:
/*   1377 */	sub	x1, x1, 8
	.loc 38 1378 0
..LDL1299:
/*   1378 */	add	x4, x15, x3, lsl #2
	.loc 38 1380 0
..LDL1300:
/*   1380 */	subs	w2, w2, 1
	.loc 38 1379 0 is_stmt 1
..LDL1301:
/*   1379 */	add	x3, x14, x3, lsl #3
	.loc 38 1378 0
..LDL1302:
/*   1378 */	ld1sw	{z2.d}, p0/z, [x4, z1.d, lsl #2]	//  (*)
	.loc 38 1379 0
..LDL1303:
/*   1379 */	ld1d	{z1.d}, p0/z, [x3, z1.d, lsl #3]	//  (*)
/*   1379 */	ld1d	{z2.d}, p0/z, [x5, z2.d, lsl #3]	//  (*)
/*   1379 */	fmls	z0.d, p0/m, z1.d, z2.d
	.loc 38 1377 0 is_stmt 0
..LDL1304:
/*   1377 */	bpl	.L2591
.L2569:
	.loc 38 1379 0
..LDL1305:
/*   1379 */	movprfx	z1, z0
/*   1379 */	ext	z1.b, z1.b, z0.b, 32
/*   1379 */	fadd	z1.d, z1.d, z0.d
/*   1379 */	movprfx	z0, z1
/*   1379 */	ext	z0.b, z0.b, z1.b, 16
/*   1379 */	fadd	z1.d, z1.d, z0.d
/*   1379 */	movprfx	z0, z1
/*   1379 */	ext	z0.b, z0.b, z1.b, 8
/*   1379 */	fadd	z0.d, z1.d, z0.d
/*   1379 */	fadd	d13, d13, d0
.L2570:
	.loc 38 1377 0 is_stmt 1
..LDL1306:
/*   1377 */	sbfiz	x1, x18, 3, 32
/*   1377 */	sub	x1, x23, x1
/*   1377 */	add	x1, x1, x17
/*   1377 */	cbz	w30, .L2573
/*   1377 */	whilelt	p1.d, wzr, w30
	.loc 38 1379 0
..LDL1307:
/*   1379 */	ldr	x4, [x0, 16]	//  "xv"
	.loc 38 1378 0
..LDL1308:
/*   1378 */	add	x3, x15, x1, lsl #2
	.loc 38 1379 0
..LDL1309:
/*   1379 */	add	x2, x14, x1, lsl #3
	.loc 38 1378 0
..LDL1310:
/*   1378 */	ld1sw	{z1.d}, p1/z, [x3, z11.d, lsl #2]	//  (*)
	.loc 38 1379 0
..LDL1311:
/*   1379 */	orr	x1, x4, 72057594037927936
/*   1379 */	ld1d	{z0.d}, p1/z, [x2, z11.d, lsl #3]	//  (*)
/*   1379 */	ld1d	{z1.d}, p1/z, [x1, z1.d, lsl #3]	//  (*)
/*   1379 */	fmsb	z0.d, p1/m, z1.d, z12.d
/*   1379 */	sel	z0.d, p1, z0.d, z12.d
/*   1379 */	movprfx	z1, z0
/*   1379 */	ext	z1.b, z1.b, z0.b, 32
/*   1379 */	fadd	z1.d, z0.d, z1.d
/*   1379 */	movprfx	z0, z1
/*   1379 */	ext	z0.b, z0.b, z1.b, 16
/*   1379 */	fadd	z0.d, z1.d, z0.d
/*   1379 */	movprfx	z1, z0
/*   1379 */	ext	z1.b, z1.b, z0.b, 8
/*   1379 */	fadd	z0.d, z0.d, z1.d
/*   1379 */	fadd	d13, d13, d0
.L2573:					// :term
	.loc 38 1382 0
..LDL1312:
	.loc 38 1381 0 is_stmt 0
..LDL1313:
/*   1381 */	ldr	d2, [x20, x16, lsl #3]	//  (*)
	.loc 38 1382 0
..LDL1314:
/*   1382 */	frecpe	d1, d14
	.loc 38 1383 0 is_stmt 1
..LDL1315:
/*   1383 */	sub	x29, x29, 1
/*   1383 */	subs	w19, w19, 1
	.loc 38 1382 0
..LDL1316:
/*   1382 */	fmsub	d0, d14, d1, d15
/*   1382 */	fmadd	d4, d2, d14, d13
/*   1382 */	fmadd	d2, d0, d0, d0
/*   1382 */	fmul	d3, d0, d0
/*   1382 */	fmul	d1, d4, d1
/*   1382 */	fmadd	d0, d3, d3, d0
/*   1382 */	fmadd	d2, d2, d1, d1
/*   1382 */	fmadd	d0, d0, d2, d1
/*   1382 */	str	d0, [x20, x16, lsl #3]	//  (*)
	.loc 38 1383 0 is_stmt 0
..LDL1317:
/*   1383 */	bne	.L2565
	.loc 38 1383 0 is_stmt 1
..LDL1318:
.L2576:
/*   1383 */	add	x19, sp, 32
/*   1383 */	ldr	x0, [x19, -16]
/*   1383 */	bl	__mpc_obar
/*   1383 */	ldr	x0, [x19, -16]
/*   1383 */	bl	__mpc_obar
/*    ??? */	add	sp, sp, 64
	.cfi_def_cfa_offset 128
/*    ??? */	ldp	x19, x20, [sp, 96]	//  (*)
	.cfi_restore 19
	.cfi_restore 20
/*    ??? */	ldp	x21, x22, [sp, 80]	//  (*)
	.cfi_restore 21
	.cfi_restore 22
/*    ??? */	ldr	x23, [sp, 72]	//  (*)
	.cfi_restore 23
/*    ??? */	ldp	d8, d9, [sp, 56]	//  (*)
	.cfi_restore 72
	.cfi_restore 73
/*    ??? */	ldp	d10, d11, [sp, 40]	//  (*)
	.cfi_restore 74
	.cfi_restore 75
/*    ??? */	ldp	d12, d13, [sp, 24]	//  (*)
	.cfi_restore 76
	.cfi_restore 77
/*    ??? */	ldp	d14, d15, [sp, 8]	//  (*)
	.cfi_restore 78
	.cfi_restore 79
/*    ??? */	ldp	x29, x30, [sp, 112]	//  (*)
	.cfi_restore 29
	.cfi_restore 30
/*   1383 */	add	sp, sp, 128
	.cfi_def_cfa_offset 0
/*   1383 */	ret	
..D15.pchi:
	.cfi_endproc
.LFE14:
	.size	_Z16ComputeSYMGS_TDGRK19SparseMatrix_STRUCTRK13Vector_STRUCTRS2_R9TraceData._OMP_10, .-_Z16ComputeSYMGS_TDGRK19SparseMatrix_STRUCTRK13Vector_STRUCTRS2_R9TraceData._OMP_10
	.ident	"$Compiler: Fujitsu C/C++ Compiler 4.7.0 (Nov 10 2021 09:37:15) ../src/ComputeSYMGS.cpp _Z18ComputeSYMGS_BLOCKRK19SparseMatrix_STRUCTRK13Vector_STRUCTRS2_R9TraceData $"
	.text
	.align	2
	.global	_Z18ComputeSYMGS_BLOCKRK19SparseMatrix_STRUCTRK13Vector_STRUCTRS2_R9TraceData
	.type	_Z18ComputeSYMGS_BLOCKRK19SparseMatrix_STRUCTRK13Vector_STRUCTRS2_R9TraceData, %function
_Z18ComputeSYMGS_BLOCKRK19SparseMatrix_STRUCTRK13Vector_STRUCTRS2_R9TraceData:
	.loc 38 1395 0
..LDL1319:
.LFB15:
	.cfi_startproc
/*   1549 */	sub	sp, sp, 64
	.cfi_def_cfa_offset 64
/*    ??? */	str	x30, [sp, 48]	//  (*)
	.cfi_offset 30, -16
/*    ??? */	stp	x19, x20, [sp, 32]	//  (*)
	.cfi_offset 19, -32
	.cfi_offset 20, -24
/*    ??? */	stp	x21, x22, [sp, 16]	//  (*)
	.cfi_offset 21, -48
	.cfi_offset 22, -40
/*    ??? */	str	x23, [sp, 8]	//  (*)
	.cfi_offset 23, -56
/*    ??? */	sub	sp, sp, 64
	.cfi_def_cfa_offset 128
/*   1395 */	add	x19, sp, 8
/*   1395 */	str	x0, [x19, 32]
	.loc 38 1397 0
..LDL1320:
/*   1397 */	ldr	w4, [x2]	//  (*)
/*   1397 */	ldr	w3, [x0, 36]	//  (*)
/*   1397 */	cmp	w4, w3
/*   1397 */	blt	.L2610
	.loc 38 1404 0
..LDL1321:
/*   1404 */	ldr	x3, [x0, 80]	//  (*)
/*   1404 */	str	x3, [x19, 24]
	.loc 38 1405 0
..LDL1322:
/*   1405 */	ldr	x1, [x1, 8]	//  (*)
/*   1405 */	str	x1, [x19, 16]
	.loc 38 1406 0
..LDL1323:
/*   1406 */	ldr	x1, [x2, 8]	//  (*)
/*   1406 */	str	x1, [x19, 8]
	.loc 38 1408 0
..LDL1324:
/*   1408 */	str	wzr, [x19, 4]
	.loc 37 1506 0
..LDL1325:
/*   1506 */	ldr	x0, [x0, 304]	//  (*)
	.loc 38 1409 0
..LDL1326:
/*   1409 */	ldr	w0, [x0]	//  (*)
/*   1409 */	str	w0, [x19]
	.loc 38 1413 0
..LDL1327:
/*   1413 */	ldr	x0, [x19, 32]
/*   1413 */	ldr	w0, [x0, 344]	//  (*)
/*   1413 */	cmp	w0, 0
/*   1413 */	ble	.L2602
/*   1413 */	mov	w22, 0
	.loc 38 1415 0 is_stmt 0
..LDL1328:
/*   1415 */	mov	x23, 0
	.loc 38 1419 0
..LDL1329:
/*   1419 */	adrp	x0, _Z18ComputeSYMGS_BLOCKRK19SparseMatrix_STRUCTRK13Vector_STRUCTRS2_R9TraceData._OMP_11
/*   1419 */	add	x21, x0, :lo12:_Z18ComputeSYMGS_BLOCKRK19SparseMatrix_STRUCTRK13Vector_STRUCTRS2_R9TraceData._OMP_11
	.loc 37 1506 0
..LDL1330:
/*   1506 */	add	x20, x19, 32
	.p2align 5
.L2598:					// :entr
	.loc 38 1414 0 is_stmt 1
..LDL1331:
/*   1414 */	cmp	w22, 0
/*   1414 */	ble	.L2600
	.loc 38 1415 0
..LDL1332:
/*   1415 */	ldr	w2, [x20, -28]
	.loc 37 1506 0 is_stmt 0
..LDL1333:
/*   1506 */	ldr	x0, [x20]
/*   1506 */	ldr	x1, [x0, 304]	//  (*)
	.loc 38 1415 0
..LDL1334:
/*   1415 */	sub	x0, x23, 1
/*   1415 */	ldr	w0, [x1, x0, lsl #2]	//  (*)
/*   1415 */	add	w0, w2, w0
/*   1415 */	str	w0, [x20, -28]
	.loc 38 1416 0 is_stmt 1
..LDL1335:
/*   1416 */	ldr	w1, [x1, x23, lsl #2]	//  (*)
/*   1416 */	add	w0, w0, w1
/*   1416 */	str	w0, [x20, -32]
.L2600:					// :term
	.loc 38 1419 0 is_stmt 0
..LDL1336:
/*   1419 */	mov	x2, 0
/*   1419 */	mov	x0, x21
/*   1419 */	mov	x1, x19
/*   1419 */	bl	__mpc_opar
	.loc 38 1475 0 is_stmt 1
..LDL1337:
/*   1475 */	add	w22, w22, 1
/*   1475 */	add	x23, x23, 1
/*   1475 */	ldr	x0, [x19, 32]
/*   1475 */	ldr	w0, [x0, 344]	//  (*)
/*   1475 */	cmp	w22, w0
/*   1475 */	blt	.L2598
.L2602:
	.loc 38 1477 0
..LDL1338:
/*   1477 */	ldr	x1, [x19, 32]
/*   1477 */	ldr	w0, [x1, 348]	//  (*)
/*   1477 */	sub	w0, w0, 1
/*   1477 */	str	w0, [x19, 4]
	.loc 38 1478 0
..LDL1339:
/*   1478 */	ldr	w2, [x1, 344]	//  (*)
	.loc 37 1506 0
..LDL1340:
/*   1506 */	ldr	x1, [x1, 304]	//  (*)
	.loc 38 1478 0
..LDL1341:
/*   1478 */	sub	w23, w2, 1
/*   1478 */	sxtw	x20, w23
/*   1478 */	ldr	w1, [x1, x20, lsl #2]	//  (*)
/*   1478 */	sub	w0, w0, w1
/*   1478 */	str	w0, [x19]
	.loc 38 1482 0
..LDL1342:
/*   1482 */	cmp	w23, 0
/*   1482 */	blt	.L2609
	.loc 38 1488 0 is_stmt 0
..LDL1343:
/*   1488 */	adrp	x0, _Z18ComputeSYMGS_BLOCKRK19SparseMatrix_STRUCTRK13Vector_STRUCTRS2_R9TraceData._OMP_12
	.loc 38 1483 0
..LDL1344:
/*   1483 */	add	x22, x19, 32
	.loc 38 1488 0
..LDL1345:
/*   1488 */	add	x21, x0, :lo12:_Z18ComputeSYMGS_BLOCKRK19SparseMatrix_STRUCTRK13Vector_STRUCTRS2_R9TraceData._OMP_12
	.p2align 5
.L2605:					// :entr
	.loc 38 1483 0 is_stmt 1
..LDL1346:
/*   1483 */	ldr	x1, [x22]
/*   1483 */	ldr	w0, [x1, 344]	//  (*)
/*   1483 */	sub	w0, w0, 1
/*   1483 */	cmp	w23, w0
/*   1483 */	bge	.L2607
	.loc 38 1484 0
..LDL1347:
/*   1484 */	ldr	w0, [x22, -28]
	.loc 37 1506 0 is_stmt 0
..LDL1348:
/*   1506 */	ldr	x1, [x1, 304]	//  (*)
	.loc 38 1484 0
..LDL1349:
/*   1484 */	add	x2, x20, 1
/*   1484 */	ldr	w2, [x1, x2, lsl #2]	//  (*)
/*   1484 */	sub	w0, w0, w2
/*   1484 */	str	w0, [x22, -28]
	.loc 38 1485 0 is_stmt 1
..LDL1350:
/*   1485 */	ldr	w1, [x1, x20, lsl #2]	//  (*)
/*   1485 */	sub	w0, w0, w1
/*   1485 */	str	w0, [x22, -32]
.L2607:					// :term
	.loc 38 1488 0 is_stmt 0
..LDL1351:
/*   1488 */	mov	x2, 0
/*   1488 */	mov	x0, x21
/*   1488 */	mov	x1, x19
/*   1488 */	bl	__mpc_opar
	.loc 38 1550 0 is_stmt 1
..LDL1352:
/*   1550 */	subs	w23, w23, 1
/*   1550 */	sub	x20, x20, 1
/*   1550 */	bpl	.L2605
.L2609:
	.loc 38 1552 0
..LDL1353:
/*   1552 */	mov	w0, 0
/*   1552 */	b	.L2611
.L2610:
	.loc 38 1397 0
..LDL1354:
/*   1397 */	adrp	x0, .LR.1
/*   1397 */	adrp	x1, .LR.2
/*   1397 */	mov	w2, 1397
/*   1397 */	add	x0, x0, :lo12:.LR.1
/*   1397 */	add	x1, x1, :lo12:.LR.2
/*   1397 */	adrp	x3, .LR.4
/*   1397 */	add	x3, x3, :lo12:.LR.4
/*   1397 */	bl	__assert_fail
.L2611:					// :epi:term
	.loc 38 1553 0
..LDL1355:
/*    ??? */	add	sp, sp, 64
	.cfi_def_cfa_offset 64
/*    ??? */	ldp	x19, x20, [sp, 32]	//  (*)
	.cfi_restore 19
	.cfi_restore 20
/*    ??? */	ldp	x21, x22, [sp, 16]	//  (*)
	.cfi_restore 21
	.cfi_restore 22
/*    ??? */	ldr	x23, [sp, 8]	//  (*)
	.cfi_restore 23
/*    ??? */	ldr	x30, [sp, 48]	//  (*)
	.cfi_restore 30
/*   1553 */	add	sp, sp, 64
	.cfi_def_cfa_offset 0
/*   1553 */	ret	
..D16.pchi:
	.cfi_endproc
.LFE15:
	.size	_Z18ComputeSYMGS_BLOCKRK19SparseMatrix_STRUCTRK13Vector_STRUCTRS2_R9TraceData, .-_Z18ComputeSYMGS_BLOCKRK19SparseMatrix_STRUCTRK13Vector_STRUCTRS2_R9TraceData
	.ident	"$Compiler: Fujitsu C/C++ Compiler 4.7.0 (Nov 10 2021 09:37:15) ../src/ComputeSYMGS.cpp _Z18ComputeSYMGS_BLOCKRK19SparseMatrix_STRUCTRK13Vector_STRUCTRS2_R9TraceData._OMP_11 $"
	.text
	.align	2
	.type	_Z18ComputeSYMGS_BLOCKRK19SparseMatrix_STRUCTRK13Vector_STRUCTRS2_R9TraceData._OMP_11, %function
_Z18ComputeSYMGS_BLOCKRK19SparseMatrix_STRUCTRK13Vector_STRUCTRS2_R9TraceData._OMP_11:
	.loc 38 1419 0
..LDL1356:
.LFB16:
	.cfi_startproc
/*   1393 */	sub	sp, sp, 64
	.cfi_def_cfa_offset 64
/*    ??? */	stp	x29, x30, [sp, 48]	//  (*)
	.cfi_offset 29, -16
	.cfi_offset 30, -8
/*    ??? */	stp	x19, x20, [sp, 32]	//  (*)
	.cfi_offset 19, -32
	.cfi_offset 20, -24
/*    ??? */	stp	x21, x22, [sp, 16]	//  (*)
	.cfi_offset 21, -48
	.cfi_offset 22, -40
/*    ??? */	str	x23, [sp, 8]	//  (*)
	.cfi_offset 23, -56
/*    ??? */	sub	sp, sp, 64
	.cfi_def_cfa_offset 128
/*   1393 */	str	x1, [sp, 32]
/*   1393 */	str	x2, [sp, 24]
/*   1393 */	str	x3, [sp, 16]
/*   1393 */	str	x4, [sp, 8]
	.loc 38 1419 0 is_stmt 0
..LDL1357:
	.loc 38 1419 0 is_stmt 0
..LDL1358:
	.loc 38 1421 0 is_stmt 1
..LDL1359:
/*   1421 */	ldr	w2, [x0, 4]	//  "firstBlock"
/*   1421 */	ldr	x3, [x0, 32]	//  "A"
/*   1421 */	ldr	w1, [x0]	//  "lastBlock"
/*   1421 */	ldr	w3, [x3, 336]	//  (*)
/*   1421 */	cmp	w2, w1
/*   1421 */	bge	.L2649
/*   1421 */	sxtw	x1, w1
/*   1421 */	sxtw	x2, w2
/*   1421 */	sub	x4, x1, 1
/*   1421 */	sxtw	x1, w3
/*   1421 */	add	x6, sp, 32
/*   1421 */	sub	x4, x4, x2
/*   1421 */	ldr	x5, [x6]
/*   1421 */	sdiv	x4, x4, x1
/*   1421 */	add	x7, x4, 1
/*   1421 */	sdiv	x4, x7, x5
/*   1421 */	msub	x5, x5, x4, x7
/*   1421 */	cbnz	x5, .L2616
/*   1421 */	ldr	x5, [x6, -8]
/*   1421 */	mul	x5, x5, x1
/*   1421 */	madd	x2, x5, x4, x2
/*   1421 */	b	.L2619
.L2616:
/*   1421 */	ldr	x6, [x6, -8]
/*   1421 */	cmp	x6, x5
/*   1421 */	blt	.L2618
/*   1421 */	madd	x5, x6, x4, x5
/*   1421 */	madd	x2, x5, x1, x2
/*   1421 */	b	.L2619
.L2618:
/*   1421 */	add	x4, x4, 1
/*   1421 */	mul	x5, x6, x1
/*   1421 */	madd	x2, x5, x4, x2
.L2619:
/*   1421 */	mul	x5, x1, x4
/*   1421 */	sub	x1, x5, x1
/*   1421 */	add	x1, x1, x2
/*   1421 */	cbz	x4, .L2649
	.loc 38 1445 0 is_stmt 0
..LDL1360:
/*   1445 */	fmov	d0, 1.000000e+00
.L2621:					// :entr
	.loc 38 1422 0 is_stmt 1
..LDL1361:
/*   1422 */	ldr	x5, [x0, 32]	//  "A"
/*   1422 */	ldr	w6, [x5, 332]	//  (*)
	.loc 38 1423 0
..LDL1362:
/*   1423 */	ldr	w5, [x5, 336]	//  (*)
	.loc 38 1422 0
..LDL1363:
/*   1422 */	mul	w4, w6, w2
	.loc 38 1423 0
..LDL1364:
/*   1423 */	sdiv	w7, w4, w5
	.loc 38 1424 0
..LDL1365:
/*   1424 */	madd	w4, w6, w5, w4
/*   1424 */	sdiv	w4, w4, w5
	.loc 38 1426 0
..LDL1366:
/*   1426 */	sub	w14, w4, w7
/*   1426 */	cmp	w7, w4
/*   1426 */	bge	.L2646
.L2624:					// :entr
	.loc 38 1427 0
..LDL1367:
/*   1427 */	ldr	x4, [x0, 32]	//  "A"
/*   1427 */	ldr	w9, [x4, 336]	//  (*)
/*   1427 */	mul	w5, w9, w7
	.loc 38 1432 0
..LDL1368:
/*   1432 */	cmp	w9, 4
	.loc 38 1433 0 is_stmt 0
..LDL1369:
/*   1433 */	sxtw	x15, w5
	.loc 38 1432 0
..LDL1370:
/*   1432 */	bne	.L2631
	.loc 38 1433 0 is_stmt 1
..LDL1371:
/*   1433 */	ldr	x6, [x0, 16]	//  "rv"
	.loc 38 1434 0
..LDL1372:
/*   1434 */	add	x22, x15, 1
	.loc 38 1435 0
..LDL1373:
/*   1435 */	add	x29, x15, 2
	.loc 37 1506 0
..LDL1374:
/*   1506 */	ldr	x5, [x4, 256]	//  (*)
	.loc 38 1436 0
..LDL1375:
/*   1436 */	add	x18, x15, 3
	.loc 38 1438 0
..LDL1376:
/*   1438 */	sxtw	x8, w7
/*   1438 */	mov	w21, 0
	.loc 38 1433 0
..LDL1377:
/*   1433 */	ldr	d5, [x6, x15, lsl #3]	//  (*)
	.loc 38 1434 0
..LDL1378:
/*   1434 */	ldr	d20, [x6, x22, lsl #3]	//  (*)
	.loc 37 1506 0
..LDL1379:
/*   1506 */	add	x9, x5, x8, lsl #2
	.loc 38 1435 0
..LDL1380:
/*   1435 */	ldr	d19, [x6, x29, lsl #3]	//  (*)
	.loc 38 1436 0
..LDL1381:
/*   1436 */	ldr	d18, [x6, x18, lsl #3]	//  (*)
	.loc 38 1438 0
..LDL1382:
/*   1438 */	ldr	w6, [x9]	//  (*)
/*   1438 */	cmp	w6, 0
/*   1438 */	ble	.L2630
/*   1439 */	ldp	x4, x6, [x4, 64]	//  (*)
	.loc 38 1439 0 is_stmt 0
..LDL1383:
/*   1439 */	mov	x16, 0
	.loc 38 1443 0
..LDL1384:
/*   1443 */	ldr	w10, [x5, x8, lsl #2]	//  (*)
	.loc 38 1439 0
..LDL1385:
/*   1439 */	ldr	x5, [x0, 8]	//  "xv"
/*   1439 */	ldr	x9, [x6, x15, lsl #3]	//  (*)
/*   1439 */	ldr	x30, [x4, x15, lsl #3]	//  (*)
	.loc 38 1440 0
..LDL1386:
/*   1440 */	ldr	x8, [x6, x22, lsl #3]	//  (*)
/*   1440 */	ldr	x20, [x4, x22, lsl #3]	//  (*)
	.loc 38 1441 0
..LDL1387:
/*   1441 */	ldr	x13, [x6, x29, lsl #3]	//  (*)
/*   1441 */	ldr	x12, [x4, x29, lsl #3]	//  (*)
	.loc 38 1442 0
..LDL1388:
/*   1442 */	ldr	x19, [x6, x18, lsl #3]	//  (*)
/*   1442 */	ldr	x11, [x4, x18, lsl #3]	//  (*)
	.p2align 5
.L2628:					// :entr:term
	.loc 38 1439 0 is_stmt 1
..LDL1389:
/*   1439 */	ldrsw	x6, [x30, x16, lsl #2]	//  (*)
	.loc 38 1440 0
..LDL1390:
/*   1440 */	ldrsw	x4, [x20, x16, lsl #2]	//  (*)
	.loc 38 1443 0
..LDL1391:
/*   1443 */	add	w21, w21, 1
	.loc 38 1441 0
..LDL1392:
/*   1441 */	ldrsw	x23, [x12, x16, lsl #2]	//  (*)
	.loc 38 1442 0
..LDL1393:
/*   1442 */	ldrsw	x17, [x11, x16, lsl #2]	//  (*)
	.loc 38 1443 0
..LDL1394:
/*   1443 */	cmp	w21, w10
	.loc 38 1439 0
..LDL1395:
/*   1439 */	ldr	d3, [x9, x16, lsl #3]	//  (*)
	.loc 38 1440 0
..LDL1396:
/*   1440 */	ldr	d2, [x8, x16, lsl #3]	//  (*)
	.loc 38 1441 0
..LDL1397:
/*   1441 */	ldr	d4, [x13, x16, lsl #3]	//  (*)
	.loc 38 1442 0
..LDL1398:
/*   1442 */	ldr	d1, [x19, x16, lsl #3]	//  (*)
	.loc 38 1443 0
..LDL1399:
/*   1443 */	add	x16, x16, 1
	.loc 38 1439 0
..LDL1400:
/*   1439 */	ldr	d17, [x5, x6, lsl #3]	//  (*)
	.loc 38 1440 0
..LDL1401:
/*   1440 */	ldr	d7, [x5, x4, lsl #3]	//  (*)
	.loc 38 1441 0
..LDL1402:
/*   1441 */	ldr	d16, [x5, x23, lsl #3]	//  (*)
	.loc 38 1442 0
..LDL1403:
/*   1442 */	ldr	d6, [x5, x17, lsl #3]	//  (*)
	.loc 38 1439 0
..LDL1404:
/*   1439 */	fmsub	d5, d3, d17, d5
	.loc 38 1440 0
..LDL1405:
/*   1440 */	fmsub	d20, d2, d7, d20
	.loc 38 1441 0
..LDL1406:
/*   1441 */	fmsub	d19, d4, d16, d19
	.loc 38 1442 0
..LDL1407:
/*   1442 */	fmsub	d18, d1, d6, d18
	.loc 38 1443 0 is_stmt 0
..LDL1408:
/*   1443 */	blt	.L2628
.L2630:
	.loc 38 1445 0 is_stmt 1
..LDL1409:
	.loc 38 1444 0 is_stmt 0
..LDL1410:
/*   1444 */	ldr	x4, [x0, 8]	//  "xv"
/*   1444 */	ldr	x5, [x0, 24]	//  "matrixDiagonal"
/*   1444 */	ldr	x5, [x5, x15, lsl #3]	//  (*)
/*   1444 */	ldr	d2, [x4, x15, lsl #3]	//  (*)
/*   1444 */	ldr	d1, [x5]	//  (*)
	.loc 38 1445 0
..LDL1411:
/*   1445 */	fmadd	d3, d2, d1, d5
/*   1445 */	frecpe	d2, d1
/*   1445 */	fmsub	d4, d1, d2, d0
/*   1445 */	fmul	d1, d3, d2
/*   1445 */	fmadd	d2, d4, d4, d4
/*   1445 */	fmul	d3, d4, d4
/*   1445 */	fmadd	d2, d2, d1, d1
/*   1445 */	fmadd	d3, d3, d3, d4
/*   1445 */	fmadd	d1, d3, d2, d1
/*   1445 */	str	d1, [x4, x15, lsl #3]	//  (*)
	.loc 38 1446 0 is_stmt 1
..LDL1412:
/*   1446 */	ldr	x5, [x0, 24]	//  "matrixDiagonal"
	.loc 38 1447 0
..LDL1413:
	.loc 38 1446 0 is_stmt 0
..LDL1414:
/*   1446 */	ldr	d1, [x4, x22, lsl #3]	//  (*)
	.loc 38 1446 0 is_stmt 1
..LDL1415:
/*   1446 */	ldr	x5, [x5, x22, lsl #3]	//  (*)
	.loc 38 1447 0
..LDL1416:
	.loc 38 1446 0 is_stmt 0
..LDL1417:
/*   1446 */	ldr	d2, [x5]	//  (*)
	.loc 38 1447 0
..LDL1418:
/*   1447 */	fmadd	d1, d1, d2, d20
/*   1447 */	frecpe	d3, d2
/*   1447 */	fmsub	d2, d2, d3, d0
/*   1447 */	fmul	d3, d1, d3
/*   1447 */	fmadd	d1, d2, d2, d2
/*   1447 */	fmul	d4, d2, d2
/*   1447 */	fmadd	d1, d1, d3, d3
/*   1447 */	fmadd	d2, d4, d4, d2
/*   1447 */	fmadd	d1, d2, d1, d3
/*   1447 */	str	d1, [x4, x22, lsl #3]	//  (*)
	.loc 38 1448 0 is_stmt 1
..LDL1419:
/*   1448 */	ldr	x5, [x0, 24]	//  "matrixDiagonal"
	.loc 38 1449 0
..LDL1420:
	.loc 38 1448 0 is_stmt 0
..LDL1421:
/*   1448 */	ldr	d2, [x4, x29, lsl #3]	//  (*)
	.loc 38 1448 0 is_stmt 1
..LDL1422:
/*   1448 */	ldr	x5, [x5, x29, lsl #3]	//  (*)
	.loc 38 1449 0
..LDL1423:
	.loc 38 1448 0 is_stmt 0
..LDL1424:
/*   1448 */	ldr	d1, [x5]	//  (*)
	.loc 38 1449 0
..LDL1425:
/*   1449 */	fmadd	d4, d2, d1, d19
/*   1449 */	frecpe	d3, d1
/*   1449 */	fmsub	d2, d1, d3, d0
/*   1449 */	fmul	d3, d4, d3
/*   1449 */	fmadd	d4, d2, d2, d2
/*   1449 */	fmul	d1, d2, d2
/*   1449 */	fmadd	d4, d4, d3, d3
/*   1449 */	fmadd	d1, d1, d1, d2
/*   1449 */	fmadd	d1, d1, d4, d3
/*   1449 */	str	d1, [x4, x29, lsl #3]	//  (*)
	.loc 38 1450 0 is_stmt 1
..LDL1426:
/*   1450 */	ldr	x5, [x0, 24]	//  "matrixDiagonal"
	.loc 38 1451 0
..LDL1427:
	.loc 38 1450 0 is_stmt 0
..LDL1428:
/*   1450 */	ldr	d2, [x4, x18, lsl #3]	//  (*)
	.loc 38 1450 0 is_stmt 1
..LDL1429:
/*   1450 */	ldr	x5, [x5, x18, lsl #3]	//  (*)
	.loc 38 1451 0
..LDL1430:
	.loc 38 1450 0 is_stmt 0
..LDL1431:
/*   1450 */	ldr	d1, [x5]	//  (*)
	.loc 38 1451 0
..LDL1432:
/*   1451 */	fmadd	d3, d2, d1, d18
/*   1451 */	frecpe	d2, d1
/*   1451 */	fmsub	d1, d1, d2, d0
/*   1451 */	fmul	d2, d3, d2
/*   1451 */	fmadd	d3, d1, d1, d1
/*   1451 */	fmul	d4, d1, d1
/*   1451 */	fmadd	d3, d3, d2, d2
/*   1451 */	fmadd	d1, d4, d4, d1
/*   1451 */	fmadd	d1, d1, d3, d2
/*   1451 */	str	d1, [x4, x18, lsl #3]	//  (*)
	.loc 38 1452 0
..LDL1433:
/*   1452 */	b	.L2644
.L2631:
	.loc 38 1452 0 is_stmt 1
..LDL1434:
	.loc 38 1453 0 is_stmt 0
..LDL1435:
/*   1453 */	ldr	x6, [x0, 16]	//  "rv"
	.loc 38 1456 0
..LDL1436:
/*   1456 */	add	x8, x4, 256
/*   1456 */	sxtw	x5, w7
	.loc 38 1452 0
..LDL1437:
/*   1452 */	cmp	w9, 2
	.loc 38 1453 0
..LDL1438:
/*   1453 */	ldr	d1, [x6, x15, lsl #3]	//  (*)
	.loc 38 1452 0
..LDL1439:
/*   1452 */	beq	.L2638
	.loc 38 1467 0 is_stmt 1
..LDL1440:
/*   1467 */	mov	w6, 0
	.loc 37 1506 0
..LDL1441:
/*   1506 */	ldr	x8, [x8]	//  (*)
/*   1506 */	add	x8, x8, x5, lsl #2
	.loc 38 1467 0
..LDL1442:
/*   1467 */	ldr	w8, [x8]	//  (*)
/*   1467 */	cmp	w8, 0
/*   1467 */	ble	.L2637
/*   1468 */	ldp	x9, x12, [x4, 64]	//  (*)
	.loc 38 1468 0 is_stmt 0
..LDL1443:
/*   1468 */	mov	x8, 0
	.loc 37 1506 0
..LDL1444:
/*   1506 */	ldr	x11, [x4, 256]	//  (*)
	.loc 38 1468 0
..LDL1445:
/*   1468 */	ldr	x10, [x0, 8]	//  "xv"
/*   1468 */	ldr	x4, [x12, x15, lsl #3]	//  (*)
/*   1468 */	ldr	x9, [x9, x15, lsl #3]	//  (*)
	.loc 38 1469 0
..LDL1446:
/*   1469 */	ldr	w5, [x11, x5, lsl #2]	//  (*)
	.p2align 5
.L2635:					// :entr:term
	.loc 38 1468 0 is_stmt 1
..LDL1447:
/*   1468 */	ldrsw	x11, [x9, x8, lsl #2]	//  (*)
/*   1468 */	ldr	d3, [x4, x8, lsl #3]	//  (*)
	.loc 38 1469 0
..LDL1448:
/*   1469 */	add	w6, w6, 1
/*   1469 */	add	x8, x8, 1
/*   1469 */	cmp	w6, w5
	.loc 38 1468 0
..LDL1449:
/*   1468 */	ldr	d2, [x10, x11, lsl #3]	//  (*)
/*   1468 */	fmsub	d1, d3, d2, d1
	.loc 38 1469 0
..LDL1450:
/*   1469 */	blt	.L2635
.L2637:
	.loc 38 1471 0
..LDL1451:
	.loc 38 1470 0 is_stmt 0
..LDL1452:
/*   1470 */	ldr	x4, [x0, 8]	//  "xv"
/*   1470 */	ldr	x5, [x0, 24]	//  "matrixDiagonal"
/*   1470 */	ldr	x5, [x5, x15, lsl #3]	//  (*)
/*   1470 */	ldr	d3, [x4, x15, lsl #3]	//  (*)
/*   1470 */	ldr	d2, [x5]	//  (*)
	.loc 38 1471 0
..LDL1453:
/*   1471 */	fmadd	d4, d3, d2, d1
/*   1471 */	frecpe	d3, d2
/*   1471 */	fmsub	d1, d2, d3, d0
/*   1471 */	fmul	d3, d4, d3
/*   1471 */	fmadd	d4, d1, d1, d1
/*   1471 */	fmul	d2, d1, d1
/*   1471 */	fmadd	d4, d4, d3, d3
/*   1471 */	fmadd	d1, d2, d2, d1
/*   1471 */	fmadd	d1, d1, d4, d3
/*   1471 */	str	d1, [x4, x15, lsl #3]	//  (*)
	.loc 38 1472 0
..LDL1454:
/*   1472 */	b	.L2644
.L2638:
	.loc 38 1454 0 is_stmt 1
..LDL1455:
/*   1454 */	add	x9, x15, 1
	.loc 37 1506 0
..LDL1456:
/*   1506 */	ldr	x8, [x8]	//  (*)
	.loc 38 1454 0
..LDL1457:
/*   1454 */	ldr	d2, [x6, x9, lsl #3]	//  (*)
	.loc 38 1456 0
..LDL1458:
/*   1456 */	mov	w6, 0
	.loc 37 1506 0
..LDL1459:
/*   1506 */	add	x8, x8, x5, lsl #2
	.loc 38 1456 0
..LDL1460:
/*   1456 */	ldr	w8, [x8]	//  (*)
/*   1456 */	cmp	w8, 0
/*   1456 */	ble	.L2643
/*   1457 */	ldp	x13, x12, [x4, 64]	//  (*)
	.loc 38 1457 0 is_stmt 0
..LDL1461:
/*   1457 */	mov	x8, 0
	.loc 37 1506 0
..LDL1462:
/*   1506 */	ldr	x4, [x4, 256]	//  (*)
	.loc 38 1457 0
..LDL1463:
/*   1457 */	ldr	x10, [x0, 8]	//  "xv"
/*   1457 */	ldr	x11, [x12, x15, lsl #3]	//  (*)
/*   1457 */	ldr	x16, [x13, x15, lsl #3]	//  (*)
	.loc 38 1458 0
..LDL1464:
/*   1458 */	ldr	x12, [x12, x9, lsl #3]	//  (*)
/*   1458 */	ldr	x13, [x13, x9, lsl #3]	//  (*)
	.loc 38 1459 0
..LDL1465:
/*   1459 */	ldr	w17, [x4, x5, lsl #2]	//  (*)
	.p2align 5
.L2641:					// :entr:term
	.loc 38 1457 0 is_stmt 1
..LDL1466:
/*   1457 */	ldrsw	x4, [x16, x8, lsl #2]	//  (*)
	.loc 38 1458 0
..LDL1467:
/*   1458 */	ldrsw	x5, [x13, x8, lsl #2]	//  (*)
	.loc 38 1459 0
..LDL1468:
/*   1459 */	add	w6, w6, 1
	.loc 38 1457 0
..LDL1469:
/*   1457 */	ldr	d4, [x11, x8, lsl #3]	//  (*)
	.loc 38 1458 0
..LDL1470:
/*   1458 */	ldr	d5, [x12, x8, lsl #3]	//  (*)
	.loc 38 1459 0
..LDL1471:
/*   1459 */	add	x8, x8, 1
/*   1459 */	cmp	w6, w17
	.loc 38 1457 0
..LDL1472:
/*   1457 */	ldr	d3, [x10, x4, lsl #3]	//  (*)
	.loc 38 1458 0
..LDL1473:
/*   1458 */	ldr	d6, [x10, x5, lsl #3]	//  (*)
	.loc 38 1457 0
..LDL1474:
/*   1457 */	fmsub	d1, d4, d3, d1
	.loc 38 1458 0
..LDL1475:
/*   1458 */	fmsub	d2, d5, d6, d2
	.loc 38 1459 0 is_stmt 0
..LDL1476:
/*   1459 */	blt	.L2641
.L2643:
	.loc 38 1461 0 is_stmt 1
..LDL1477:
	.loc 38 1460 0 is_stmt 0
..LDL1478:
/*   1460 */	ldr	x4, [x0, 8]	//  "xv"
/*   1460 */	ldr	x5, [x0, 24]	//  "matrixDiagonal"
/*   1460 */	ldr	x5, [x5, x15, lsl #3]	//  (*)
/*   1460 */	ldr	d4, [x4, x15, lsl #3]	//  (*)
/*   1460 */	ldr	d3, [x5]	//  (*)
	.loc 38 1461 0
..LDL1479:
/*   1461 */	fmadd	d1, d4, d3, d1
/*   1461 */	frecpe	d4, d3
/*   1461 */	fmsub	d3, d3, d4, d0
/*   1461 */	fmul	d4, d1, d4
/*   1461 */	fmadd	d5, d3, d3, d3
/*   1461 */	fmul	d1, d3, d3
/*   1461 */	fmadd	d5, d5, d4, d4
/*   1461 */	fmadd	d1, d1, d1, d3
/*   1461 */	fmadd	d1, d1, d5, d4
/*   1461 */	str	d1, [x4, x15, lsl #3]	//  (*)
	.loc 38 1462 0 is_stmt 1
..LDL1480:
/*   1462 */	ldr	x5, [x0, 24]	//  "matrixDiagonal"
	.loc 38 1463 0
..LDL1481:
	.loc 38 1462 0 is_stmt 0
..LDL1482:
/*   1462 */	ldr	d3, [x4, x9, lsl #3]	//  (*)
	.loc 38 1462 0 is_stmt 1
..LDL1483:
/*   1462 */	ldr	x5, [x5, x9, lsl #3]	//  (*)
	.loc 38 1463 0
..LDL1484:
	.loc 38 1462 0 is_stmt 0
..LDL1485:
/*   1462 */	ldr	d1, [x5]	//  (*)
	.loc 38 1463 0
..LDL1486:
/*   1463 */	fmadd	d3, d3, d1, d2
/*   1463 */	frecpe	d2, d1
/*   1463 */	fmsub	d1, d1, d2, d0
/*   1463 */	fmul	d2, d3, d2
/*   1463 */	fmadd	d3, d1, d1, d1
/*   1463 */	fmul	d4, d1, d1
/*   1463 */	fmadd	d3, d3, d2, d2
/*   1463 */	fmadd	d1, d4, d4, d1
/*   1463 */	fmadd	d1, d1, d3, d2
/*   1463 */	str	d1, [x4, x9, lsl #3]	//  (*)
.L2644:					// :term
	.loc 38 1473 0 is_stmt 1
..LDL1487:
/*   1473 */	add	w7, w7, 1
/*   1473 */	subs	w14, w14, 1
/*   1473 */	bne	.L2624
.L2646:					// :term
	.loc 38 1474 0
..LDL1488:
/*   1474 */	add	w2, w2, w3
/*   1474 */	cmp	w2, w1
/*   1474 */	ble	.L2621
.L2649:
/*   1474 */	add	x19, sp, 32
/*   1474 */	ldr	x0, [x19, -16]
/*   1474 */	bl	__mpc_obar
/*   1474 */	ldr	x0, [x19, -16]
/*   1474 */	bl	__mpc_obar
/*    ??? */	add	sp, sp, 64
	.cfi_def_cfa_offset 64
/*    ??? */	ldp	x19, x20, [sp, 32]	//  (*)
	.cfi_restore 19
	.cfi_restore 20
/*    ??? */	ldp	x21, x22, [sp, 16]	//  (*)
	.cfi_restore 21
	.cfi_restore 22
/*    ??? */	ldr	x23, [sp, 8]	//  (*)
	.cfi_restore 23
/*    ??? */	ldp	x29, x30, [sp, 48]	//  (*)
	.cfi_restore 29
	.cfi_restore 30
/*   1474 */	add	sp, sp, 64
	.cfi_def_cfa_offset 0
/*   1474 */	ret	
..D17.pchi:
	.cfi_endproc
.LFE16:
	.size	_Z18ComputeSYMGS_BLOCKRK19SparseMatrix_STRUCTRK13Vector_STRUCTRS2_R9TraceData._OMP_11, .-_Z18ComputeSYMGS_BLOCKRK19SparseMatrix_STRUCTRK13Vector_STRUCTRS2_R9TraceData._OMP_11
	.ident	"$Compiler: Fujitsu C/C++ Compiler 4.7.0 (Nov 10 2021 09:37:15) ../src/ComputeSYMGS.cpp _Z18ComputeSYMGS_BLOCKRK19SparseMatrix_STRUCTRK13Vector_STRUCTRS2_R9TraceData._OMP_12 $"
	.text
	.align	2
	.type	_Z18ComputeSYMGS_BLOCKRK19SparseMatrix_STRUCTRK13Vector_STRUCTRS2_R9TraceData._OMP_12, %function
_Z18ComputeSYMGS_BLOCKRK19SparseMatrix_STRUCTRK13Vector_STRUCTRS2_R9TraceData._OMP_12:
	.loc 38 1488 0
..LDL1489:
.LFB17:
	.cfi_startproc
/*   1474 */	sub	sp, sp, 144
	.cfi_def_cfa_offset 144
/*    ??? */	stp	x29, x30, [sp, 128]	//  (*)
	.cfi_offset 29, -16
	.cfi_offset 30, -8
/*    ??? */	stp	x19, x20, [sp, 112]	//  (*)
	.cfi_offset 19, -32
	.cfi_offset 20, -24
/*    ??? */	stp	x21, x22, [sp, 96]	//  (*)
	.cfi_offset 21, -48
	.cfi_offset 22, -40
/*    ??? */	stp	x23, x24, [sp, 80]	//  (*)
	.cfi_offset 23, -64
	.cfi_offset 24, -56
/*    ??? */	stp	x25, x26, [sp, 64]	//  (*)
	.cfi_offset 25, -80
	.cfi_offset 26, -72
/*    ??? */	stp	d8, d9, [sp, 48]	//  (*)
	.cfi_offset 72, -96
	.cfi_offset 73, -88
/*    ??? */	stp	d10, d11, [sp, 32]	//  (*)
	.cfi_offset 74, -112
	.cfi_offset 75, -104
/*    ??? */	stp	d12, d13, [sp, 16]	//  (*)
	.cfi_offset 76, -128
	.cfi_offset 77, -120
/*    ??? */	stp	d14, d15, [sp]	//  (*)
	.cfi_offset 78, -144
	.cfi_offset 79, -136
/*    ??? */	sub	sp, sp, 48
	.cfi_def_cfa_offset 192
/*   1474 */	str	x1, [sp, 32]
/*   1474 */	str	x2, [sp, 24]
/*   1474 */	str	x3, [sp, 16]
/*   1474 */	str	x4, [sp, 8]
	.loc 38 1488 0 is_stmt 0
..LDL1490:
	.loc 38 1488 0 is_stmt 0
..LDL1491:
	.loc 38 1490 0 is_stmt 1
..LDL1492:
/*   1490 */	ldr	w1, [x0, 4]	//  "firstBlock"
/*   1490 */	ldr	x3, [x0, 32]	//  "A"
/*   1490 */	ldr	w2, [x0]	//  "lastBlock"
/*   1490 */	ldr	w25, [x3, 336]	//  (*)
/*   1490 */	cmp	w1, w2
/*   1490 */	neg	w5, w25
/*   1490 */	ble	.L2697
/*   1490 */	sxtw	x2, w2
/*   1490 */	sxtw	x3, w1
/*   1490 */	add	x1, x2, 1
/*   1490 */	sxtw	x2, w5
/*   1490 */	add	x4, sp, 32
/*   1490 */	sub	x1, x1, x3
/*   1490 */	ldr	x5, [x4]
/*   1490 */	sdiv	x1, x1, x2
/*   1490 */	add	x6, x1, 1
/*   1490 */	sdiv	x1, x6, x5
/*   1490 */	msub	x5, x5, x1, x6
/*   1490 */	cbnz	x5, .L2655
/*   1490 */	ldr	x4, [x4, -8]
/*   1490 */	mul	x4, x4, x2
/*   1490 */	madd	x24, x4, x1, x3
/*   1490 */	b	.L2658
.L2655:
/*   1490 */	ldr	x4, [x4, -8]
/*   1490 */	cmp	x4, x5
/*   1490 */	blt	.L2657
/*   1490 */	madd	x4, x4, x1, x5
/*   1490 */	madd	x24, x4, x2, x3
/*   1490 */	b	.L2658
.L2657:
/*   1490 */	add	x1, x1, 1
/*   1490 */	mul	x4, x4, x2
/*   1490 */	madd	x24, x4, x1, x3
.L2658:
/*   1490 */	mul	x3, x2, x1
/*   1490 */	sub	x2, x3, x2
/*   1490 */	add	x26, x2, x24
/*   1490 */	cbz	x1, .L2697
	.loc 38 1507 0 is_stmt 0
..LDL1493:
/*   1507 */	ptrue	p0.d, ALL
	.loc 38 1495 0 is_stmt 1
..LDL1494:
	.loc 38 1508 0 is_stmt 0
..LDL1495:
/*   1508 */	index	z11.d, 0, -1
	.loc 38 1507 0
..LDL1496:
/*   1507 */	mov	x20, 0
	.loc 38 1514 0
..LDL1497:
/*   1514 */	fmov	d13, 1.000000e+00
	.loc 38 1508 0
..LDL1498:
/*   1508 */	fmov	z12.d, 0.000000e+00
.L2660:					// :entr
	.loc 38 1491 0 is_stmt 1
..LDL1499:
/*   1491 */	add	w3, w24, 1
/*   1491 */	ldr	x1, [x0, 32]	//  "A"
/*   1491 */	ldr	w2, [x1, 332]	//  (*)
	.loc 38 1492 0
..LDL1500:
/*   1492 */	ldr	w1, [x1, 336]	//  (*)
	.loc 38 1491 0
..LDL1501:
/*   1491 */	mul	w3, w2, w3
/*   1491 */	sub	w3, w3, 1
	.loc 38 1492 0
..LDL1502:
/*   1492 */	sdiv	w18, w3, w1
	.loc 38 1493 0
..LDL1503:
/*   1493 */	msub	w2, w2, w1, w3
/*   1493 */	sdiv	w1, w2, w1
	.loc 38 1495 0
..LDL1504:
/*   1495 */	add	w2, w1, 1
/*   1495 */	cmp	w18, w1
/*   1495 */	sub	w2, w18, w2
/*   1495 */	add	w23, w2, 1
/*   1495 */	ble	.L2694
.L2663:					// :entr
	.loc 38 1496 0
..LDL1505:
/*   1496 */	ldr	x1, [x0, 32]	//  "A"
	.loc 38 1500 0
..LDL1506:
/*   1500 */	add	w3, w18, 1
	.loc 38 1496 0
..LDL1507:
/*   1496 */	ldr	w2, [x1, 336]	//  (*)
	.loc 38 1500 0
..LDL1508:
/*   1500 */	mul	w3, w3, w2
	.loc 38 1501 0
..LDL1509:
/*   1501 */	cmp	w2, 4
	.loc 38 1500 0
..LDL1510:
/*   1500 */	sub	w3, w3, 1
	.loc 38 1501 0
..LDL1511:
	.loc 38 1502 0 is_stmt 0
..LDL1512:
/*   1502 */	sxtw	x16, w3
	.loc 38 1501 0
..LDL1513:
/*   1501 */	bne	.L2673
	.loc 38 1502 0 is_stmt 1
..LDL1514:
/*   1502 */	ldr	x4, [x0, 16]	//  "rv"
/*   1502 */	sub	x17, x16, 3
	.loc 38 1503 0
..LDL1515:
/*   1503 */	sub	x29, x16, 2
	.loc 37 1506 0
..LDL1516:
/*   1506 */	ldr	x3, [x1, 256]	//  (*)
	.loc 38 1504 0
..LDL1517:
/*   1504 */	sub	x30, x16, 1
	.loc 38 1507 0
..LDL1518:
/*   1507 */	sxtw	x2, w18
	.loc 38 1502 0
..LDL1519:
/*   1502 */	ldr	d14, [x4, x17, lsl #3]	//  (*)
	.loc 38 1503 0
..LDL1520:
/*   1503 */	ldr	d10, [x4, x29, lsl #3]	//  (*)
	.loc 38 1504 0
..LDL1521:
/*   1504 */	ldr	d9, [x4, x30, lsl #3]	//  (*)
	.loc 38 1505 0
..LDL1522:
/*   1505 */	ldr	d15, [x4, x16, lsl #3]	//  (*)
	.loc 38 1507 0
..LDL1523:
/*   1507 */	ldr	w3, [x3, x2, lsl #2]	//  (*)
/*   1507 */	sub	w2, w3, 1
/*   1507 */	cmp	w3, 0
/*   1507 */	csel	w3, w3, wzr, ge
/*   1507 */	cmp	w2, 0
/*   1507 */	blt	.L2672
/*   1508 */	ldp	x1, x4, [x1, 64]	//  (*)
	.loc 38 1508 0 is_stmt 0
..LDL1524:
/*   1508 */	sxtw	x22, w2
	.loc 38 1507 0
..LDL1525:
/*   1507 */	asr	w2, w3, 2
/*   1507 */	add	w2, w3, w2, lsr #29
/*   1507 */	asr	w19, w2, 3
/*   1507 */	sub	w21, w3, w19, lsl #3
	.loc 38 1508 0
..LDL1526:
/*   1508 */	ldr	x12, [x4, x17, lsl #3]	//  (*)
/*   1508 */	ldr	x14, [x1, x17, lsl #3]	//  (*)
	.loc 38 1509 0
..LDL1527:
/*   1509 */	ldr	x9, [x4, x29, lsl #3]	//  (*)
/*   1509 */	ldr	x15, [x1, x29, lsl #3]	//  (*)
	.loc 38 1510 0
..LDL1528:
/*   1510 */	ldr	x11, [x4, x30, lsl #3]	//  (*)
/*   1510 */	ldr	x10, [x1, x30, lsl #3]	//  (*)
	.loc 38 1511 0
..LDL1529:
/*   1511 */	ldr	x13, [x4, x16, lsl #3]	//  (*)
/*   1511 */	ldr	x8, [x1, x16, lsl #3]	//  (*)
	.loc 38 1507 0
..LDL1530:
/*   1507 */	cbz	w19, .L2669
	.loc 38 1508 0
..LDL1531:
/*   1508 */	ldr	x7, [x0, 8]	//  "xv"
/*   1508 */	mov	w1, w19
/*   1508 */	mov	z2.d, z12.d
/*   1508 */	mov	z1.d, z12.d
/*   1508 */	mov	x2, x22
/*   1508 */	mov	z0.d, z12.d
/*   1508 */	mov	z3.d, z12.d
	.loc 38 1507 0
..LDL1532:
/*   1507 */	cmp	w1, 4
/*   1507 */	blt	.L2939
	.loc 38 1508 0
..LDL1533:
/*   1508 */	mov	x4, x2
	.loc 38 1507 0
..LDL1534:
/*   1507 */	sub	x2, x2, 8
	.loc 38 1508 0
..LDL1535:
/*   1508 */	add	x5, x14, x4, lsl #2
/*   1508 */	mov	x3, x2
/*   1508 */	ld1sw	{z20.d}, p0/z, [x5, z11.d, lsl #2]	//  (*)
	.loc 38 1509 0
..LDL1536:
/*   1509 */	add	x5, x15, x4, lsl #2
/*   1509 */	ld1sw	{z18.d}, p0/z, [x5, z11.d, lsl #2]	//  (*)
	.loc 38 1510 0
..LDL1537:
/*   1510 */	add	x5, x10, x4, lsl #2
/*   1510 */	ld1sw	{z4.d}, p0/z, [x5, z11.d, lsl #2]	//  (*)
	.loc 38 1511 0
..LDL1538:
/*   1511 */	add	x5, x8, x4, lsl #2
/*   1511 */	ld1sw	{z21.d}, p0/z, [x5, z11.d, lsl #2]	//  (*)
	.loc 38 1508 0
..LDL1539:
/*   1508 */	add	x6, x14, x3, lsl #2
/*   1508 */	add	x5, x12, x4, lsl #3
/*   1508 */	ld1sw	{z16.d}, p0/z, [x6, z11.d, lsl #2]	//  (*)
	.loc 38 1509 0
..LDL1540:
/*   1509 */	add	x6, x15, x3, lsl #2
	.loc 38 1508 0
..LDL1541:
/*   1508 */	ld1d	{z19.d}, p0/z, [x5, z11.d, lsl #3]	//  (*)
	.loc 38 1509 0
..LDL1542:
/*   1509 */	add	x5, x9, x4, lsl #3
/*   1509 */	ld1sw	{z6.d}, p0/z, [x6, z11.d, lsl #2]	//  (*)
	.loc 38 1510 0
..LDL1543:
/*   1510 */	add	x6, x10, x3, lsl #2
	.loc 38 1509 0
..LDL1544:
/*   1509 */	ld1d	{z17.d}, p0/z, [x5, z11.d, lsl #3]	//  (*)
	.loc 38 1510 0
..LDL1545:
/*   1510 */	ld1sw	{z5.d}, p0/z, [x6, z11.d, lsl #2]	//  (*)
/*   1510 */	add	x5, x11, x4, lsl #3
/*   1510 */	ld1d	{z7.d}, p0/z, [x5, z11.d, lsl #3]	//  (*)
	.loc 38 1511 0
..LDL1546:
/*   1511 */	add	x4, x13, x4, lsl #3
	.loc 38 1508 0
..LDL1547:
/*   1508 */	ld1d	{z20.d}, p0/z, [x7, z20.d, lsl #3]	//  (*)
	.loc 38 1509 0
..LDL1548:
/*   1509 */	ld1d	{z18.d}, p0/z, [x7, z18.d, lsl #3]	//  (*)
	.loc 38 1510 0
..LDL1549:
/*   1510 */	ld1d	{z4.d}, p0/z, [x7, z4.d, lsl #3]	//  (*)
	.p2align 5
.L2667:					// :entr:term:swpl
	.loc 38 1511 0
..LDL1550:
/*   1511 */	add	x5, x8, x3, lsl #2
/*   1511 */	ld1d	{z21.d}, p0/z, [x7, z21.d, lsl #3]	//  (*)
/*   1511 */	ld1d	{z22.d}, p0/z, [x4, z11.d, lsl #3]	//  (*)
/*   1511 */	ld1sw	{z23.d}, p0/z, [x5, z11.d, lsl #2]	//  (*)
	.loc 38 1507 0
..LDL1551:
/*   1507 */	sub	x4, x2, 8
	.loc 38 1508 0
..LDL1552:
/*   1508 */	add	x5, x14, x4, lsl #2
/*   1508 */	add	x6, x12, x3, lsl #3
/*   1508 */	ld1sw	{z30.d}, p0/z, [x5, z11.d, lsl #2]	//  (*)
	.loc 38 1509 0
..LDL1553:
/*   1509 */	add	x5, x15, x4, lsl #2
	.loc 38 1508 0
..LDL1554:
/*   1508 */	ld1d	{z26.d}, p0/z, [x7, z16.d, lsl #3]	//  (*)
/*   1508 */	ld1d	{z28.d}, p0/z, [x6, z11.d, lsl #3]	//  (*)
	.loc 38 1509 0
..LDL1555:
/*   1509 */	add	x6, x9, x3, lsl #3
/*   1509 */	ld1sw	{z8.d}, p0/z, [x5, z11.d, lsl #2]	//  (*)
/*   1509 */	ld1d	{z31.d}, p0/z, [x7, z6.d, lsl #3]	//  (*)
	.loc 38 1510 0
..LDL1556:
/*   1510 */	add	x5, x10, x4, lsl #2
	.loc 38 1509 0
..LDL1557:
/*   1509 */	ld1d	{z29.d}, p0/z, [x6, z11.d, lsl #3]	//  (*)
	.loc 38 1510 0
..LDL1558:
/*   1510 */	ld1sw	{z27.d}, p0/z, [x5, z11.d, lsl #2]	//  (*)
/*   1510 */	add	x5, x11, x3, lsl #3
	.loc 38 1508 0
..LDL1559:
/*   1508 */	fmls	z2.d, p0/m, z19.d, z20.d
	.loc 38 1510 0
..LDL1560:
/*   1510 */	ld1d	{z25.d}, p0/z, [x7, z5.d, lsl #3]	//  (*)
	.loc 38 1509 0
..LDL1561:
/*   1509 */	fmls	z1.d, p0/m, z17.d, z18.d
	.loc 38 1510 0
..LDL1562:
/*   1510 */	ld1d	{z24.d}, p0/z, [x5, z11.d, lsl #3]	//  (*)
	.loc 38 1511 0
..LDL1563:
/*   1511 */	add	x5, x13, x3, lsl #3
	.loc 38 1510 0
..LDL1564:
/*   1510 */	fmls	z0.d, p0/m, z7.d, z4.d
	.loc 38 1511 0
..LDL1565:
/*   1511 */	fmls	z3.d, p0/m, z22.d, z21.d
/*   1511 */	add	x3, x8, x4, lsl #2
/*   1511 */	ld1d	{z22.d}, p0/z, [x7, z23.d, lsl #3]	//  (*)
/*   1511 */	ld1d	{z23.d}, p0/z, [x5, z11.d, lsl #3]	//  (*)
/*   1511 */	ld1sw	{z21.d}, p0/z, [x3, z11.d, lsl #2]	//  (*)
	.loc 38 1507 0
..LDL1566:
/*   1507 */	sub	x2, x2, 16
	.loc 38 1508 0
..LDL1567:
/*   1508 */	mov	x3, x2
/*   1508 */	add	x6, x14, x3, lsl #2
/*   1508 */	add	x5, x12, x4, lsl #3
/*   1508 */	ld1sw	{z16.d}, p0/z, [x6, z11.d, lsl #2]	//  (*)
	.loc 38 1509 0
..LDL1568:
/*   1509 */	add	x6, x15, x3, lsl #2
	.loc 38 1508 0
..LDL1569:
/*   1508 */	ld1d	{z20.d}, p0/z, [x7, z30.d, lsl #3]	//  (*)
/*   1508 */	ld1d	{z19.d}, p0/z, [x5, z11.d, lsl #3]	//  (*)
	.loc 38 1509 0
..LDL1570:
/*   1509 */	add	x5, x9, x4, lsl #3
/*   1509 */	ld1sw	{z6.d}, p0/z, [x6, z11.d, lsl #2]	//  (*)
/*   1509 */	ld1d	{z18.d}, p0/z, [x7, z8.d, lsl #3]	//  (*)
	.loc 38 1510 0
..LDL1571:
/*   1510 */	add	x6, x10, x3, lsl #2
	.loc 38 1509 0
..LDL1572:
/*   1509 */	ld1d	{z17.d}, p0/z, [x5, z11.d, lsl #3]	//  (*)
	.loc 38 1510 0
..LDL1573:
/*   1510 */	ld1sw	{z5.d}, p0/z, [x6, z11.d, lsl #2]	//  (*)
/*   1510 */	add	x5, x11, x4, lsl #3
	.loc 38 1508 0
..LDL1574:
/*   1508 */	fmls	z2.d, p0/m, z28.d, z26.d
	.loc 38 1510 0
..LDL1575:
/*   1510 */	ld1d	{z4.d}, p0/z, [x7, z27.d, lsl #3]	//  (*)
	.loc 38 1509 0
..LDL1576:
/*   1509 */	fmls	z1.d, p0/m, z29.d, z31.d
	.loc 38 1510 0
..LDL1577:
/*   1510 */	ld1d	{z7.d}, p0/z, [x5, z11.d, lsl #3]	//  (*)
	.loc 38 1511 0
..LDL1578:
/*   1511 */	add	x4, x13, x4, lsl #3
	.loc 38 1510 0
..LDL1579:
/*   1510 */	fmls	z0.d, p0/m, z24.d, z25.d
	.loc 38 1511 0
..LDL1580:
/*   1511 */	fmls	z3.d, p0/m, z23.d, z22.d
	.loc 38 1507 0
..LDL1581:
/*   1507 */	sub	w1, w1, 2
/*   1507 */	cmp	w1, 4
/*   1507 */	bge	.L2667
	.loc 38 1511 0
..LDL1582:
/*   1511 */	ld1d	{z22.d}, p0/z, [x7, z21.d, lsl #3]	//  (*)
	.loc 38 1508 0
..LDL1583:
/*   1508 */	movprfx	z21.d, p0/z, z2.d
/*   1508 */	fmls	z21.d, p0/m, z19.d, z20.d
	.loc 38 1507 0
..LDL1584:
/*   1507 */	sub	x2, x2, 8
/*   1507 */	sub	w1, w1, 2
	.loc 38 1511 0
..LDL1585:
/*   1511 */	ld1d	{z19.d}, p0/z, [x4, z11.d, lsl #3]	//  (*)
	.loc 38 1509 0
..LDL1586:
/*   1509 */	fmsb	z18.d, p0/m, z17.d, z1.d
	.loc 38 1508 0
..LDL1587:
/*   1508 */	add	x4, x12, x3, lsl #3
	.loc 38 1510 0
..LDL1588:
/*   1510 */	movprfx	z17.d, p0/z, z0.d
/*   1510 */	fmls	z17.d, p0/m, z7.d, z4.d
	.loc 38 1508 0
..LDL1589:
/*   1508 */	ld1d	{z2.d}, p0/z, [x4, z11.d, lsl #3]	//  (*)
	.loc 38 1509 0
..LDL1590:
/*   1509 */	add	x4, x9, x3, lsl #3
	.loc 38 1510 0
..LDL1591:
/*   1510 */	ld1d	{z4.d}, p0/z, [x7, z5.d, lsl #3]	//  (*)
	.loc 38 1511 0
..LDL1592:
/*   1511 */	add	x5, x8, x3, lsl #2
	.loc 38 1509 0
..LDL1593:
/*   1509 */	ld1d	{z1.d}, p0/z, [x4, z11.d, lsl #3]	//  (*)
	.loc 38 1508 0
..LDL1594:
/*   1508 */	ld1d	{z7.d}, p0/z, [x7, z16.d, lsl #3]	//  (*)
	.loc 38 1511 0
..LDL1595:
/*   1511 */	ld1sw	{z20.d}, p0/z, [x5, z11.d, lsl #2]	//  (*)
	.loc 38 1510 0
..LDL1596:
/*   1510 */	add	x4, x11, x3, lsl #3
	.loc 38 1509 0
..LDL1597:
/*   1509 */	ld1d	{z6.d}, p0/z, [x7, z6.d, lsl #3]	//  (*)
	.loc 38 1510 0
..LDL1598:
/*   1510 */	ld1d	{z0.d}, p0/z, [x4, z11.d, lsl #3]	//  (*)
	.loc 38 1511 0
..LDL1599:
/*   1511 */	add	x3, x13, x3, lsl #3
/*   1511 */	ld1d	{z5.d}, p0/z, [x3, z11.d, lsl #3]	//  (*)
/*   1511 */	fmsb	z19.d, p0/m, z22.d, z3.d
	.loc 38 1508 0
..LDL1600:
/*   1508 */	fmsb	z2.d, p0/m, z7.d, z21.d
	.loc 38 1511 0
..LDL1601:
/*   1511 */	ld1d	{z3.d}, p0/z, [x7, z20.d, lsl #3]	//  (*)
	.loc 38 1509 0
..LDL1602:
/*   1509 */	fmsb	z1.d, p0/m, z6.d, z18.d
	.loc 38 1510 0
..LDL1603:
/*   1510 */	fmsb	z0.d, p0/m, z4.d, z17.d
	.loc 38 1511 0
..LDL1604:
/*   1511 */	fmsb	z3.d, p0/m, z5.d, z19.d
	.loc 38 1507 0
..LDL1605:
/*   1507 */	cbz	w1, .L2936
.L2939:
	.p2align 5
.L2942:					// :entr:term:mod:swpl
	.loc 38 1508 0 is_stmt 1
..LDL1606:
/*   1508 */	mov	x3, x2
	.loc 38 1507 0 is_stmt 0
..LDL1607:
/*   1507 */	sub	x2, x2, 8
	.loc 38 1508 0
..LDL1608:
/*   1508 */	add	x4, x14, x3, lsl #2
	.loc 38 1507 0
..LDL1609:
/*   1507 */	subs	w1, w1, 1
	.loc 38 1508 0
..LDL1610:
/*   1508 */	ld1sw	{z7.d}, p0/z, [x4, z11.d, lsl #2]	//  (*)
	.loc 38 1509 0 is_stmt 1
..LDL1611:
/*   1509 */	add	x4, x15, x3, lsl #2
/*   1509 */	ld1sw	{z19.d}, p0/z, [x4, z11.d, lsl #2]	//  (*)
	.loc 38 1510 0
..LDL1612:
/*   1510 */	add	x4, x10, x3, lsl #2
/*   1510 */	ld1sw	{z18.d}, p0/z, [x4, z11.d, lsl #2]	//  (*)
	.loc 38 1508 0
..LDL1613:
/*   1508 */	add	x4, x12, x3, lsl #3
/*   1508 */	ld1d	{z16.d}, p0/z, [x4, z11.d, lsl #3]	//  (*)
	.loc 38 1509 0
..LDL1614:
/*   1509 */	add	x4, x9, x3, lsl #3
	.loc 38 1511 0
..LDL1615:
/*   1511 */	add	x5, x8, x3, lsl #2
	.loc 38 1509 0
..LDL1616:
/*   1509 */	ld1d	{z5.d}, p0/z, [x4, z11.d, lsl #3]	//  (*)
	.loc 38 1511 0
..LDL1617:
/*   1511 */	ld1sw	{z17.d}, p0/z, [x5, z11.d, lsl #2]	//  (*)
	.loc 38 1510 0
..LDL1618:
/*   1510 */	add	x4, x11, x3, lsl #3
/*   1510 */	ld1d	{z4.d}, p0/z, [x4, z11.d, lsl #3]	//  (*)
	.loc 38 1511 0
..LDL1619:
/*   1511 */	add	x3, x13, x3, lsl #3
/*   1511 */	ld1d	{z6.d}, p0/z, [x3, z11.d, lsl #3]	//  (*)
	.loc 38 1508 0
..LDL1620:
/*   1508 */	ld1d	{z7.d}, p0/z, [x7, z7.d, lsl #3]	//  (*)
	.loc 38 1509 0
..LDL1621:
/*   1509 */	ld1d	{z19.d}, p0/z, [x7, z19.d, lsl #3]	//  (*)
	.loc 38 1510 0
..LDL1622:
/*   1510 */	ld1d	{z18.d}, p0/z, [x7, z18.d, lsl #3]	//  (*)
	.loc 38 1511 0
..LDL1623:
/*   1511 */	ld1d	{z17.d}, p0/z, [x7, z17.d, lsl #3]	//  (*)
	.loc 38 1508 0
..LDL1624:
/*   1508 */	fmls	z2.d, p0/m, z16.d, z7.d
	.loc 38 1509 0
..LDL1625:
/*   1509 */	fmls	z1.d, p0/m, z5.d, z19.d
	.loc 38 1510 0
..LDL1626:
/*   1510 */	fmls	z0.d, p0/m, z4.d, z18.d
	.loc 38 1511 0
..LDL1627:
/*   1511 */	fmls	z3.d, p0/m, z6.d, z17.d
	.loc 38 1507 0 is_stmt 0
..LDL1628:
/*   1507 */	bne	.L2942
.L2936:
	.loc 38 1511 0
..LDL1629:
/*   1511 */	movprfx	z6, z3
/*   1511 */	ext	z6.b, z6.b, z3.b, 32
	.loc 38 1510 0
..LDL1630:
/*   1510 */	movprfx	z7, z0
/*   1510 */	ext	z7.b, z7.b, z0.b, 32
	.loc 38 1509 0
..LDL1631:
/*   1509 */	movprfx	z5, z1
/*   1509 */	ext	z5.b, z5.b, z1.b, 32
	.loc 38 1508 0
..LDL1632:
/*   1508 */	movprfx	z4, z2
/*   1508 */	ext	z4.b, z4.b, z2.b, 32
	.loc 38 1511 0
..LDL1633:
/*   1511 */	fadd	z6.d, z6.d, z3.d
	.loc 38 1510 0
..LDL1634:
/*   1510 */	fadd	z3.d, z7.d, z0.d
	.loc 38 1509 0
..LDL1635:
/*   1509 */	fadd	z0.d, z5.d, z1.d
	.loc 38 1508 0
..LDL1636:
/*   1508 */	fadd	z5.d, z4.d, z2.d
	.loc 38 1511 0
..LDL1637:
/*   1511 */	movprfx	z7, z6
/*   1511 */	ext	z7.b, z7.b, z6.b, 16
	.loc 38 1510 0
..LDL1638:
/*   1510 */	movprfx	z2, z3
/*   1510 */	ext	z2.b, z2.b, z3.b, 16
	.loc 38 1509 0
..LDL1639:
/*   1509 */	movprfx	z4, z0
/*   1509 */	ext	z4.b, z4.b, z0.b, 16
	.loc 38 1508 0
..LDL1640:
/*   1508 */	movprfx	z1, z5
/*   1508 */	ext	z1.b, z1.b, z5.b, 16
	.loc 38 1511 0
..LDL1641:
/*   1511 */	fadd	z7.d, z6.d, z7.d
	.loc 38 1510 0
..LDL1642:
/*   1510 */	fadd	z2.d, z3.d, z2.d
	.loc 38 1509 0
..LDL1643:
/*   1509 */	fadd	z0.d, z0.d, z4.d
	.loc 38 1508 0
..LDL1644:
/*   1508 */	fadd	z4.d, z5.d, z1.d
	.loc 38 1511 0
..LDL1645:
/*   1511 */	movprfx	z1, z7
/*   1511 */	ext	z1.b, z1.b, z7.b, 8
	.loc 38 1510 0
..LDL1646:
/*   1510 */	movprfx	z3, z2
/*   1510 */	ext	z3.b, z3.b, z2.b, 8
	.loc 38 1509 0
..LDL1647:
/*   1509 */	movprfx	z6, z0
/*   1509 */	ext	z6.b, z6.b, z0.b, 8
	.loc 38 1508 0
..LDL1648:
/*   1508 */	movprfx	z5, z4
/*   1508 */	ext	z5.b, z5.b, z4.b, 8
	.loc 38 1511 0
..LDL1649:
/*   1511 */	fadd	z1.d, z7.d, z1.d
	.loc 38 1510 0
..LDL1650:
/*   1510 */	fadd	z3.d, z2.d, z3.d
	.loc 38 1509 0
..LDL1651:
/*   1509 */	fadd	z2.d, z0.d, z6.d
	.loc 38 1508 0
..LDL1652:
/*   1508 */	fadd	z0.d, z4.d, z5.d
	.loc 38 1511 0
..LDL1653:
/*   1511 */	fadd	d15, d15, d1
	.loc 38 1510 0
..LDL1654:
/*   1510 */	fadd	d9, d9, d3
	.loc 38 1509 0
..LDL1655:
/*   1509 */	fadd	d10, d10, d2
	.loc 38 1508 0
..LDL1656:
/*   1508 */	fadd	d14, d14, d0
.L2669:
	.loc 38 1507 0 is_stmt 1
..LDL1657:
/*   1507 */	sbfiz	x1, x19, 3, 32
/*   1507 */	sub	x1, x20, x1
/*   1507 */	add	x1, x1, x22
/*   1507 */	cbz	w21, .L2672
/*   1507 */	whilelt	p1.d, wzr, w21
	.loc 38 1508 0
..LDL1658:
/*   1508 */	ldr	x4, [x0, 8]	//  "xv"
	.loc 38 1509 0
..LDL1659:
/*   1509 */	add	x2, x15, x1, lsl #2
/*   1509 */	ld1sw	{z6.d}, p1/z, [x2, z11.d, lsl #2]	//  (*)
	.loc 38 1510 0
..LDL1660:
/*   1510 */	add	x2, x10, x1, lsl #2
/*   1510 */	ld1sw	{z5.d}, p1/z, [x2, z11.d, lsl #2]	//  (*)
	.loc 38 1508 0
..LDL1661:
/*   1508 */	add	x2, x12, x1, lsl #3
/*   1508 */	add	x3, x14, x1, lsl #2
/*   1508 */	ld1d	{z3.d}, p1/z, [x2, z11.d, lsl #3]	//  (*)
/*   1508 */	ld1sw	{z7.d}, p1/z, [x3, z11.d, lsl #2]	//  (*)
	.loc 38 1509 0
..LDL1662:
/*   1509 */	add	x2, x9, x1, lsl #3
	.loc 38 1511 0
..LDL1663:
/*   1511 */	add	x3, x8, x1, lsl #2
	.loc 38 1509 0
..LDL1664:
/*   1509 */	ld1d	{z2.d}, p1/z, [x2, z11.d, lsl #3]	//  (*)
	.loc 38 1511 0
..LDL1665:
/*   1511 */	ld1sw	{z4.d}, p1/z, [x3, z11.d, lsl #2]	//  (*)
	.loc 38 1510 0
..LDL1666:
/*   1510 */	add	x2, x11, x1, lsl #3
/*   1510 */	ld1d	{z1.d}, p1/z, [x2, z11.d, lsl #3]	//  (*)
	.loc 38 1511 0
..LDL1667:
/*   1511 */	add	x1, x13, x1, lsl #3
/*   1511 */	ld1d	{z0.d}, p1/z, [x1, z11.d, lsl #3]	//  (*)
	.loc 38 1509 0
..LDL1668:
/*   1509 */	ld1d	{z6.d}, p1/z, [x4, z6.d, lsl #3]	//  (*)
	.loc 38 1510 0
..LDL1669:
/*   1510 */	ld1d	{z5.d}, p1/z, [x4, z5.d, lsl #3]	//  (*)
	.loc 38 1508 0
..LDL1670:
/*   1508 */	ld1d	{z7.d}, p1/z, [x4, z7.d, lsl #3]	//  (*)
	.loc 38 1511 0
..LDL1671:
/*   1511 */	ld1d	{z4.d}, p1/z, [x4, z4.d, lsl #3]	//  (*)
	.loc 38 1509 0
..LDL1672:
/*   1509 */	fmsb	z2.d, p1/m, z6.d, z12.d
	.loc 38 1510 0
..LDL1673:
/*   1510 */	fmsb	z1.d, p1/m, z5.d, z12.d
	.loc 38 1508 0
..LDL1674:
/*   1508 */	fmsb	z3.d, p1/m, z7.d, z12.d
	.loc 38 1509 0 is_stmt 0
..LDL1675:
/*   1509 */	sel	z2.d, p1, z2.d, z12.d
	.loc 38 1511 0 is_stmt 1
..LDL1676:
/*   1511 */	fmsb	z0.d, p1/m, z4.d, z12.d
	.loc 38 1510 0 is_stmt 0
..LDL1677:
/*   1510 */	sel	z1.d, p1, z1.d, z12.d
	.loc 38 1508 0
..LDL1678:
/*   1508 */	sel	z3.d, p1, z3.d, z12.d
	.loc 38 1510 0
..LDL1679:
/*   1510 */	movprfx	z6, z1
/*   1510 */	ext	z6.b, z6.b, z1.b, 32
	.loc 38 1511 0
..LDL1680:
/*   1511 */	sel	z4.d, p1, z0.d, z12.d
	.loc 38 1509 0
..LDL1681:
/*   1509 */	movprfx	z0, z2
/*   1509 */	ext	z0.b, z0.b, z2.b, 32
	.loc 38 1510 0
..LDL1682:
/*   1510 */	fadd	z1.d, z1.d, z6.d
	.loc 38 1508 0
..LDL1683:
/*   1508 */	movprfx	z7, z3
/*   1508 */	ext	z7.b, z7.b, z3.b, 32
	.loc 38 1511 0
..LDL1684:
/*   1511 */	movprfx	z5, z4
/*   1511 */	ext	z5.b, z5.b, z4.b, 32
	.loc 38 1509 0
..LDL1685:
/*   1509 */	fadd	z0.d, z2.d, z0.d
	.loc 38 1508 0
..LDL1686:
/*   1508 */	fadd	z3.d, z3.d, z7.d
	.loc 38 1511 0
..LDL1687:
/*   1511 */	fadd	z6.d, z4.d, z5.d
	.loc 38 1510 0
..LDL1688:
/*   1510 */	movprfx	z4, z1
/*   1510 */	ext	z4.b, z4.b, z1.b, 16
	.loc 38 1509 0
..LDL1689:
/*   1509 */	movprfx	z5, z0
/*   1509 */	ext	z5.b, z5.b, z0.b, 16
	.loc 38 1510 0
..LDL1690:
/*   1510 */	fadd	z1.d, z1.d, z4.d
	.loc 38 1508 0
..LDL1691:
/*   1508 */	movprfx	z7, z3
/*   1508 */	ext	z7.b, z7.b, z3.b, 16
	.loc 38 1511 0
..LDL1692:
/*   1511 */	movprfx	z2, z6
/*   1511 */	ext	z2.b, z2.b, z6.b, 16
	.loc 38 1509 0
..LDL1693:
/*   1509 */	fadd	z0.d, z0.d, z5.d
	.loc 38 1508 0
..LDL1694:
/*   1508 */	fadd	z3.d, z3.d, z7.d
	.loc 38 1511 0
..LDL1695:
/*   1511 */	fadd	z5.d, z6.d, z2.d
	.loc 38 1510 0
..LDL1696:
/*   1510 */	movprfx	z6, z1
/*   1510 */	ext	z6.b, z6.b, z1.b, 8
	.loc 38 1509 0
..LDL1697:
/*   1509 */	movprfx	z2, z0
/*   1509 */	ext	z2.b, z2.b, z0.b, 8
	.loc 38 1510 0
..LDL1698:
/*   1510 */	fadd	z1.d, z1.d, z6.d
	.loc 38 1508 0
..LDL1699:
/*   1508 */	movprfx	z7, z3
/*   1508 */	ext	z7.b, z7.b, z3.b, 8
	.loc 38 1511 0
..LDL1700:
/*   1511 */	movprfx	z4, z5
/*   1511 */	ext	z4.b, z4.b, z5.b, 8
	.loc 38 1509 0
..LDL1701:
/*   1509 */	fadd	z2.d, z0.d, z2.d
	.loc 38 1508 0
..LDL1702:
/*   1508 */	fadd	z3.d, z3.d, z7.d
	.loc 38 1511 0
..LDL1703:
/*   1511 */	fadd	z0.d, z5.d, z4.d
	.loc 38 1510 0
..LDL1704:
/*   1510 */	fadd	d9, d9, d1
	.loc 38 1509 0
..LDL1705:
/*   1509 */	fadd	d10, d10, d2
	.loc 38 1508 0
..LDL1706:
/*   1508 */	fadd	d14, d14, d3
	.loc 38 1511 0
..LDL1707:
/*   1511 */	fadd	d15, d15, d0
.L2672:
	.loc 38 1514 0 is_stmt 1
..LDL1708:
	.loc 38 1513 0 is_stmt 0
..LDL1709:
/*   1513 */	ldr	x1, [x0, 8]	//  "xv"
/*   1513 */	ldr	x2, [x0, 24]	//  "matrixDiagonal"
/*   1513 */	ldr	x2, [x2, x17, lsl #3]	//  (*)
/*   1513 */	ldr	d1, [x1, x17, lsl #3]	//  (*)
/*   1513 */	ldr	d0, [x2]	//  (*)
	.loc 38 1514 0
..LDL1710:
/*   1514 */	fmadd	d1, d1, d0, d14
/*   1514 */	frecpe	d2, d0
/*   1514 */	fmsub	d0, d0, d2, d13
/*   1514 */	fmul	d1, d1, d2
/*   1514 */	fmadd	d2, d0, d0, d0
/*   1514 */	fmul	d3, d0, d0
/*   1514 */	fmadd	d2, d2, d1, d1
/*   1514 */	fmadd	d0, d3, d3, d0
/*   1514 */	fmadd	d0, d0, d2, d1
/*   1514 */	str	d0, [x1, x17, lsl #3]	//  (*)
	.loc 38 1516 0 is_stmt 1
..LDL1711:
/*   1516 */	ldr	x2, [x0, 24]	//  "matrixDiagonal"
	.loc 38 1517 0
..LDL1712:
	.loc 38 1516 0 is_stmt 0
..LDL1713:
/*   1516 */	ldr	d1, [x1, x29, lsl #3]	//  (*)
	.loc 38 1516 0 is_stmt 1
..LDL1714:
/*   1516 */	ldr	x2, [x2, x29, lsl #3]	//  (*)
	.loc 38 1517 0
..LDL1715:
	.loc 38 1516 0 is_stmt 0
..LDL1716:
/*   1516 */	ldr	d0, [x2]	//  (*)
	.loc 38 1517 0
..LDL1717:
/*   1517 */	fmadd	d1, d1, d0, d10
/*   1517 */	frecpe	d2, d0
/*   1517 */	fmsub	d0, d0, d2, d13
/*   1517 */	fmul	d3, d1, d2
/*   1517 */	fmadd	d2, d0, d0, d0
/*   1517 */	fmul	d1, d0, d0
/*   1517 */	fmadd	d2, d2, d3, d3
/*   1517 */	fmadd	d0, d1, d1, d0
/*   1517 */	fmadd	d0, d0, d2, d3
/*   1517 */	str	d0, [x1, x29, lsl #3]	//  (*)
	.loc 38 1519 0 is_stmt 1
..LDL1718:
/*   1519 */	ldr	x2, [x0, 24]	//  "matrixDiagonal"
	.loc 38 1520 0
..LDL1719:
	.loc 38 1519 0 is_stmt 0
..LDL1720:
/*   1519 */	ldr	d1, [x1, x30, lsl #3]	//  (*)
	.loc 38 1519 0 is_stmt 1
..LDL1721:
/*   1519 */	ldr	x2, [x2, x30, lsl #3]	//  (*)
	.loc 38 1520 0
..LDL1722:
	.loc 38 1519 0 is_stmt 0
..LDL1723:
/*   1519 */	ldr	d0, [x2]	//  (*)
	.loc 38 1520 0
..LDL1724:
/*   1520 */	fmadd	d2, d1, d0, d9
/*   1520 */	frecpe	d1, d0
/*   1520 */	fmsub	d0, d0, d1, d13
/*   1520 */	fmul	d2, d2, d1
/*   1520 */	fmadd	d1, d0, d0, d0
/*   1520 */	fmul	d3, d0, d0
/*   1520 */	fmadd	d1, d1, d2, d2
/*   1520 */	fmadd	d0, d3, d3, d0
/*   1520 */	fmadd	d0, d0, d1, d2
/*   1520 */	str	d0, [x1, x30, lsl #3]	//  (*)
	.loc 38 1522 0 is_stmt 1
..LDL1725:
/*   1522 */	ldr	x2, [x0, 24]	//  "matrixDiagonal"
	.loc 38 1523 0
..LDL1726:
	.loc 38 1522 0 is_stmt 0
..LDL1727:
/*   1522 */	ldr	d1, [x1, x16, lsl #3]	//  (*)
	.loc 38 1522 0 is_stmt 1
..LDL1728:
/*   1522 */	ldr	x2, [x2, x16, lsl #3]	//  (*)
	.loc 38 1523 0
..LDL1729:
	.loc 38 1522 0 is_stmt 0
..LDL1730:
/*   1522 */	ldr	d0, [x2]	//  (*)
	.loc 38 1523 0
..LDL1731:
/*   1523 */	fmadd	d2, d1, d0, d15
/*   1523 */	frecpe	d1, d0
/*   1523 */	fmsub	d0, d0, d1, d13
/*   1523 */	fmul	d1, d2, d1
/*   1523 */	fmadd	d2, d0, d0, d0
/*   1523 */	fmul	d3, d0, d0
/*   1523 */	fmadd	d2, d2, d1, d1
/*   1523 */	fmadd	d0, d3, d3, d0
/*   1523 */	fmadd	d0, d0, d2, d1
/*   1523 */	str	d0, [x1, x16, lsl #3]	//  (*)
	.loc 38 1524 0
..LDL1732:
/*   1524 */	b	.L2692
.L2673:
	.loc 38 1524 0 is_stmt 1
..LDL1733:
	.loc 38 1528 0 is_stmt 0
..LDL1734:
/*   1528 */	add	x4, x1, 256
/*   1528 */	sxtw	x3, w18
	.loc 38 1524 0
..LDL1735:
/*   1524 */	cmp	w2, 2
/*   1524 */	beq	.L2683
	.loc 38 1539 0 is_stmt 1
..LDL1736:
/*   1539 */	ldr	x5, [x0, 16]	//  "rv"
	.loc 37 1506 0
..LDL1737:
/*   1506 */	ldr	x2, [x4]	//  (*)
	.loc 38 1539 0
..LDL1738:
/*   1539 */	ldr	d14, [x5, x16, lsl #3]	//  (*)
	.loc 38 1541 0
..LDL1739:
/*   1541 */	ldr	w3, [x2, x3, lsl #2]	//  (*)
/*   1541 */	sub	w2, w3, 1
/*   1541 */	cmp	w3, 0
/*   1541 */	csel	w3, w3, wzr, ge
/*   1541 */	cmp	w2, 0
/*   1541 */	blt	.L2682
/*   1542 */	ldp	x1, x4, [x1, 64]	//  (*)
	.loc 38 1542 0 is_stmt 0
..LDL1740:
/*   1542 */	sxtw	x17, w2
	.loc 38 1541 0
..LDL1741:
/*   1541 */	asr	w2, w3, 2
/*   1541 */	add	w2, w3, w2, lsr #29
/*   1541 */	asr	w29, w2, 3
/*   1541 */	sub	w30, w3, w29, lsl #3
	.loc 38 1542 0
..LDL1742:
/*   1542 */	ldr	x14, [x4, x16, lsl #3]	//  (*)
/*   1542 */	ldr	x15, [x1, x16, lsl #3]	//  (*)
	.loc 38 1541 0
..LDL1743:
/*   1541 */	cbz	w29, .L2679
/*   1541 */	sub	w4, w29, 8
/*   1541 */	mov	x1, x17
/*   1541 */	mov	z0.d, z12.d
/*   1541 */	cmp	w4, 0
/*   1541 */	blt	.L2710
	.loc 38 1542 0
..LDL1744:
/*   1542 */	ldr	x13, [x0, 8]	//  "xv"
/*   1542 */	lsl	x3, x17, 3
/*   1542 */	mov	z16.d, z12.d
/*   1542 */	mov	z17.d, z12.d
/*   1542 */	lsl	x2, x17, 2
/*   1542 */	sub	x5, x3, 192
/*   1542 */	mov	z18.d, z12.d
/*   1542 */	mov	z19.d, z12.d
/*   1542 */	mov	z3.d, z12.d
/*   1542 */	mov	z2.d, z12.d
/*   1542 */	add	x2, x2, x15
/*   1542 */	mov	z7.d, z12.d
/*   1542 */	mov	z6.d, z12.d
/*   1542 */	add	x3, x3, x14
/*   1542 */	add	x5, x5, x14
	.loc 38 1541 0
..LDL1745:
/*   1541 */	cmp	w4, 16
/*   1541 */	blt	.L2950
	.loc 38 1542 0
..LDL1746:
/*   1542 */	ld1sw	{z24.d}, p0/z, [x2, z11.d, lsl #2]	//  (*)
/*   1542 */	sub	x7, x2, 32
/*   1542 */	sub	x6, x2, 64
	.loc 38 1543 0
..LDL1747:
/*   1543 */	mov	z0.d, z6.d
	.loc 38 1542 0
..LDL1748:
/*   1542 */	ld1sw	{z29.d}, p0/z, [x7, z11.d, lsl #2]	//  (*)
/*   1542 */	sub	x9, x2, 96
/*   1542 */	sub	x7, x2, 128
	.loc 38 1543 0
..LDL1749:
/*   1543 */	mov	z1.d, z7.d
	.loc 38 1542 0
..LDL1750:
/*   1542 */	ld1sw	{z28.d}, p0/z, [x6, z11.d, lsl #2]	//  (*)
/*   1542 */	sub	x8, x2, 160
	.loc 38 1543 0
..LDL1751:
/*   1543 */	mov	x6, x5
	.loc 38 1542 0
..LDL1752:
/*   1542 */	ld1sw	{z27.d}, p0/z, [x9, z11.d, lsl #2]	//  (*)
	.loc 38 1543 0
..LDL1753:
/*   1543 */	mov	z4.d, z19.d
	.loc 38 1542 0
..LDL1754:
/*   1542 */	ld1sw	{z26.d}, p0/z, [x7, z11.d, lsl #2]	//  (*)
	.loc 38 1543 0
..LDL1755:
/*   1543 */	mov	z5.d, z18.d
	.loc 38 1542 0
..LDL1756:
/*   1542 */	ld1sw	{z25.d}, p0/z, [x8, z11.d, lsl #2]	//  (*)
	.loc 38 1543 0
..LDL1757:
/*   1543 */	mov	z22.d, z17.d
/*   1543 */	mov	z23.d, z16.d
	.p2align 5
.L2677:					// :entr:term:body:swpl
	.loc 38 1542 0
..LDL1758:
/*   1542 */	sub	x5, x2, 192
/*   1542 */	ld1sw	{z7.d}, p0/z, [x5, z11.d, lsl #2]	//  (*)
/*   1542 */	sub	x5, x2, 224
/*   1542 */	ld1sw	{z6.d}, p0/z, [x5, z11.d, lsl #2]	//  (*)
/*   1542 */	ld1d	{z10.d}, p0/z, [x13, z24.d, lsl #3]	//  (*)
/*   1542 */	ld1d	{z21.d}, p0/z, [x3, z11.d, lsl #3]	//  (*)
/*   1542 */	ld1d	{z30.d}, p0/z, [x13, z29.d, lsl #3]	//  (*)
/*   1542 */	sub	x5, x3, 64
/*   1542 */	ld1d	{z20.d}, p0/z, [x5, z11.d, lsl #3]	//  (*)
/*   1542 */	ld1d	{z29.d}, p0/z, [x13, z28.d, lsl #3]	//  (*)
/*   1542 */	sub	x5, x3, 128
/*   1542 */	ld1d	{z19.d}, p0/z, [x5, z11.d, lsl #3]	//  (*)
/*   1542 */	ld1d	{z28.d}, p0/z, [x13, z27.d, lsl #3]	//  (*)
/*   1542 */	ld1d	{z18.d}, p0/z, [x6, z11.d, lsl #3]	//  (*)
/*   1542 */	ld1d	{z27.d}, p0/z, [x13, z26.d, lsl #3]	//  (*)
/*   1542 */	sub	x5, x6, 64
/*   1542 */	ld1d	{z17.d}, p0/z, [x5, z11.d, lsl #3]	//  (*)
/*   1542 */	ld1d	{z26.d}, p0/z, [x13, z25.d, lsl #3]	//  (*)
/*   1542 */	sub	x5, x6, 128
/*   1542 */	ld1d	{z16.d}, p0/z, [x5, z11.d, lsl #3]	//  (*)
/*   1542 */	ld1d	{z25.d}, p0/z, [x13, z7.d, lsl #3]	//  (*)
/*   1542 */	sub	x5, x6, 192
/*   1542 */	ld1d	{z7.d}, p0/z, [x5, z11.d, lsl #3]	//  (*)
/*   1542 */	ld1d	{z24.d}, p0/z, [x13, z6.d, lsl #3]	//  (*)
/*   1542 */	sub	x5, x6, 256
/*   1542 */	ld1d	{z6.d}, p0/z, [x5, z11.d, lsl #3]	//  (*)
	.loc 38 1543 0
..LDL1759:
/*   1543 */	sub	x5, x2, 256
	.loc 38 1542 0
..LDL1760:
/*   1542 */	ld1sw	{z8.d}, p0/z, [x5, z11.d, lsl #2]	//  (*)
/*   1542 */	sub	x5, x2, 288
/*   1542 */	ld1sw	{z9.d}, p0/z, [x5, z11.d, lsl #2]	//  (*)
/*   1542 */	sub	x5, x2, 320
/*   1542 */	ld1sw	{z31.d}, p0/z, [x5, z11.d, lsl #2]	//  (*)
/*   1542 */	fmsb	z21.d, p0/m, z10.d, z23.d
/*   1542 */	sub	x5, x2, 352
/*   1542 */	fmsb	z20.d, p0/m, z30.d, z22.d
/*   1542 */	ld1sw	{z30.d}, p0/z, [x5, z11.d, lsl #2]	//  (*)
/*   1542 */	fmsb	z19.d, p0/m, z29.d, z5.d
/*   1542 */	sub	x5, x2, 384
/*   1542 */	fmsb	z18.d, p0/m, z28.d, z4.d
/*   1542 */	ld1sw	{z29.d}, p0/z, [x5, z11.d, lsl #2]	//  (*)
/*   1542 */	fmsb	z17.d, p0/m, z27.d, z3.d
/*   1542 */	sub	x5, x2, 416
/*   1542 */	ld1sw	{z28.d}, p0/z, [x5, z11.d, lsl #2]	//  (*)
/*   1542 */	fmsb	z16.d, p0/m, z26.d, z2.d
	.loc 38 1543 0
..LDL1761:
/*   1543 */	sub	x5, x6, 512
/*   1543 */	sub	x7, x3, 512
	.loc 38 1542 0
..LDL1762:
/*   1542 */	fmsb	z7.d, p0/m, z25.d, z1.d
/*   1542 */	fmsb	z6.d, p0/m, z24.d, z0.d
/*   1542 */	sub	x8, x2, 448
/*   1542 */	ld1sw	{z1.d}, p0/z, [x8, z11.d, lsl #2]	//  (*)
/*   1542 */	sub	x8, x2, 480
/*   1542 */	ld1sw	{z0.d}, p0/z, [x8, z11.d, lsl #2]	//  (*)
/*   1542 */	ld1d	{z23.d}, p0/z, [x13, z8.d, lsl #3]	//  (*)
/*   1542 */	ld1d	{z22.d}, p0/z, [x7, z11.d, lsl #3]	//  (*)
/*   1542 */	ld1d	{z27.d}, p0/z, [x13, z9.d, lsl #3]	//  (*)
/*   1542 */	sub	x7, x3, 576
/*   1542 */	ld1d	{z10.d}, p0/z, [x7, z11.d, lsl #3]	//  (*)
/*   1542 */	ld1d	{z9.d}, p0/z, [x13, z31.d, lsl #3]	//  (*)
/*   1542 */	sub	x7, x3, 640
/*   1542 */	ld1d	{z5.d}, p0/z, [x7, z11.d, lsl #3]	//  (*)
/*   1542 */	ld1d	{z26.d}, p0/z, [x13, z30.d, lsl #3]	//  (*)
/*   1542 */	ld1d	{z4.d}, p0/z, [x5, z11.d, lsl #3]	//  (*)
/*   1542 */	ld1d	{z25.d}, p0/z, [x13, z29.d, lsl #3]	//  (*)
/*   1542 */	sub	x5, x6, 576
/*   1542 */	ld1d	{z3.d}, p0/z, [x5, z11.d, lsl #3]	//  (*)
/*   1542 */	ld1d	{z8.d}, p0/z, [x13, z28.d, lsl #3]	//  (*)
/*   1542 */	sub	x5, x6, 640
/*   1542 */	ld1d	{z2.d}, p0/z, [x5, z11.d, lsl #3]	//  (*)
/*   1542 */	ld1d	{z31.d}, p0/z, [x13, z1.d, lsl #3]	//  (*)
/*   1542 */	sub	x5, x6, 704
/*   1542 */	ld1d	{z1.d}, p0/z, [x5, z11.d, lsl #3]	//  (*)
/*   1542 */	ld1d	{z30.d}, p0/z, [x13, z0.d, lsl #3]	//  (*)
/*   1542 */	sub	x5, x6, 768
/*   1542 */	ld1d	{z0.d}, p0/z, [x5, z11.d, lsl #3]	//  (*)
	.loc 38 1543 0
..LDL1763:
/*   1543 */	sub	x2, x2, 512
	.loc 38 1542 0
..LDL1764:
/*   1542 */	ld1sw	{z24.d}, p0/z, [x2, z11.d, lsl #2]	//  (*)
/*   1542 */	sub	x5, x2, 32
/*   1542 */	ld1sw	{z29.d}, p0/z, [x5, z11.d, lsl #2]	//  (*)
/*   1542 */	sub	x5, x2, 64
/*   1542 */	ld1sw	{z28.d}, p0/z, [x5, z11.d, lsl #2]	//  (*)
/*   1542 */	fmsb	z23.d, p0/m, z22.d, z21.d
/*   1542 */	sub	x5, x2, 96
/*   1542 */	movprfx	z22.d, p0/z, z20.d
/*   1542 */	fmls	z22.d, p0/m, z10.d, z27.d
/*   1542 */	ld1sw	{z27.d}, p0/z, [x5, z11.d, lsl #2]	//  (*)
/*   1542 */	fmsb	z5.d, p0/m, z9.d, z19.d
/*   1542 */	sub	x5, x2, 128
/*   1542 */	fmsb	z4.d, p0/m, z26.d, z18.d
/*   1542 */	ld1sw	{z26.d}, p0/z, [x5, z11.d, lsl #2]	//  (*)
/*   1542 */	fmsb	z3.d, p0/m, z25.d, z17.d
/*   1542 */	sub	x5, x2, 160
	.loc 38 1541 0
..LDL1765:
/*   1541 */	sub	x1, x1, 128
	.loc 38 1542 0
..LDL1766:
/*   1542 */	ld1sw	{z25.d}, p0/z, [x5, z11.d, lsl #2]	//  (*)
/*   1542 */	fmsb	z2.d, p0/m, z8.d, z16.d
	.loc 38 1543 0
..LDL1767:
/*   1543 */	sub	x6, x6, 1024
/*   1543 */	sub	x3, x3, 1024
	.loc 38 1542 0
..LDL1768:
/*   1542 */	fmsb	z1.d, p0/m, z31.d, z7.d
/*   1542 */	fmsb	z0.d, p0/m, z30.d, z6.d
	.loc 38 1543 0
..LDL1769:
/*   1543 */	sub	w4, w4, 16
	.loc 38 1541 0
..LDL1770:
/*   1541 */	cmp	w4, 16
/*   1541 */	bge	.L2677
	.loc 38 1542 0
..LDL1771:
/*   1542 */	sub	x7, x2, 192
/*   1542 */	sub	x5, x2, 224
/*   1542 */	ld1d	{z30.d}, p0/z, [x13, z24.d, lsl #3]	//  (*)
/*   1542 */	sub	x10, x3, 64
/*   1542 */	sub	x11, x3, 128
/*   1542 */	ld1d	{z20.d}, p0/z, [x13, z27.d, lsl #3]	//  (*)
/*   1542 */	ld1sw	{z8.d}, p0/z, [x7, z11.d, lsl #2]	//  (*)
/*   1542 */	sub	x7, x6, 64
/*   1542 */	sub	x9, x6, 128
/*   1542 */	ld1sw	{z31.d}, p0/z, [x5, z11.d, lsl #2]	//  (*)
/*   1542 */	sub	x12, x6, 192
/*   1542 */	sub	x8, x6, 256
/*   1542 */	ld1d	{z24.d}, p0/z, [x13, z29.d, lsl #3]	//  (*)
	.loc 38 1543 0
..LDL1772:
/*   1543 */	sub	x2, x2, 256
/*   1543 */	sub	w4, w4, 8
	.loc 38 1541 0
..LDL1773:
/*   1541 */	sub	x1, x1, 64
	.loc 38 1543 0
..LDL1774:
/*   1543 */	sub	x5, x6, 512
	.loc 38 1542 0
..LDL1775:
/*   1542 */	ld1d	{z21.d}, p0/z, [x13, z28.d, lsl #3]	//  (*)
	.loc 38 1543 0
..LDL1776:
/*   1543 */	cmp	w4, 0
	.loc 38 1542 0
..LDL1777:
/*   1542 */	ld1d	{z27.d}, p0/z, [x13, z26.d, lsl #3]	//  (*)
/*   1542 */	ld1d	{z16.d}, p0/z, [x3, z11.d, lsl #3]	//  (*)
	.loc 38 1543 0
..LDL1778:
/*   1543 */	sub	x3, x3, 512
	.loc 38 1542 0
..LDL1779:
/*   1542 */	ld1d	{z17.d}, p0/z, [x10, z11.d, lsl #3]	//  (*)
/*   1542 */	ld1d	{z18.d}, p0/z, [x11, z11.d, lsl #3]	//  (*)
/*   1542 */	ld1d	{z19.d}, p0/z, [x6, z11.d, lsl #3]	//  (*)
/*   1542 */	ld1d	{z26.d}, p0/z, [x7, z11.d, lsl #3]	//  (*)
/*   1542 */	ld1d	{z25.d}, p0/z, [x13, z25.d, lsl #3]	//  (*)
/*   1542 */	ld1d	{z9.d}, p0/z, [x9, z11.d, lsl #3]	//  (*)
/*   1542 */	ld1d	{z7.d}, p0/z, [x12, z11.d, lsl #3]	//  (*)
/*   1542 */	ld1d	{z6.d}, p0/z, [x8, z11.d, lsl #3]	//  (*)
/*   1542 */	ld1d	{z29.d}, p0/z, [x13, z8.d, lsl #3]	//  (*)
/*   1542 */	ld1d	{z28.d}, p0/z, [x13, z31.d, lsl #3]	//  (*)
/*   1542 */	fmsb	z16.d, p0/m, z30.d, z23.d
/*   1542 */	fmsb	z17.d, p0/m, z24.d, z22.d
/*   1542 */	fmsb	z18.d, p0/m, z21.d, z5.d
/*   1542 */	fmsb	z19.d, p0/m, z20.d, z4.d
/*   1542 */	fmls	z3.d, p0/m, z26.d, z27.d
/*   1542 */	fmls	z2.d, p0/m, z9.d, z25.d
/*   1542 */	fmsb	z7.d, p0/m, z29.d, z1.d
/*   1542 */	fmsb	z6.d, p0/m, z28.d, z0.d
	.loc 38 1543 0
..LDL1780:
/*   1543 */	blt	.L2947
.L2950:
	.p2align 5
.L2953:					// :entr:term:mod:swpl
	.loc 38 1542 0 is_stmt 1
..LDL1781:
/*   1542 */	ld1sw	{z23.d}, p0/z, [x2, z11.d, lsl #2]	//  (*)
/*   1542 */	sub	x7, x2, 32
/*   1542 */	sub	x10, x2, 128
/*   1542 */	sub	x6, x2, 64
/*   1542 */	ld1sw	{z31.d}, p0/z, [x7, z11.d, lsl #2]	//  (*)
/*   1542 */	sub	x12, x2, 192
/*   1542 */	sub	x7, x2, 96
/*   1542 */	sub	x8, x2, 160
/*   1542 */	ld1sw	{z5.d}, p0/z, [x10, z11.d, lsl #2]	//  (*)
/*   1542 */	sub	x11, x3, 64
/*   1542 */	sub	x9, x2, 224
/*   1542 */	ld1sw	{z1.d}, p0/z, [x12, z11.d, lsl #2]	//  (*)
/*   1542 */	ld1sw	{z25.d}, p0/z, [x6, z11.d, lsl #2]	//  (*)
/*   1542 */	sub	x6, x3, 128
/*   1542 */	sub	x10, x5, 192
/*   1542 */	ld1sw	{z21.d}, p0/z, [x7, z11.d, lsl #2]	//  (*)
/*   1542 */	sub	x7, x5, 64
/*   1542 */	sub	x12, x5, 256
/*   1542 */	ld1sw	{z20.d}, p0/z, [x8, z11.d, lsl #2]	//  (*)
/*   1542 */	sub	x8, x5, 128
	.loc 38 1541 0 is_stmt 0
..LDL1782:
/*   1541 */	sub	x1, x1, 64
	.loc 38 1542 0
..LDL1783:
/*   1542 */	ld1sw	{z4.d}, p0/z, [x9, z11.d, lsl #2]	//  (*)
	.loc 38 1543 0
..LDL1784:
/*   1543 */	sub	x2, x2, 256
/*   1543 */	subs	w4, w4, 8
	.loc 38 1542 0
..LDL1785:
/*   1542 */	ld1d	{z24.d}, p0/z, [x3, z11.d, lsl #3]	//  (*)
	.loc 38 1543 0
..LDL1786:
/*   1543 */	sub	x3, x3, 512
	.loc 38 1542 0
..LDL1787:
/*   1542 */	ld1d	{z22.d}, p0/z, [x11, z11.d, lsl #3]	//  (*)
/*   1542 */	ld1d	{z0.d}, p0/z, [x6, z11.d, lsl #3]	//  (*)
/*   1542 */	ld1d	{z26.d}, p0/z, [x5, z11.d, lsl #3]	//  (*)
	.loc 38 1543 0
..LDL1788:
/*   1543 */	sub	x5, x5, 512
	.loc 38 1542 0
..LDL1789:
/*   1542 */	ld1d	{z30.d}, p0/z, [x7, z11.d, lsl #3]	//  (*)
/*   1542 */	ld1d	{z29.d}, p0/z, [x8, z11.d, lsl #3]	//  (*)
/*   1542 */	ld1d	{z27.d}, p0/z, [x10, z11.d, lsl #3]	//  (*)
/*   1542 */	ld1d	{z28.d}, p0/z, [x12, z11.d, lsl #3]	//  (*)
/*   1542 */	ld1d	{z23.d}, p0/z, [x13, z23.d, lsl #3]	//  (*)
/*   1542 */	ld1d	{z8.d}, p0/z, [x13, z31.d, lsl #3]	//  (*)
/*   1542 */	ld1d	{z31.d}, p0/z, [x13, z5.d, lsl #3]	//  (*)
/*   1542 */	ld1d	{z5.d}, p0/z, [x13, z1.d, lsl #3]	//  (*)
/*   1542 */	ld1d	{z25.d}, p0/z, [x13, z25.d, lsl #3]	//  (*)
/*   1542 */	ld1d	{z21.d}, p0/z, [x13, z21.d, lsl #3]	//  (*)
/*   1542 */	ld1d	{z20.d}, p0/z, [x13, z20.d, lsl #3]	//  (*)
/*   1542 */	ld1d	{z1.d}, p0/z, [x13, z4.d, lsl #3]	//  (*)
/*   1542 */	fmls	z16.d, p0/m, z24.d, z23.d
/*   1542 */	fmls	z17.d, p0/m, z22.d, z8.d
/*   1542 */	fmls	z3.d, p0/m, z30.d, z31.d
/*   1542 */	fmls	z7.d, p0/m, z27.d, z5.d
/*   1542 */	fmls	z18.d, p0/m, z0.d, z25.d
/*   1542 */	fmls	z19.d, p0/m, z26.d, z21.d
/*   1542 */	fmls	z2.d, p0/m, z29.d, z20.d
/*   1542 */	fmls	z6.d, p0/m, z28.d, z1.d
	.loc 38 1543 0
..LDL1790:
/*   1543 */	bpl	.L2953
.L2947:
	.loc 38 1542 0
..LDL1791:
/*   1542 */	fadd	z4.d, z6.d, z7.d
/*   1542 */	fadd	z0.d, z2.d, z3.d
/*   1542 */	fadd	z2.d, z19.d, z18.d
/*   1542 */	fadd	z1.d, z16.d, z17.d
/*   1542 */	fadd	z0.d, z0.d, z4.d
/*   1542 */	fadd	z1.d, z1.d, z2.d
/*   1542 */	fadd	z0.d, z1.d, z0.d
.L2710:
	.loc 38 1541 0 is_stmt 1
..LDL1792:
/*   1541 */	adds	w2, w4, 7
/*   1541 */	bmi	.L2678
	.loc 38 1542 0 is_stmt 0
..LDL1793:
/*   1542 */	ldr	x5, [x0, 8]	//  "xv"
	.p2align 5
.L2722:					// :entr:term:mod
	.loc 38 1542 0 is_stmt 1
..LDL1794:
/*   1542 */	index	z1.d, 0, -1
/*   1542 */	mov	x3, x1
	.loc 38 1541 0 is_stmt 0
..LDL1795:
/*   1541 */	sub	x1, x1, 8
	.loc 38 1542 0
..LDL1796:
/*   1542 */	add	x4, x15, x3, lsl #2
	.loc 38 1543 0
..LDL1797:
/*   1543 */	subs	w2, w2, 1
	.loc 38 1542 0
..LDL1798:
/*   1542 */	add	x3, x14, x3, lsl #3
/*   1542 */	ld1sw	{z2.d}, p0/z, [x4, z1.d, lsl #2]	//  (*)
/*   1542 */	ld1d	{z1.d}, p0/z, [x3, z1.d, lsl #3]	//  (*)
/*   1542 */	ld1d	{z2.d}, p0/z, [x5, z2.d, lsl #3]	//  (*)
/*   1542 */	fmls	z0.d, p0/m, z1.d, z2.d
	.loc 38 1541 0
..LDL1799:
/*   1541 */	bpl	.L2722
.L2678:
	.loc 38 1542 0
..LDL1800:
/*   1542 */	movprfx	z1, z0
/*   1542 */	ext	z1.b, z1.b, z0.b, 32
/*   1542 */	fadd	z0.d, z1.d, z0.d
/*   1542 */	movprfx	z1, z0
/*   1542 */	ext	z1.b, z1.b, z0.b, 16
/*   1542 */	fadd	z1.d, z0.d, z1.d
/*   1542 */	movprfx	z0, z1
/*   1542 */	ext	z0.b, z0.b, z1.b, 8
/*   1542 */	fadd	z0.d, z1.d, z0.d
/*   1542 */	fadd	d14, d14, d0
.L2679:
	.loc 38 1541 0 is_stmt 1
..LDL1801:
/*   1541 */	sbfiz	x1, x29, 3, 32
/*   1541 */	sub	x1, x20, x1
/*   1541 */	add	x1, x1, x17
/*   1541 */	cbz	w30, .L2682
/*   1541 */	whilelt	p1.d, wzr, w30
	.loc 38 1542 0
..LDL1802:
/*   1542 */	ldr	x3, [x0, 8]	//  "xv"
/*   1542 */	add	x2, x15, x1, lsl #2
/*   1542 */	add	x1, x14, x1, lsl #3
/*   1542 */	ld1sw	{z1.d}, p1/z, [x2, z11.d, lsl #2]	//  (*)
/*   1542 */	ld1d	{z0.d}, p1/z, [x1, z11.d, lsl #3]	//  (*)
/*   1542 */	ld1d	{z1.d}, p1/z, [x3, z1.d, lsl #3]	//  (*)
/*   1542 */	fmsb	z0.d, p1/m, z1.d, z12.d
/*   1542 */	sel	z0.d, p1, z0.d, z12.d
/*   1542 */	movprfx	z1, z0
/*   1542 */	ext	z1.b, z1.b, z0.b, 32
/*   1542 */	fadd	z1.d, z0.d, z1.d
/*   1542 */	movprfx	z0, z1
/*   1542 */	ext	z0.b, z0.b, z1.b, 16
/*   1542 */	fadd	z1.d, z1.d, z0.d
/*   1542 */	movprfx	z0, z1
/*   1542 */	ext	z0.b, z0.b, z1.b, 8
/*   1542 */	fadd	z0.d, z1.d, z0.d
/*   1542 */	fadd	d14, d14, d0
.L2682:
	.loc 38 1546 0
..LDL1803:
	.loc 38 1545 0 is_stmt 0
..LDL1804:
/*   1545 */	ldr	x1, [x0, 8]	//  "xv"
/*   1545 */	ldr	x2, [x0, 24]	//  "matrixDiagonal"
/*   1545 */	ldr	x2, [x2, x16, lsl #3]	//  (*)
/*   1545 */	ldr	d1, [x1, x16, lsl #3]	//  (*)
/*   1545 */	ldr	d0, [x2]	//  (*)
	.loc 38 1546 0
..LDL1805:
/*   1546 */	fmadd	d2, d1, d0, d14
/*   1546 */	frecpe	d1, d0
/*   1546 */	fmsub	d0, d0, d1, d13
/*   1546 */	fmul	d1, d2, d1
/*   1546 */	fmadd	d3, d0, d0, d0
/*   1546 */	fmul	d2, d0, d0
/*   1546 */	fmadd	d3, d3, d1, d1
/*   1546 */	fmadd	d0, d2, d2, d0
/*   1546 */	fmadd	d0, d0, d3, d1
/*   1546 */	str	d0, [x1, x16, lsl #3]	//  (*)
	.loc 38 1547 0
..LDL1806:
/*   1547 */	b	.L2692
.L2683:
	.loc 38 1525 0 is_stmt 1
..LDL1807:
/*   1525 */	ldr	x2, [x0, 16]	//  "rv"
/*   1525 */	sub	x17, x16, 1
	.loc 37 1506 0
..LDL1808:
/*   1506 */	ldr	x4, [x4]	//  (*)
	.loc 38 1525 0
..LDL1809:
/*   1525 */	ldr	d14, [x2, x17, lsl #3]	//  (*)
	.loc 38 1526 0
..LDL1810:
/*   1526 */	ldr	d15, [x2, x16, lsl #3]	//  (*)
	.loc 38 1528 0
..LDL1811:
/*   1528 */	ldr	w3, [x4, x3, lsl #2]	//  (*)
/*   1528 */	sub	w2, w3, 1
/*   1528 */	cmp	w3, 0
/*   1528 */	csel	w3, w3, wzr, ge
/*   1528 */	cmp	w2, 0
/*   1528 */	blt	.L2691
/*   1529 */	ldp	x1, x4, [x1, 64]	//  (*)
	.loc 38 1529 0 is_stmt 0
..LDL1812:
/*   1529 */	sxtw	x29, w2
	.loc 38 1528 0
..LDL1813:
/*   1528 */	asr	w2, w3, 2
/*   1528 */	add	w2, w3, w2, lsr #29
/*   1528 */	asr	w30, w2, 3
/*   1528 */	sub	w19, w3, w30, lsl #3
	.loc 38 1529 0
..LDL1814:
/*   1529 */	ldr	x14, [x4, x17, lsl #3]	//  (*)
/*   1529 */	ldr	x12, [x1, x17, lsl #3]	//  (*)
	.loc 38 1530 0
..LDL1815:
/*   1530 */	ldr	x15, [x4, x16, lsl #3]	//  (*)
/*   1530 */	ldr	x13, [x1, x16, lsl #3]	//  (*)
	.loc 38 1528 0
..LDL1816:
/*   1528 */	cbz	w30, .L2688
/*   1528 */	sub	w6, w30, 4
/*   1528 */	mov	x1, x29
/*   1528 */	mov	z0.d, z12.d
/*   1528 */	mov	z1.d, z12.d
/*   1528 */	cmp	w6, 0
/*   1528 */	blt	.L2700
	.loc 38 1529 0
..LDL1817:
/*   1529 */	ldr	x11, [x0, 8]	//  "xv"
/*   1529 */	lsl	x3, x29, 2
	.loc 38 1530 0
..LDL1818:
/*   1530 */	mov	z7.d, z12.d
/*   1530 */	mov	z16.d, z12.d
	.loc 38 1529 0
..LDL1819:
/*   1529 */	lsl	x2, x29, 3
	.loc 38 1530 0
..LDL1820:
/*   1530 */	mov	z17.d, z12.d
/*   1530 */	mov	z4.d, z12.d
	.loc 38 1529 0
..LDL1821:
/*   1529 */	add	x5, x3, x12
	.loc 38 1530 0
..LDL1822:
/*   1530 */	mov	z3.d, z12.d
/*   1530 */	mov	z2.d, z12.d
	.loc 38 1529 0
..LDL1823:
/*   1529 */	add	x4, x2, x14
	.loc 38 1530 0
..LDL1824:
/*   1530 */	add	x3, x3, x13
/*   1530 */	mov	z18.d, z12.d
/*   1530 */	mov	z19.d, z12.d
/*   1530 */	add	x2, x2, x15
	.loc 38 1528 0
..LDL1825:
/*   1528 */	cmp	w6, 8
/*   1528 */	blt	.L2961
	.loc 38 1529 0
..LDL1826:
/*   1529 */	ld1sw	{z29.d}, p0/z, [x5, z11.d, lsl #2]	//  (*)
/*   1529 */	sub	x9, x5, 32
	.loc 38 1530 0
..LDL1827:
/*   1530 */	sub	x7, x3, 32
/*   1530 */	ld1sw	{z23.d}, p0/z, [x3, z11.d, lsl #2]	//  (*)
	.loc 38 1529 0
..LDL1828:
/*   1529 */	sub	x10, x5, 64
	.loc 38 1530 0
..LDL1829:
/*   1530 */	sub	x8, x3, 64
	.loc 38 1531 0
..LDL1830:
/*   1531 */	mov	z0.d, z19.d
	.loc 38 1529 0
..LDL1831:
/*   1529 */	ld1sw	{z24.d}, p0/z, [x9, z11.d, lsl #2]	//  (*)
	.loc 38 1531 0
..LDL1832:
/*   1531 */	mov	z1.d, z18.d
	.loc 38 1530 0
..LDL1833:
/*   1530 */	ld1sw	{z25.d}, p0/z, [x7, z11.d, lsl #2]	//  (*)
	.loc 38 1529 0
..LDL1834:
/*   1529 */	ld1sw	{z28.d}, p0/z, [x10, z11.d, lsl #2]	//  (*)
	.loc 38 1531 0
..LDL1835:
/*   1531 */	mov	z5.d, z17.d
	.loc 38 1530 0
..LDL1836:
/*   1530 */	ld1sw	{z27.d}, p0/z, [x8, z11.d, lsl #2]	//  (*)
	.loc 38 1531 0
..LDL1837:
/*   1531 */	mov	z6.d, z16.d
/*   1531 */	mov	z26.d, z7.d
	.p2align 5
.L2686:					// :entr:term:body:swpl
	.loc 38 1529 0
..LDL1838:
/*   1529 */	sub	x7, x5, 96
/*   1529 */	ld1sw	{z16.d}, p0/z, [x7, z11.d, lsl #2]	//  (*)
	.loc 38 1530 0
..LDL1839:
/*   1530 */	sub	x7, x3, 96
/*   1530 */	ld1sw	{z7.d}, p0/z, [x7, z11.d, lsl #2]	//  (*)
	.loc 38 1529 0
..LDL1840:
/*   1529 */	ld1d	{z22.d}, p0/z, [x11, z29.d, lsl #3]	//  (*)
/*   1529 */	ld1d	{z8.d}, p0/z, [x4, z11.d, lsl #3]	//  (*)
	.loc 38 1530 0
..LDL1841:
/*   1530 */	ld1d	{z31.d}, p0/z, [x11, z23.d, lsl #3]	//  (*)
/*   1530 */	ld1d	{z21.d}, p0/z, [x2, z11.d, lsl #3]	//  (*)
	.loc 38 1529 0
..LDL1842:
/*   1529 */	ld1d	{z30.d}, p0/z, [x11, z24.d, lsl #3]	//  (*)
/*   1529 */	sub	x7, x4, 64
/*   1529 */	ld1d	{z20.d}, p0/z, [x7, z11.d, lsl #3]	//  (*)
	.loc 38 1530 0
..LDL1843:
/*   1530 */	ld1d	{z29.d}, p0/z, [x11, z25.d, lsl #3]	//  (*)
/*   1530 */	sub	x7, x2, 64
/*   1530 */	ld1d	{z19.d}, p0/z, [x7, z11.d, lsl #3]	//  (*)
	.loc 38 1529 0
..LDL1844:
/*   1529 */	ld1d	{z28.d}, p0/z, [x11, z28.d, lsl #3]	//  (*)
/*   1529 */	sub	x7, x4, 128
/*   1529 */	ld1d	{z18.d}, p0/z, [x7, z11.d, lsl #3]	//  (*)
	.loc 38 1530 0
..LDL1845:
/*   1530 */	ld1d	{z25.d}, p0/z, [x11, z27.d, lsl #3]	//  (*)
/*   1530 */	sub	x7, x2, 128
/*   1530 */	ld1d	{z17.d}, p0/z, [x7, z11.d, lsl #3]	//  (*)
	.loc 38 1529 0
..LDL1846:
/*   1529 */	ld1d	{z24.d}, p0/z, [x11, z16.d, lsl #3]	//  (*)
/*   1529 */	sub	x7, x4, 192
/*   1529 */	ld1d	{z16.d}, p0/z, [x7, z11.d, lsl #3]	//  (*)
	.loc 38 1530 0
..LDL1847:
/*   1530 */	ld1d	{z23.d}, p0/z, [x11, z7.d, lsl #3]	//  (*)
/*   1530 */	sub	x7, x2, 192
/*   1530 */	ld1d	{z7.d}, p0/z, [x7, z11.d, lsl #3]	//  (*)
	.loc 38 1531 0
..LDL1848:
/*   1531 */	sub	x7, x5, 128
	.loc 38 1529 0
..LDL1849:
/*   1529 */	ld1sw	{z27.d}, p0/z, [x7, z11.d, lsl #2]	//  (*)
	.loc 38 1531 0
..LDL1850:
/*   1531 */	sub	x7, x3, 128
	.loc 38 1530 0
..LDL1851:
/*   1530 */	ld1sw	{z10.d}, p0/z, [x7, z11.d, lsl #2]	//  (*)
	.loc 38 1529 0
..LDL1852:
/*   1529 */	sub	x7, x5, 160
/*   1529 */	ld1sw	{z9.d}, p0/z, [x7, z11.d, lsl #2]	//  (*)
/*   1529 */	fmsb	z22.d, p0/m, z8.d, z26.d
	.loc 38 1530 0
..LDL1853:
/*   1530 */	sub	x7, x3, 160
/*   1530 */	ld1sw	{z8.d}, p0/z, [x7, z11.d, lsl #2]	//  (*)
/*   1530 */	fmsb	z21.d, p0/m, z31.d, z6.d
	.loc 38 1529 0
..LDL1854:
/*   1529 */	fmsb	z20.d, p0/m, z30.d, z5.d
	.loc 38 1530 0
..LDL1855:
/*   1530 */	fmsb	z19.d, p0/m, z29.d, z4.d
	.loc 38 1529 0
..LDL1856:
/*   1529 */	sub	x7, x5, 192
	.loc 38 1530 0
..LDL1857:
/*   1530 */	sub	x8, x3, 192
	.loc 38 1529 0
..LDL1858:
/*   1529 */	ld1sw	{z30.d}, p0/z, [x7, z11.d, lsl #2]	//  (*)
/*   1529 */	fmsb	z18.d, p0/m, z28.d, z3.d
	.loc 38 1531 0
..LDL1859:
/*   1531 */	sub	x7, x2, 256
	.loc 38 1530 0
..LDL1860:
/*   1530 */	ld1sw	{z29.d}, p0/z, [x8, z11.d, lsl #2]	//  (*)
/*   1530 */	fmsb	z17.d, p0/m, z25.d, z2.d
	.loc 38 1531 0
..LDL1861:
/*   1531 */	sub	x8, x4, 256
	.loc 38 1529 0
..LDL1862:
/*   1529 */	fmsb	z16.d, p0/m, z24.d, z1.d
	.loc 38 1530 0
..LDL1863:
/*   1530 */	fmsb	z7.d, p0/m, z23.d, z0.d
	.loc 38 1529 0
..LDL1864:
/*   1529 */	sub	x9, x5, 224
/*   1529 */	ld1sw	{z1.d}, p0/z, [x9, z11.d, lsl #2]	//  (*)
	.loc 38 1530 0
..LDL1865:
/*   1530 */	sub	x9, x3, 224
/*   1530 */	ld1sw	{z0.d}, p0/z, [x9, z11.d, lsl #2]	//  (*)
	.loc 38 1529 0
..LDL1866:
/*   1529 */	ld1d	{z26.d}, p0/z, [x11, z27.d, lsl #3]	//  (*)
/*   1529 */	ld1d	{z25.d}, p0/z, [x8, z11.d, lsl #3]	//  (*)
	.loc 38 1530 0
..LDL1867:
/*   1530 */	ld1d	{z10.d}, p0/z, [x11, z10.d, lsl #3]	//  (*)
/*   1530 */	ld1d	{z6.d}, p0/z, [x7, z11.d, lsl #3]	//  (*)
	.loc 38 1529 0
..LDL1868:
/*   1529 */	ld1d	{z9.d}, p0/z, [x11, z9.d, lsl #3]	//  (*)
/*   1529 */	sub	x7, x4, 320
/*   1529 */	ld1d	{z5.d}, p0/z, [x7, z11.d, lsl #3]	//  (*)
	.loc 38 1530 0
..LDL1869:
/*   1530 */	ld1d	{z28.d}, p0/z, [x11, z8.d, lsl #3]	//  (*)
/*   1530 */	sub	x7, x2, 320
/*   1530 */	ld1d	{z4.d}, p0/z, [x7, z11.d, lsl #3]	//  (*)
	.loc 38 1529 0
..LDL1870:
/*   1529 */	ld1d	{z27.d}, p0/z, [x11, z30.d, lsl #3]	//  (*)
/*   1529 */	sub	x7, x4, 384
/*   1529 */	ld1d	{z3.d}, p0/z, [x7, z11.d, lsl #3]	//  (*)
	.loc 38 1530 0
..LDL1871:
/*   1530 */	ld1d	{z8.d}, p0/z, [x11, z29.d, lsl #3]	//  (*)
/*   1530 */	sub	x7, x2, 384
/*   1530 */	ld1d	{z2.d}, p0/z, [x7, z11.d, lsl #3]	//  (*)
	.loc 38 1529 0
..LDL1872:
/*   1529 */	ld1d	{z31.d}, p0/z, [x11, z1.d, lsl #3]	//  (*)
/*   1529 */	sub	x7, x4, 448
/*   1529 */	ld1d	{z1.d}, p0/z, [x7, z11.d, lsl #3]	//  (*)
	.loc 38 1530 0
..LDL1873:
/*   1530 */	ld1d	{z30.d}, p0/z, [x11, z0.d, lsl #3]	//  (*)
/*   1530 */	sub	x7, x2, 448
/*   1530 */	ld1d	{z0.d}, p0/z, [x7, z11.d, lsl #3]	//  (*)
	.loc 38 1531 0
..LDL1874:
/*   1531 */	sub	x5, x5, 256
	.loc 38 1529 0
..LDL1875:
/*   1529 */	ld1sw	{z29.d}, p0/z, [x5, z11.d, lsl #2]	//  (*)
	.loc 38 1531 0
..LDL1876:
/*   1531 */	sub	x3, x3, 256
	.loc 38 1530 0
..LDL1877:
/*   1530 */	ld1sw	{z23.d}, p0/z, [x3, z11.d, lsl #2]	//  (*)
	.loc 38 1529 0
..LDL1878:
/*   1529 */	sub	x7, x5, 32
/*   1529 */	ld1sw	{z24.d}, p0/z, [x7, z11.d, lsl #2]	//  (*)
/*   1529 */	fmsb	z26.d, p0/m, z25.d, z22.d
	.loc 38 1530 0
..LDL1879:
/*   1530 */	sub	x7, x3, 32
/*   1530 */	ld1sw	{z25.d}, p0/z, [x7, z11.d, lsl #2]	//  (*)
/*   1530 */	fmsb	z6.d, p0/m, z10.d, z21.d
	.loc 38 1529 0
..LDL1880:
/*   1529 */	fmsb	z5.d, p0/m, z9.d, z20.d
	.loc 38 1530 0
..LDL1881:
/*   1530 */	fmsb	z4.d, p0/m, z28.d, z19.d
	.loc 38 1529 0
..LDL1882:
/*   1529 */	sub	x8, x5, 64
	.loc 38 1530 0
..LDL1883:
/*   1530 */	sub	x7, x3, 64
	.loc 38 1529 0
..LDL1884:
/*   1529 */	ld1sw	{z28.d}, p0/z, [x8, z11.d, lsl #2]	//  (*)
/*   1529 */	fmsb	z3.d, p0/m, z27.d, z18.d
	.loc 38 1528 0
..LDL1885:
/*   1528 */	sub	x1, x1, 64
	.loc 38 1531 0
..LDL1886:
/*   1531 */	sub	x2, x2, 512
	.loc 38 1530 0
..LDL1887:
/*   1530 */	ld1sw	{z27.d}, p0/z, [x7, z11.d, lsl #2]	//  (*)
/*   1530 */	fmsb	z2.d, p0/m, z8.d, z17.d
	.loc 38 1531 0
..LDL1888:
/*   1531 */	sub	x4, x4, 512
	.loc 38 1529 0
..LDL1889:
/*   1529 */	fmsb	z1.d, p0/m, z31.d, z16.d
	.loc 38 1530 0
..LDL1890:
/*   1530 */	fmsb	z0.d, p0/m, z30.d, z7.d
	.loc 38 1531 0
..LDL1891:
/*   1531 */	sub	w6, w6, 8
	.loc 38 1528 0
..LDL1892:
/*   1528 */	cmp	w6, 8
/*   1528 */	bge	.L2686
	.loc 38 1529 0
..LDL1893:
/*   1529 */	sub	x8, x5, 96
	.loc 38 1530 0
..LDL1894:
/*   1530 */	sub	x7, x3, 96
/*   1530 */	ld1d	{z21.d}, p0/z, [x11, z23.d, lsl #3]	//  (*)
	.loc 38 1529 0
..LDL1895:
/*   1529 */	ld1sw	{z18.d}, p0/z, [x8, z11.d, lsl #2]	//  (*)
/*   1529 */	sub	x22, x4, 64
	.loc 38 1530 0
..LDL1896:
/*   1530 */	sub	x21, x2, 64
/*   1530 */	ld1sw	{z19.d}, p0/z, [x7, z11.d, lsl #2]	//  (*)
	.loc 38 1529 0
..LDL1897:
/*   1529 */	sub	x10, x4, 128
	.loc 38 1530 0
..LDL1898:
/*   1530 */	sub	x9, x2, 128
	.loc 38 1529 0
..LDL1899:
/*   1529 */	ld1d	{z22.d}, p0/z, [x11, z29.d, lsl #3]	//  (*)
/*   1529 */	sub	x8, x4, 192
	.loc 38 1530 0
..LDL1900:
/*   1530 */	sub	x7, x2, 192
	.loc 38 1531 0
..LDL1901:
/*   1531 */	sub	x5, x5, 128
/*   1531 */	sub	w6, w6, 4
	.loc 38 1529 0
..LDL1902:
/*   1529 */	ld1d	{z20.d}, p0/z, [x11, z24.d, lsl #3]	//  (*)
	.loc 38 1531 0
..LDL1903:
/*   1531 */	sub	x3, x3, 128
	.loc 38 1528 0
..LDL1904:
/*   1528 */	sub	x1, x1, 32
	.loc 38 1530 0
..LDL1905:
/*   1530 */	ld1d	{z23.d}, p0/z, [x11, z25.d, lsl #3]	//  (*)
	.loc 38 1531 0
..LDL1906:
/*   1531 */	cmp	w6, 0
	.loc 38 1530 0
..LDL1907:
/*   1530 */	ld1d	{z30.d}, p0/z, [x11, z27.d, lsl #3]	//  (*)
	.loc 38 1529 0
..LDL1908:
/*   1529 */	ld1d	{z7.d}, p0/z, [x4, z11.d, lsl #3]	//  (*)
	.loc 38 1531 0
..LDL1909:
/*   1531 */	sub	x4, x4, 256
	.loc 38 1530 0
..LDL1910:
/*   1530 */	ld1d	{z16.d}, p0/z, [x2, z11.d, lsl #3]	//  (*)
	.loc 38 1531 0
..LDL1911:
/*   1531 */	sub	x2, x2, 256
	.loc 38 1529 0
..LDL1912:
/*   1529 */	ld1d	{z17.d}, p0/z, [x22, z11.d, lsl #3]	//  (*)
	.loc 38 1530 0
..LDL1913:
/*   1530 */	ld1d	{z25.d}, p0/z, [x21, z11.d, lsl #3]	//  (*)
	.loc 38 1529 0
..LDL1914:
/*   1529 */	ld1d	{z28.d}, p0/z, [x11, z28.d, lsl #3]	//  (*)
/*   1529 */	ld1d	{z24.d}, p0/z, [x10, z11.d, lsl #3]	//  (*)
	.loc 38 1530 0
..LDL1915:
/*   1530 */	ld1d	{z27.d}, p0/z, [x9, z11.d, lsl #3]	//  (*)
	.loc 38 1529 0
..LDL1916:
/*   1529 */	ld1d	{z29.d}, p0/z, [x8, z11.d, lsl #3]	//  (*)
	.loc 38 1530 0
..LDL1917:
/*   1530 */	ld1d	{z31.d}, p0/z, [x7, z11.d, lsl #3]	//  (*)
	.loc 38 1529 0
..LDL1918:
/*   1529 */	ld1d	{z18.d}, p0/z, [x11, z18.d, lsl #3]	//  (*)
	.loc 38 1530 0
..LDL1919:
/*   1530 */	ld1d	{z19.d}, p0/z, [x11, z19.d, lsl #3]	//  (*)
	.loc 38 1529 0
..LDL1920:
/*   1529 */	fmsb	z7.d, p0/m, z22.d, z26.d
	.loc 38 1530 0
..LDL1921:
/*   1530 */	fmsb	z16.d, p0/m, z21.d, z6.d
	.loc 38 1529 0
..LDL1922:
/*   1529 */	fmsb	z17.d, p0/m, z20.d, z5.d
	.loc 38 1530 0
..LDL1923:
/*   1530 */	fmls	z4.d, p0/m, z25.d, z23.d
	.loc 38 1529 0
..LDL1924:
/*   1529 */	fmls	z3.d, p0/m, z24.d, z28.d
	.loc 38 1530 0
..LDL1925:
/*   1530 */	fmls	z2.d, p0/m, z27.d, z30.d
	.loc 38 1529 0
..LDL1926:
/*   1529 */	fmsb	z18.d, p0/m, z29.d, z1.d
	.loc 38 1530 0
..LDL1927:
/*   1530 */	fmsb	z19.d, p0/m, z31.d, z0.d
	.loc 38 1531 0
..LDL1928:
/*   1531 */	blt	.L2958
.L2961:
	.p2align 5
.L2964:					// :entr:term:mod:swpl
	.loc 38 1530 0 is_stmt 1
..LDL1929:
/*   1530 */	sub	x10, x3, 32
	.loc 38 1529 0
..LDL1930:
/*   1529 */	sub	x21, x5, 32
/*   1529 */	ld1sw	{z0.d}, p0/z, [x5, z11.d, lsl #2]	//  (*)
/*   1529 */	sub	x9, x5, 64
	.loc 38 1530 0
..LDL1931:
/*   1530 */	sub	x7, x2, 64
	.loc 38 1529 0
..LDL1932:
/*   1529 */	ld1sw	{z5.d}, p0/z, [x21, z11.d, lsl #2]	//  (*)
/*   1529 */	sub	x8, x4, 64
	.loc 38 1530 0
..LDL1933:
/*   1530 */	ld1sw	{z1.d}, p0/z, [x3, z11.d, lsl #2]	//  (*)
	.loc 38 1528 0 is_stmt 0
..LDL1934:
/*   1528 */	sub	x1, x1, 32
	.loc 38 1529 0 is_stmt 1
..LDL1935:
/*   1529 */	ld1sw	{z24.d}, p0/z, [x9, z11.d, lsl #2]	//  (*)
	.loc 38 1531 0 is_stmt 0
..LDL1936:
/*   1531 */	subs	w6, w6, 4
	.loc 38 1529 0
..LDL1937:
/*   1529 */	ld1d	{z20.d}, p0/z, [x8, z11.d, lsl #3]	//  (*)
/*   1529 */	ld1d	{z6.d}, p0/z, [x11, z0.d, lsl #3]	//  (*)
/*   1529 */	ld1d	{z23.d}, p0/z, [x11, z5.d, lsl #3]	//  (*)
	.loc 38 1530 0 is_stmt 1
..LDL1938:
/*   1530 */	ld1sw	{z5.d}, p0/z, [x10, z11.d, lsl #2]	//  (*)
	.loc 38 1529 0
..LDL1939:
/*   1529 */	ld1d	{z0.d}, p0/z, [x4, z11.d, lsl #3]	//  (*)
	.loc 38 1530 0
..LDL1940:
/*   1530 */	ld1d	{z22.d}, p0/z, [x11, z1.d, lsl #3]	//  (*)
	.loc 38 1529 0
..LDL1941:
/*   1529 */	ld1d	{z24.d}, p0/z, [x11, z24.d, lsl #3]	//  (*)
	.loc 38 1530 0
..LDL1942:
/*   1530 */	ld1d	{z1.d}, p0/z, [x2, z11.d, lsl #3]	//  (*)
	.loc 38 1529 0
..LDL1943:
/*   1529 */	fmls	z17.d, p0/m, z20.d, z23.d
	.loc 38 1530 0
..LDL1944:
/*   1530 */	ld1d	{z21.d}, p0/z, [x11, z5.d, lsl #3]	//  (*)
/*   1530 */	ld1d	{z5.d}, p0/z, [x7, z11.d, lsl #3]	//  (*)
	.loc 38 1529 0
..LDL1945:
/*   1529 */	fmls	z7.d, p0/m, z0.d, z6.d
/*   1529 */	sub	x7, x4, 128
/*   1529 */	ld1d	{z0.d}, p0/z, [x7, z11.d, lsl #3]	//  (*)
	.loc 38 1530 0
..LDL1946:
/*   1530 */	sub	x7, x3, 64
/*   1530 */	fmls	z16.d, p0/m, z1.d, z22.d
/*   1530 */	fmls	z4.d, p0/m, z5.d, z21.d
	.loc 38 1529 0
..LDL1947:
/*   1529 */	fmls	z3.d, p0/m, z0.d, z24.d
	.loc 38 1530 0
..LDL1948:
/*   1530 */	ld1sw	{z0.d}, p0/z, [x7, z11.d, lsl #2]	//  (*)
/*   1530 */	sub	x7, x2, 128
/*   1530 */	ld1d	{z1.d}, p0/z, [x11, z0.d, lsl #3]	//  (*)
/*   1530 */	ld1d	{z0.d}, p0/z, [x7, z11.d, lsl #3]	//  (*)
	.loc 38 1529 0
..LDL1949:
/*   1529 */	sub	x7, x5, 96
	.loc 38 1531 0 is_stmt 0
..LDL1950:
/*   1531 */	sub	x5, x5, 128
	.loc 38 1530 0 is_stmt 1
..LDL1951:
/*   1530 */	fmls	z2.d, p0/m, z0.d, z1.d
	.loc 38 1529 0
..LDL1952:
/*   1529 */	ld1sw	{z0.d}, p0/z, [x7, z11.d, lsl #2]	//  (*)
/*   1529 */	sub	x7, x4, 192
	.loc 38 1531 0 is_stmt 0
..LDL1953:
/*   1531 */	sub	x4, x4, 256
	.loc 38 1529 0
..LDL1954:
/*   1529 */	ld1d	{z1.d}, p0/z, [x7, z11.d, lsl #3]	//  (*)
	.loc 38 1530 0 is_stmt 1
..LDL1955:
/*   1530 */	sub	x7, x3, 96
	.loc 38 1531 0 is_stmt 0
..LDL1956:
/*   1531 */	sub	x3, x3, 128
	.loc 38 1529 0 is_stmt 1
..LDL1957:
/*   1529 */	ld1d	{z5.d}, p0/z, [x11, z0.d, lsl #3]	//  (*)
	.loc 38 1530 0
..LDL1958:
/*   1530 */	ld1sw	{z0.d}, p0/z, [x7, z11.d, lsl #2]	//  (*)
/*   1530 */	sub	x7, x2, 192
	.loc 38 1531 0 is_stmt 0
..LDL1959:
/*   1531 */	sub	x2, x2, 256
	.loc 38 1529 0 is_stmt 1
..LDL1960:
/*   1529 */	fmls	z18.d, p0/m, z1.d, z5.d
	.loc 38 1530 0
..LDL1961:
/*   1530 */	ld1d	{z1.d}, p0/z, [x11, z0.d, lsl #3]	//  (*)
/*   1530 */	ld1d	{z0.d}, p0/z, [x7, z11.d, lsl #3]	//  (*)
/*   1530 */	fmls	z19.d, p0/m, z0.d, z1.d
	.loc 38 1531 0 is_stmt 0
..LDL1962:
/*   1531 */	bpl	.L2964
.L2958:
	.loc 38 1530 0
..LDL1963:
/*   1530 */	fadd	z5.d, z19.d, z2.d
/*   1530 */	fadd	z1.d, z16.d, z4.d
	.loc 38 1529 0
..LDL1964:
/*   1529 */	fadd	z2.d, z18.d, z3.d
/*   1529 */	fadd	z0.d, z7.d, z17.d
	.loc 38 1530 0
..LDL1965:
/*   1530 */	fadd	z1.d, z1.d, z5.d
	.loc 38 1529 0
..LDL1966:
/*   1529 */	fadd	z0.d, z0.d, z2.d
.L2700:
	.loc 38 1528 0 is_stmt 1
..LDL1967:
/*   1528 */	adds	w2, w6, 3
/*   1528 */	bmi	.L2687
	.loc 38 1529 0 is_stmt 0
..LDL1968:
/*   1529 */	ldr	x7, [x0, 8]	//  "xv"
	.p2align 5
.L2708:					// :entr:term:mod
	.loc 38 1529 0 is_stmt 1
..LDL1969:
/*   1529 */	index	z4.d, 0, -1
/*   1529 */	mov	x3, x1
	.loc 38 1528 0 is_stmt 0
..LDL1970:
/*   1528 */	sub	x1, x1, 8
	.loc 38 1529 0
..LDL1971:
/*   1529 */	add	x6, x12, x3, lsl #2
	.loc 38 1531 0
..LDL1972:
/*   1531 */	subs	w2, w2, 1
	.loc 38 1530 0 is_stmt 1
..LDL1973:
/*   1530 */	add	x5, x13, x3, lsl #2
	.loc 38 1529 0
..LDL1974:
/*   1529 */	add	x4, x14, x3, lsl #3
	.loc 38 1530 0
..LDL1975:
/*   1530 */	add	x3, x15, x3, lsl #3
	.loc 38 1529 0
..LDL1976:
/*   1529 */	ld1sw	{z5.d}, p0/z, [x6, z4.d, lsl #2]	//  (*)
	.loc 38 1530 0
..LDL1977:
/*   1530 */	ld1sw	{z2.d}, p0/z, [x5, z4.d, lsl #2]	//  (*)
	.loc 38 1529 0
..LDL1978:
/*   1529 */	ld1d	{z3.d}, p0/z, [x4, z4.d, lsl #3]	//  (*)
	.loc 38 1530 0
..LDL1979:
/*   1530 */	ld1d	{z4.d}, p0/z, [x3, z4.d, lsl #3]	//  (*)
	.loc 38 1529 0
..LDL1980:
/*   1529 */	ld1d	{z5.d}, p0/z, [x7, z5.d, lsl #3]	//  (*)
	.loc 38 1530 0
..LDL1981:
/*   1530 */	ld1d	{z2.d}, p0/z, [x7, z2.d, lsl #3]	//  (*)
	.loc 38 1529 0
..LDL1982:
/*   1529 */	fmls	z0.d, p0/m, z3.d, z5.d
	.loc 38 1530 0
..LDL1983:
/*   1530 */	fmls	z1.d, p0/m, z4.d, z2.d
	.loc 38 1528 0 is_stmt 0
..LDL1984:
/*   1528 */	bpl	.L2708
.L2687:
	.loc 38 1530 0
..LDL1985:
/*   1530 */	movprfx	z3, z1
/*   1530 */	ext	z3.b, z3.b, z1.b, 32
	.loc 38 1529 0
..LDL1986:
/*   1529 */	movprfx	z2, z0
/*   1529 */	ext	z2.b, z2.b, z0.b, 32
	.loc 38 1530 0
..LDL1987:
/*   1530 */	fadd	z1.d, z3.d, z1.d
	.loc 38 1529 0
..LDL1988:
/*   1529 */	fadd	z3.d, z2.d, z0.d
	.loc 38 1530 0
..LDL1989:
/*   1530 */	movprfx	z0, z1
/*   1530 */	ext	z0.b, z0.b, z1.b, 16
	.loc 38 1529 0
..LDL1990:
/*   1529 */	movprfx	z2, z3
/*   1529 */	ext	z2.b, z2.b, z3.b, 16
	.loc 38 1530 0
..LDL1991:
/*   1530 */	fadd	z0.d, z1.d, z0.d
	.loc 38 1529 0
..LDL1992:
/*   1529 */	fadd	z2.d, z3.d, z2.d
	.loc 38 1530 0
..LDL1993:
/*   1530 */	movprfx	z3, z0
/*   1530 */	ext	z3.b, z3.b, z0.b, 8
	.loc 38 1529 0
..LDL1994:
/*   1529 */	movprfx	z1, z2
/*   1529 */	ext	z1.b, z1.b, z2.b, 8
	.loc 38 1530 0
..LDL1995:
/*   1530 */	fadd	z0.d, z0.d, z3.d
	.loc 38 1529 0
..LDL1996:
/*   1529 */	fadd	z1.d, z2.d, z1.d
	.loc 38 1530 0
..LDL1997:
/*   1530 */	fadd	d15, d15, d0
	.loc 38 1529 0
..LDL1998:
/*   1529 */	fadd	d14, d14, d1
.L2688:
	.loc 38 1528 0 is_stmt 1
..LDL1999:
/*   1528 */	sbfiz	x1, x30, 3, 32
/*   1528 */	sub	x1, x20, x1
/*   1528 */	add	x1, x1, x29
/*   1528 */	cbz	w19, .L2691
/*   1528 */	whilelt	p1.d, wzr, w19
	.loc 38 1529 0
..LDL2000:
/*   1529 */	ldr	x4, [x0, 8]	//  "xv"
/*   1529 */	add	x2, x12, x1, lsl #2
	.loc 38 1530 0
..LDL2001:
/*   1530 */	add	x3, x13, x1, lsl #2
	.loc 38 1529 0
..LDL2002:
/*   1529 */	ld1sw	{z3.d}, p1/z, [x2, z11.d, lsl #2]	//  (*)
/*   1529 */	add	x2, x14, x1, lsl #3
	.loc 38 1530 0
..LDL2003:
/*   1530 */	ld1sw	{z2.d}, p1/z, [x3, z11.d, lsl #2]	//  (*)
	.loc 38 1529 0
..LDL2004:
/*   1529 */	ld1d	{z1.d}, p1/z, [x2, z11.d, lsl #3]	//  (*)
	.loc 38 1530 0
..LDL2005:
/*   1530 */	add	x1, x15, x1, lsl #3
/*   1530 */	ld1d	{z0.d}, p1/z, [x1, z11.d, lsl #3]	//  (*)
	.loc 38 1529 0
..LDL2006:
/*   1529 */	ld1d	{z3.d}, p1/z, [x4, z3.d, lsl #3]	//  (*)
	.loc 38 1530 0
..LDL2007:
/*   1530 */	ld1d	{z2.d}, p1/z, [x4, z2.d, lsl #3]	//  (*)
