..text.b:
	.ident	"$Options: Fujitsu C/C++ Compiler 4.7.0 (Nov 10 2021 09:37:15) --preinclude /opt/FJSVstclanga/cp-1.0.21.01/bin/../lib/FCC.pre --g++ -Dunix -Dlinux -D__FUJITSU -D__FCC_major__=4 -D__FCC_minor__=7 -D__FCC_patchlevel__=0 -D__FCC_version__=\"4.7.0\" -D__aarch64__ -D__unix -D_OPENMP=201107 -D__PRAGMA_REDEFINE_EXTNAME -D__FCC_VERSION=800 -D__USER_LABEL_PREFIX__= -D__OPTIMIZE__ -D__ARM_ARCH=8 -D__ARM_FEATURE_SVE -D__FP_FAST_FMA -D__ELF__ -D__linux -Asystem(unix) -D__LIBC_6B -D_LP64 -D__LP64__ -DHPCG_CONTIGUOUS_ARRAYS -DHPCG_NO_MPI -DENABLE_MG_COUNTERS -DENABLE_MG_COUNTERS -I./src -I./src/OOKAMI_OMP_FJ -I/lustre/software/arm/22.1/armpl-22.1.0_AArch64_RHEL-8_arm-linux-compiler_aarch64-linux/include --K=omp -I../src --K=ocl -D_REENTRANT -D__MT__ --zmode=64 -I/lustre/software/arm/22.1/arm-linux-compiler-22.1_Generic-AArch64_RHEL-8_aarch64-linux/include -I/lustre/software/arm/22.1/gcc-11.2.0_Generic-AArch64_RHEL-8_aarch64-linux/include -I/lustre/software/likwid/5.2.2//include -I/cm/shared/apps/slurm/current/include -I/lustre/software/likwid/5.2.2//include --sys_include=/opt/FJSVstclanga/cp-1.0.21.01/bin/../include/libc++/v371 --sys_include=/opt/FJSVstclanga/cp-1.0.21.01/bin/../include --K=opt --exceptions ../src/ComputeSYMGS.cpp -- -ncmdname=FCC -nspopt=\"-c -DHPCG_CONTIGUOUS_ARRAYS -DHPCG_NO_MPI -DENABLE_MG_COUNTERS -DENABLE_MG_COUNTERS -I./src -I./src/OOKAMI_OMP_FJ -I/lustre/software/arm/22.1/armpl-22.1.0_AArch64_RHEL-8_arm-linux-compiler_aarch64-linux/include -Kfast -KSVE -Kopenmp -Koptmsg=2 -Nlst=t -Kocl -I../src -S -o ComputeSYMGS.asm.txt\" -zobe=cplus -zcfc=target_sve -O3 -x- -Komitfp,mfunc,eval,fp_relaxed,fz,fast_matmul,fp_contract,ilfunc,simd_packed_promotion -KSVE -Kopenmp,threadsafe -Koptmsg=2 -Nlst=t -Kocl -zsta=am -Klargepage -zsrc=../src/ComputeSYMGS.cpp ComputeSYMGS.asm.txt $"
	.file	"ComputeSYMGS.cpp"
	.ident	"$Compiler: Fujitsu C/C++ Compiler 4.7.0 (Nov 10 2021 09:37:15) ../src/ComputeSYMGS.cpp _Z22ComputeFusedSYMGS_SPMVRK19SparseMatrix_STRUCTRK13Vector_STRUCTRS2_S5_ $"
	.text
	.align	2
	.global	_Z22ComputeFusedSYMGS_SPMVRK19SparseMatrix_STRUCTRK13Vector_STRUCTRS2_S5_
	.type	_Z22ComputeFusedSYMGS_SPMVRK19SparseMatrix_STRUCTRK13Vector_STRUCTRS2_S5_, %function
_Z22ComputeFusedSYMGS_SPMVRK19SparseMatrix_STRUCTRK13Vector_STRUCTRS2_S5_:
	.file 1 "/usr/include/bits/byteswap.h"
	.file 2 "/usr/include/bits/types.h"
	.file 3 "/usr/include/bits/uintn-identity.h"
	.file 4 "/opt/FJSVstclanga/cp-1.0.21.01/bin/../include/libc++/v371/__config_fujitsu"
	.file 5 "/opt/FJSVstclanga/cp-1.0.21.01/bin/../include/libc++/v371/type_traits"
	.file 6 "/usr/include/string.h"
	.file 7 "/opt/FJSVstclanga/cp-1.0.21.01/bin/../include/stddef.h"
	.file 8 "/usr/include/strings.h"
	.file 9 "/usr/include/stdlib.h"
	.file 10 "/usr/include/bits/stdlib-bsearch.h"
	.file 11 "/usr/include/bits/stdlib-float.h"
	.file 12 "/opt/FJSVstclanga/cp-1.0.21.01/bin/../include/libc++/v371/cstdlib"
	.file 13 "/opt/FJSVstclanga/cp-1.0.21.01/bin/../include/libc++/v371/exception"
	.file 14 "/opt/FJSVstclanga/cp-1.0.21.01/bin/../include/libc++/v371/cstddef"
	.file 15 "/opt/FJSVstclanga/cp-1.0.21.01/bin/../include/libc++/v371/typeinfo"
	.file 16 "/opt/FJSVstclanga/cp-1.0.21.01/bin/../include/libc++/v371/new"
	.file 17 "/usr/include/wchar.h"
	.file 18 "/usr/include/bits/types/mbstate_t.h"
	.file 19 "/usr/include/bits/types/__mbstate_t.h"
	.file 20 "/opt/FJSVstclanga/cp-1.0.21.01/bin/../include/libc++/v371/iterator"
	.file 21 "/opt/FJSVstclanga/cp-1.0.21.01/bin/../include/libc++/v371/tuple"
	.file 22 "/opt/FJSVstclanga/cp-1.0.21.01/bin/../include/libc++/v371/atomic"
	.file 23 "/opt/FJSVstclanga/cp-1.0.21.01/bin/../include/libc++/v371/memory"
	.file 24 "/opt/FJSVstclanga/cp-1.0.21.01/bin/../include/libc++/v371/algorithm"
	.file 25 "/opt/FJSVstclanga/cp-1.0.21.01/bin/../include/libc++/v371/__bit_reference"
	.file 26 "/opt/FJSVstclanga/cp-1.0.21.01/bin/../include/libc++/v371/stdexcept"
	.file 27 "/opt/FJSVstclanga/cp-1.0.21.01/bin/../include/libc++/v371/iosfwd"
	.file 28 "../src/Geometry.hpp"
	.file 29 "../src/Vector.hpp"
	.file 30 "../src/MGData.hpp"
	.file 31 "/usr/include/math.h"
	.file 32 "/opt/FJSVstclanga/cp-1.0.21.01/bin/../include/libc++/v371/cmath"
	.file 33 "/opt/FJSVstclanga/cp-1.0.21.01/bin/../include/libc++/v371/__hash_table"
	.file 34 "/opt/FJSVstclanga/cp-1.0.21.01/bin/../include/libc++/v371/functional"
	.file 35 "/opt/FJSVstclanga/cp-1.0.21.01/bin/../include/libc++/v371/unordered_map"
	.file 36 "../src/SparseMatrix.hpp"
	.file 37 "/opt/FJSVstclanga/cp-1.0.21.01/bin/../include/libc++/v371/vector"
	.file 38 "../src/ComputeSYMGS.cpp"
	.loc 38 1239 0
..LDL1:
.LFB0:
	.cfi_startproc
/*   1298 */	sub	sp, sp, 48
	.cfi_def_cfa_offset 48
/*    ??? */	str	x30, [sp, 32]	//  (*)
	.cfi_offset 30, -16
/*    ??? */	stp	x19, x20, [sp, 16]	//  (*)
	.cfi_offset 19, -32
	.cfi_offset 20, -24
/*    ??? */	stp	x21, x22, [sp]	//  (*)
	.cfi_offset 21, -48
	.cfi_offset 22, -40
/*    ??? */	sub	sp, sp, 80
	.cfi_def_cfa_offset 128
/*   1239 */	add	x19, sp, 16
/*   1239 */	str	x0, [x19, 40]
	.loc 38 1240 0
..LDL2:
/*   1240 */	ldr	w5, [x2]	//  (*)
/*   1240 */	ldr	w4, [x0, 36]	//  (*)
/*   1240 */	cmp	w5, w4
/*   1240 */	bne	.L1375
	.loc 38 1246 0
..LDL3:
/*   1246 */	ldr	x1, [x1, 8]	//  (*)
/*   1246 */	str	x1, [x19, 32]
	.loc 38 1247 0
..LDL4:
/*   1247 */	ldr	x1, [x2, 8]	//  (*)
/*   1247 */	str	x1, [x19, 24]
	.loc 38 1248 0
..LDL5:
/*   1248 */	ldr	x1, [x3, 8]	//  (*)
/*   1248 */	str	x1, [x19, 16]
	.loc 38 1249 0
..LDL6:
/*   1249 */	ldr	x1, [x0, 80]	//  (*)
/*   1249 */	str	x1, [x19, 8]
	.loc 38 1254 0
..LDL7:
/*   1254 */	str	wzr, [x19, 4]
	.loc 37 641 0
..LDL8:
/*    641 */	ldp	x0, x1, [x0, 280]	//  (*)
/*    641 */	sub	x0, x1, x0
/*    641 */	mov	x1, 24
/*    641 */	sdiv	x0, x0, x1
	.loc 38 1254 0
..LDL9:
/*   1254 */	cbz	x0, .L1369
	.loc 38 1256 0 is_stmt 0
..LDL10:
/*   1256 */	adrp	x0, _Z22ComputeFusedSYMGS_SPMVRK19SparseMatrix_STRUCTRK13Vector_STRUCTRS2_S5_._OMP_1
	.loc 37 641 0
..LDL11:
/*    641 */	mov	x20, 24
	.loc 38 1273 0
..LDL12:
/*   1273 */	add	x22, x19, 40
	.loc 38 1256 0
..LDL13:
/*   1256 */	add	x21, x0, :lo12:_Z22ComputeFusedSYMGS_SPMVRK19SparseMatrix_STRUCTRK13Vector_STRUCTRS2_S5_._OMP_1
	.p2align 5
.L1367:					// :entr:term
	.loc 38 1256 0 is_stmt 0
..LDL14:
/*   1256 */	mov	x2, 0
/*   1256 */	mov	x0, x21
/*   1256 */	mov	x1, x19
/*   1256 */	bl	__mpc_opar
	.loc 38 1273 0 is_stmt 1
..LDL15:
/*   1273 */	ldr	w0, [x22, -36]
/*   1273 */	add	w0, w0, 1
/*   1273 */	str	w0, [x22, -36]
/*   1273 */	sxtw	x1, w0
	.loc 37 641 0
..LDL16:
/*    641 */	ldr	x0, [x22]
/*    641 */	ldp	x0, x2, [x0, 280]	//  (*)
/*    641 */	sub	x0, x2, x0
/*    641 */	sdiv	x0, x0, x20
	.loc 38 1273 0
..LDL17:
/*   1273 */	cmp	x1, x0
/*   1273 */	bcc	.L1367
.L1369:
	.loc 37 641 0
..LDL18:
/*    641 */	ldr	x0, [x19, 40]
/*    641 */	ldp	x0, x1, [x0, 280]	//  (*)
/*    641 */	sub	x0, x1, x0
/*    641 */	mov	x1, 24
/*    641 */	sdiv	x0, x0, x1
	.loc 38 1278 0
..LDL19:
/*   1278 */	sub	x0, x0, 1
/*   1278 */	str	w0, [x19]
/*   1278 */	cmp	w0, 0
/*   1278 */	blt	.L1374
	.loc 38 1280 0 is_stmt 0
..LDL20:
/*   1280 */	adrp	x0, _Z22ComputeFusedSYMGS_SPMVRK19SparseMatrix_STRUCTRK13Vector_STRUCTRS2_S5_._OMP_2
/*   1280 */	add	x20, x0, :lo12:_Z22ComputeFusedSYMGS_SPMVRK19SparseMatrix_STRUCTRK13Vector_STRUCTRS2_S5_._OMP_2
	.p2align 5
.L1372:					// :entr:term
	.loc 38 1280 0 is_stmt 0
..LDL21:
/*   1280 */	mov	x2, 0
/*   1280 */	mov	x0, x20
/*   1280 */	mov	x1, x19
/*   1280 */	bl	__mpc_opar
	.loc 38 1299 0 is_stmt 1
..LDL22:
/*   1299 */	ldr	w0, [x19]
/*   1299 */	sub	w0, w0, 1
/*   1299 */	str	w0, [x19]
/*   1299 */	cmp	w0, 0
/*   1299 */	bge	.L1372
.L1374:
	.loc 38 1301 0
..LDL23:
/*   1301 */	mov	w0, 0
/*   1301 */	b	.L1376
.L1375:
	.loc 38 1240 0
..LDL24:
/*   1240 */	adrp	x0, .LR.3
/*   1240 */	adrp	x1, .LR.2
/*   1240 */	mov	w2, 1240
/*   1240 */	add	x0, x0, :lo12:.LR.3
/*   1240 */	add	x1, x1, :lo12:.LR.2
/*   1240 */	adrp	x3, .LR.6
/*   1240 */	add	x3, x3, :lo12:.LR.6
/*   1240 */	bl	__assert_fail
.L1376:					// :epi:term
	.loc 38 1302 0
..LDL25:
/*    ??? */	add	sp, sp, 80
	.cfi_def_cfa_offset 48
/*    ??? */	ldp	x19, x20, [sp, 16]	//  (*)
	.cfi_restore 19
	.cfi_restore 20
/*    ??? */	ldp	x21, x22, [sp]	//  (*)
	.cfi_restore 21
	.cfi_restore 22
/*    ??? */	ldr	x30, [sp, 32]	//  (*)
	.cfi_restore 30
/*   1302 */	add	sp, sp, 48
	.cfi_def_cfa_offset 0
/*   1302 */	ret	
..D1.pchi:
	.cfi_endproc
.LFE0:
	.size	_Z22ComputeFusedSYMGS_SPMVRK19SparseMatrix_STRUCTRK13Vector_STRUCTRS2_S5_, .-_Z22ComputeFusedSYMGS_SPMVRK19SparseMatrix_STRUCTRK13Vector_STRUCTRS2_S5_
	.ident	"$Compiler: Fujitsu C/C++ Compiler 4.7.0 (Nov 10 2021 09:37:15) ../src/ComputeSYMGS.cpp _Z22ComputeFusedSYMGS_SPMVRK19SparseMatrix_STRUCTRK13Vector_STRUCTRS2_S5_._OMP_1 $"
	.text
	.align	2
	.type	_Z22ComputeFusedSYMGS_SPMVRK19SparseMatrix_STRUCTRK13Vector_STRUCTRS2_S5_._OMP_1, %function
_Z22ComputeFusedSYMGS_SPMVRK19SparseMatrix_STRUCTRK13Vector_STRUCTRS2_S5_._OMP_1:
	.loc 38 1256 0
..LDL26:
.LFB1:
	.cfi_startproc
/*   1256 */	sub	sp, sp, 80
	.cfi_def_cfa_offset 80
/*    ??? */	stp	x19, x30, [sp, 56]	//  (*)
	.cfi_offset 30, -16
	.cfi_offset 19, -24
/*    ??? */	stp	d8, d9, [sp, 40]	//  (*)
	.cfi_offset 72, -40
	.cfi_offset 73, -32
/*    ??? */	stp	d10, d11, [sp, 24]	//  (*)
	.cfi_offset 74, -56
	.cfi_offset 75, -48
/*    ??? */	stp	d12, d13, [sp, 8]	//  (*)
	.cfi_offset 76, -72
	.cfi_offset 77, -64
/*    ??? */	str	d14, [sp]	//  (*)
	.cfi_offset 78, -80
/*    ??? */	sub	sp, sp, 48
	.cfi_def_cfa_offset 128
/*   1256 */	str	x1, [sp, 32]
/*   1256 */	str	x2, [sp, 24]
/*   1256 */	str	x3, [sp, 16]
/*   1256 */	str	x4, [sp, 8]
	.loc 38 1256 0 is_stmt 0
..LDL27:
	.loc 38 1256 0 is_stmt 0
..LDL28:
	.loc 38 1258 0 is_stmt 1
..LDL29:
/*   1258 */	ldrsw	x2, [x0, 4]	//  "l"
	.loc 37 1506 0
..LDL30:
/*   1506 */	ldr	x1, [x0, 40]	//  "A"
/*   1506 */	add	x3, x2, x2
/*   1506 */	ldr	x1, [x1, 280]	//  (*)
/*   1506 */	add	x2, x3, x2
/*   1506 */	lsl	x6, x2, 3
	.loc 37 641 0
..LDL31:
/*    641 */	add	x2, x6, 8
/*    641 */	ldr	x2, [x1, x2]	//  (*)
/*    641 */	ldr	x1, [x1, x6]	//  (*)
/*    641 */	sub	x1, x2, x1
/*    641 */	asr	x2, x1, 1
/*    641 */	add	x1, x1, x2, lsr #62
/*    641 */	asr	x1, x1, 2
/*   1258 */	cbz	x1, .L1397
	.loc 38 1258 0
..LDL32:
/*   1258 */	add	x2, sp, 32
/*   1258 */	ldr	x4, [x2]
/*   1258 */	sdiv	x3, x1, x4
/*   1258 */	msub	x1, x4, x3, x1
/*   1258 */	cbnz	x1, .L1381
/*   1258 */	ldr	x1, [x2, -8]
/*   1258 */	mul	x2, x1, x3
/*   1258 */	b	.L1384
.L1381:
/*   1258 */	ldr	x2, [x2, -8]
/*   1258 */	cmp	x2, x1
/*   1258 */	blt	.L1383
/*   1258 */	madd	x2, x2, x3, x1
/*   1258 */	b	.L1384
.L1383:
/*   1258 */	add	x3, x3, 1
/*   1258 */	mul	x2, x2, x3
.L1384:
/*   1258 */	sub	x1, x3, 1
/*   1258 */	add	x1, x1, x2
/*   1258 */	cbz	x3, .L1397
	.loc 38 1267 0 is_stmt 0
..LDL33:
/*   1267 */	ptrue	p1.d, ALL
	.loc 38 1264 0
..LDL34:
/*   1264 */	ldr	x7, [x0, 32]	//  "rv"
	.loc 38 1271 0
..LDL35:
/*   1271 */	fmov	d12, 1.000000e+00
	.loc 38 1270 0
..LDL36:
/*   1270 */	ldr	x10, [x0, 24]	//  "xv"
	.loc 38 1268 0
..LDL37:
/*   1268 */	fmov	z27.d, 0.000000e+00
	.loc 38 1259 0
..LDL38:
/*   1259 */	sxtw	x8, w2
.L1386:					// :entr
	.loc 37 1506 0 is_stmt 1
..LDL39:
/*   1506 */	ldr	x3, [x0, 40]	//  "A"
	.loc 38 1263 0
..LDL40:
/*   1263 */	ldr	x4, [x0, 8]	//  "matrixDiagonal"
	.loc 37 1506 0
..LDL41:
/*   1506 */	ldr	x9, [x3, 280]	//  (*)
	.loc 38 1262 0
..LDL42:
/*   1262 */	ldr	x2, [x3, 48]	//  (*)
	.loc 38 1260 0
..LDL43:
/*   1260 */	ldp	x3, x5, [x3, 64]	//  (*)
	.loc 37 1506 0
..LDL44:
/*   1506 */	ldr	x9, [x9, x6]	//  (*)
	.loc 38 1259 0
..LDL45:
/*   1259 */	ldrsw	x13, [x9, x8, lsl #2]	//  (*)
	.loc 38 1262 0
..LDL46:
/*   1262 */	ldrb	w2, [x2, x13]	//  (*)
	.loc 38 1263 0
..LDL47:
/*   1263 */	ldr	x4, [x4, x13, lsl #3]	//  (*)
	.loc 38 1264 0
..LDL48:
/*   1264 */	ldr	d26, [x7, x13, lsl #3]	//  (*)
	.loc 38 1261 0
..LDL49:
/*   1261 */	ldr	x15, [x3, x13, lsl #3]	//  (*)
	.loc 38 1260 0
..LDL50:
/*   1260 */	ldr	x11, [x5, x13, lsl #3]	//  (*)
	.loc 38 1262 0
..LDL51:
/*   1262 */	uxtb	w3, w2
	.loc 38 1263 0
..LDL52:
/*   1263 */	ldr	d28, [x4]	//  (*)
	.loc 38 1266 0
..LDL53:
/*   1266 */	uxtb	w4, w2
/*   1266 */	cmp	w3, 0
/*   1266 */	csel	w2, w3, wzr, ge
/*   1266 */	cbz	w4, .L1394
/*   1266 */	asr	w3, w2, 2
/*   1266 */	mov	x5, 0
/*   1266 */	add	w3, w2, w3, lsr #29
/*   1266 */	asr	w9, w3, 3
/*   1266 */	sub	w12, w2, w9, lsl #3
/*   1266 */	cbz	w9, .L1391
/*   1266 */	sub	w3, w9, 8
/*   1266 */	mov	z0.d, z27.d
/*   1266 */	cmp	w3, 0
/*   1266 */	blt	.L1400
	.loc 38 1268 0 is_stmt 0
..LDL54:
/*   1268 */	ldr	x14, [x0, 24]	//  "xv"
	.loc 38 1267 0
..LDL55:
/*   1267 */	add	x4, x15, 224
	.loc 38 1268 0
..LDL56:
/*   1268 */	mov	z19.d, z27.d
/*   1268 */	mov	z18.d, z27.d
/*   1268 */	add	x2, x11, 448
/*   1268 */	mov	z16.d, z27.d
/*   1268 */	mov	z6.d, z27.d
	.loc 38 1266 0
..LDL57:
/*   1266 */	cmp	w3, 16
	.loc 38 1268 0
..LDL58:
/*   1268 */	mov	z5.d, z27.d
/*   1268 */	mov	z3.d, z27.d
/*   1268 */	mov	z2.d, z27.d
/*   1268 */	mov	z0.d, z27.d
	.loc 38 1266 0
..LDL59:
/*   1266 */	blt	.L1774
	.loc 38 1269 0
..LDL60:
/*   1269 */	mov	z1.d, z0.d
	.loc 38 1267 0
..LDL61:
/*   1267 */	ld1sw	{z31.d}, p1/z, [x4, -7, mul vl]	//  (*)
	.loc 38 1269 0
..LDL62:
/*   1269 */	mov	z22.d, z16.d
/*   1269 */	mov	z4.d, z2.d
/*   1269 */	mov	z7.d, z3.d
	.loc 38 1267 0
..LDL63:
/*   1267 */	ld1sw	{z30.d}, p1/z, [x4, -6, mul vl]	//  (*)
/*   1267 */	ld1sw	{z29.d}, p1/z, [x4, -5, mul vl]	//  (*)
	.loc 38 1269 0
..LDL64:
/*   1269 */	mov	z17.d, z5.d
/*   1269 */	mov	z20.d, z6.d
	.loc 38 1267 0
..LDL65:
/*   1267 */	ld1sw	{z8.d}, p1/z, [x4, -4, mul vl]	//  (*)
/*   1267 */	ld1sw	{z9.d}, p1/z, [x4, -3, mul vl]	//  (*)
	.loc 38 1269 0
..LDL66:
/*   1269 */	mov	z24.d, z18.d
/*   1269 */	mov	z25.d, z19.d
	.loc 38 1267 0
..LDL67:
/*   1267 */	ld1sw	{z10.d}, p1/z, [x4, -2, mul vl]	//  (*)
/*   1267 */	ld1sw	{z16.d}, p1/z, [x4, -1, mul vl]	//  (*)
	.p2align 5
.L1389:					// :entr:term:body:swpl
/*   1267 */	ld1sw	{z0.d}, p1/z, [x4, 0, mul vl]	//  (*)
	.loc 38 1268 0
..LDL68:
/*   1268 */	ld1d	{z31.d}, p1/z, [x14, z31.d, lsl #3]	//  (*)
/*   1268 */	ld1d	{z11.d}, p1/z, [x14, z30.d, lsl #3]	//  (*)
/*   1268 */	ld1d	{z23.d}, p1/z, [x14, z29.d, lsl #3]	//  (*)
/*   1268 */	ld1d	{z21.d}, p1/z, [x14, z8.d, lsl #3]	//  (*)
/*   1268 */	ld1d	{z18.d}, p1/z, [x14, z9.d, lsl #3]	//  (*)
/*   1268 */	ld1d	{z6.d}, p1/z, [x14, z10.d, lsl #3]	//  (*)
/*   1268 */	ld1d	{z3.d}, p1/z, [x14, z16.d, lsl #3]	//  (*)
/*   1268 */	ld1d	{z0.d}, p1/z, [x14, z0.d, lsl #3]	//  (*)
/*   1268 */	ld1d	{z14.d}, p1/z, [x2, -7, mul vl]	//  (*)
/*   1268 */	ld1d	{z13.d}, p1/z, [x2, -6, mul vl]	//  (*)
/*   1268 */	ld1d	{z9.d}, p1/z, [x2, -5, mul vl]	//  (*)
/*   1268 */	ld1d	{z10.d}, p1/z, [x2, -4, mul vl]	//  (*)
/*   1268 */	ld1d	{z19.d}, p1/z, [x2, -3, mul vl]	//  (*)
/*   1268 */	ld1d	{z16.d}, p1/z, [x2, -2, mul vl]	//  (*)
/*   1268 */	ld1d	{z5.d}, p1/z, [x2, -1, mul vl]	//  (*)
/*   1268 */	ld1d	{z2.d}, p1/z, [x2, 0, mul vl]	//  (*)
	.loc 38 1269 0
..LDL69:
/*   1269 */	add	x16, x4, 256
	.loc 38 1267 0
..LDL70:
/*   1267 */	ld1sw	{z29.d}, p1/z, [x4, 1, mul vl]	//  (*)
/*   1267 */	ld1sw	{z8.d}, p1/z, [x4, 2, mul vl]	//  (*)
/*   1267 */	ld1sw	{z30.d}, p1/z, [x4, 3, mul vl]	//  (*)
	.loc 38 1268 0
..LDL71:
/*   1268 */	fmls	z25.d, p1/m, z14.d, z31.d
/*   1268 */	fmls	z24.d, p1/m, z13.d, z11.d
	.loc 38 1267 0
..LDL72:
/*   1267 */	ld1sw	{z31.d}, p1/z, [x4, 4, mul vl]	//  (*)
	.loc 38 1268 0
..LDL73:
/*   1268 */	fmls	z22.d, p1/m, z9.d, z23.d
	.loc 38 1267 0
..LDL74:
/*   1267 */	ld1sw	{z9.d}, p1/z, [x4, 5, mul vl]	//  (*)
	.loc 38 1268 0
..LDL75:
/*   1268 */	fmls	z20.d, p1/m, z10.d, z21.d
	.loc 38 1267 0
..LDL76:
/*   1267 */	ld1sw	{z10.d}, p1/z, [x4, 6, mul vl]	//  (*)
	.loc 38 1268 0
..LDL77:
/*   1268 */	fmsb	z19.d, p1/m, z18.d, z17.d
/*   1268 */	fmsb	z16.d, p1/m, z6.d, z7.d
	.loc 38 1267 0
..LDL78:
/*   1267 */	ld1sw	{z7.d}, p1/z, [x4, 7, mul vl]	//  (*)
	.loc 38 1269 0
..LDL79:
/*   1269 */	add	x17, x2, 512
	.loc 38 1268 0
..LDL80:
/*   1268 */	fmls	z4.d, p1/m, z5.d, z3.d
/*   1268 */	fmls	z1.d, p1/m, z2.d, z0.d
	.loc 38 1267 0
..LDL81:
/*   1267 */	ld1sw	{z0.d}, p1/z, [x16, 0, mul vl]	//  (*)
	.loc 38 1268 0
..LDL82:
/*   1268 */	ld1d	{z11.d}, p1/z, [x14, z29.d, lsl #3]	//  (*)
/*   1268 */	ld1d	{z8.d}, p1/z, [x14, z8.d, lsl #3]	//  (*)
/*   1268 */	ld1d	{z23.d}, p1/z, [x14, z30.d, lsl #3]	//  (*)
/*   1268 */	ld1d	{z21.d}, p1/z, [x14, z31.d, lsl #3]	//  (*)
/*   1268 */	ld1d	{z18.d}, p1/z, [x14, z9.d, lsl #3]	//  (*)
/*   1268 */	ld1d	{z6.d}, p1/z, [x14, z10.d, lsl #3]	//  (*)
/*   1268 */	ld1d	{z3.d}, p1/z, [x14, z7.d, lsl #3]	//  (*)
/*   1268 */	ld1d	{z0.d}, p1/z, [x14, z0.d, lsl #3]	//  (*)
/*   1268 */	ld1d	{z14.d}, p1/z, [x2, 1, mul vl]	//  (*)
/*   1268 */	ld1d	{z13.d}, p1/z, [x2, 2, mul vl]	//  (*)
/*   1268 */	ld1d	{z9.d}, p1/z, [x2, 3, mul vl]	//  (*)
/*   1268 */	ld1d	{z10.d}, p1/z, [x2, 4, mul vl]	//  (*)
/*   1268 */	ld1d	{z17.d}, p1/z, [x2, 5, mul vl]	//  (*)
/*   1268 */	ld1d	{z7.d}, p1/z, [x2, 6, mul vl]	//  (*)
/*   1268 */	ld1d	{z5.d}, p1/z, [x2, 7, mul vl]	//  (*)
/*   1268 */	ld1d	{z2.d}, p1/z, [x17, 0, mul vl]	//  (*)
	.loc 38 1269 0
..LDL83:
/*   1269 */	add	x4, x16, 256
	.loc 38 1267 0
..LDL84:
/*   1267 */	ld1sw	{z31.d}, p1/z, [x16, 1, mul vl]	//  (*)
/*   1267 */	ld1sw	{z30.d}, p1/z, [x16, 2, mul vl]	//  (*)
/*   1267 */	ld1sw	{z29.d}, p1/z, [x16, 3, mul vl]	//  (*)
	.loc 38 1268 0
..LDL85:
/*   1268 */	fmls	z25.d, p1/m, z14.d, z11.d
/*   1268 */	fmls	z24.d, p1/m, z13.d, z8.d
	.loc 38 1267 0
..LDL86:
/*   1267 */	ld1sw	{z8.d}, p1/z, [x16, 4, mul vl]	//  (*)
	.loc 38 1268 0
..LDL87:
/*   1268 */	fmls	z22.d, p1/m, z9.d, z23.d
	.loc 38 1267 0
..LDL88:
/*   1267 */	ld1sw	{z9.d}, p1/z, [x16, 5, mul vl]	//  (*)
	.loc 38 1268 0
..LDL89:
/*   1268 */	fmls	z20.d, p1/m, z10.d, z21.d
	.loc 38 1267 0
..LDL90:
/*   1267 */	ld1sw	{z10.d}, p1/z, [x16, 6, mul vl]	//  (*)
	.loc 38 1268 0
..LDL91:
/*   1268 */	fmsb	z17.d, p1/m, z18.d, z19.d
/*   1268 */	fmsb	z7.d, p1/m, z6.d, z16.d
	.loc 38 1267 0
..LDL92:
/*   1267 */	ld1sw	{z16.d}, p1/z, [x16, 7, mul vl]	//  (*)
/*   1267 */	add	x5, x5, 128
	.loc 38 1269 0
..LDL93:
/*   1269 */	add	x2, x17, 512
	.loc 38 1268 0
..LDL94:
/*   1268 */	fmls	z4.d, p1/m, z5.d, z3.d
/*   1268 */	fmls	z1.d, p1/m, z2.d, z0.d
	.loc 38 1269 0
..LDL95:
/*   1269 */	sub	w3, w3, 16
	.loc 38 1267 0
..LDL96:
/*   1267 */	cmp	w3, 16
/*   1267 */	bge	.L1389
/*   1267 */	ld1sw	{z0.d}, p1/z, [x4, 0, mul vl]	//  (*)
	.loc 38 1268 0
..LDL97:
/*   1268 */	ld1d	{z11.d}, p1/z, [x14, z31.d, lsl #3]	//  (*)
	.loc 38 1269 0
..LDL98:
/*   1269 */	add	x4, x4, 256
/*   1269 */	sub	w3, w3, 8
	.loc 38 1268 0
..LDL99:
/*   1268 */	ld1d	{z13.d}, p1/z, [x14, z30.d, lsl #3]	//  (*)
/*   1268 */	ld1d	{z19.d}, p1/z, [x2, -7, mul vl]	//  (*)
	.loc 38 1267 0
..LDL100:
/*   1267 */	add	x5, x5, 64
	.loc 38 1269 0
..LDL101:
/*   1269 */	cmp	w3, 0
	.loc 38 1268 0
..LDL102:
/*   1268 */	ld1d	{z14.d}, p1/z, [x14, z29.d, lsl #3]	//  (*)
/*   1268 */	ld1d	{z18.d}, p1/z, [x2, -6, mul vl]	//  (*)
/*   1268 */	ld1d	{z23.d}, p1/z, [x14, z16.d, lsl #3]	//  (*)
/*   1268 */	ld1d	{z16.d}, p1/z, [x2, -5, mul vl]	//  (*)
/*   1268 */	ld1d	{z31.d}, p1/z, [x14, z8.d, lsl #3]	//  (*)
/*   1268 */	ld1d	{z6.d}, p1/z, [x2, -4, mul vl]	//  (*)
/*   1268 */	ld1d	{z30.d}, p1/z, [x14, z9.d, lsl #3]	//  (*)
/*   1268 */	ld1d	{z5.d}, p1/z, [x2, -3, mul vl]	//  (*)
/*   1268 */	ld1d	{z29.d}, p1/z, [x14, z10.d, lsl #3]	//  (*)
/*   1268 */	ld1d	{z3.d}, p1/z, [x2, -2, mul vl]	//  (*)
/*   1268 */	ld1d	{z2.d}, p1/z, [x2, -1, mul vl]	//  (*)
/*   1268 */	ld1d	{z21.d}, p1/z, [x14, z0.d, lsl #3]	//  (*)
/*   1268 */	ld1d	{z0.d}, p1/z, [x2, 0, mul vl]	//  (*)
	.loc 38 1269 0
..LDL103:
/*   1269 */	add	x2, x2, 512
	.loc 38 1268 0
..LDL104:
/*   1268 */	fmsb	z19.d, p1/m, z11.d, z25.d
/*   1268 */	fmsb	z18.d, p1/m, z13.d, z24.d
/*   1268 */	fmsb	z16.d, p1/m, z14.d, z22.d
/*   1268 */	fmsb	z2.d, p1/m, z23.d, z4.d
/*   1268 */	fmsb	z6.d, p1/m, z31.d, z20.d
/*   1268 */	fmsb	z5.d, p1/m, z30.d, z17.d
/*   1268 */	fmsb	z3.d, p1/m, z29.d, z7.d
/*   1268 */	fmsb	z0.d, p1/m, z21.d, z1.d
	.loc 38 1269 0
..LDL105:
/*   1269 */	blt	.L1771
.L1774:
	.p2align 5
.L1777:					// :entr:term:mod:swpl
	.loc 38 1267 0 is_stmt 1
..LDL106:
/*   1267 */	ld1sw	{z24.d}, p1/z, [x4, -7, mul vl]	//  (*)
/*   1267 */	ld1sw	{z23.d}, p1/z, [x4, -6, mul vl]	//  (*)
/*   1267 */	add	x5, x5, 64
	.loc 38 1269 0 is_stmt 0
..LDL107:
/*   1269 */	subs	w3, w3, 8
	.loc 38 1267 0
..LDL108:
/*   1267 */	ld1sw	{z4.d}, p1/z, [x4, -5, mul vl]	//  (*)
/*   1267 */	ld1sw	{z10.d}, p1/z, [x4, -4, mul vl]	//  (*)
/*   1267 */	ld1sw	{z21.d}, p1/z, [x4, -3, mul vl]	//  (*)
/*   1267 */	ld1sw	{z22.d}, p1/z, [x4, -2, mul vl]	//  (*)
/*   1267 */	ld1sw	{z29.d}, p1/z, [x4, -1, mul vl]	//  (*)
/*   1267 */	ld1sw	{z25.d}, p1/z, [x4, 0, mul vl]	//  (*)
	.loc 38 1269 0
..LDL109:
/*   1269 */	add	x4, x4, 256
	.loc 38 1268 0 is_stmt 1
..LDL110:
/*   1268 */	ld1d	{z20.d}, p1/z, [x2, -7, mul vl]	//  (*)
/*   1268 */	ld1d	{z1.d}, p1/z, [x2, -6, mul vl]	//  (*)
/*   1268 */	ld1d	{z7.d}, p1/z, [x2, -5, mul vl]	//  (*)
/*   1268 */	ld1d	{z17.d}, p1/z, [x2, -4, mul vl]	//  (*)
/*   1268 */	ld1d	{z9.d}, p1/z, [x2, -3, mul vl]	//  (*)
/*   1268 */	ld1d	{z8.d}, p1/z, [x2, -2, mul vl]	//  (*)
/*   1268 */	ld1d	{z31.d}, p1/z, [x2, -1, mul vl]	//  (*)
/*   1268 */	ld1d	{z30.d}, p1/z, [x2, 0, mul vl]	//  (*)
	.loc 38 1269 0 is_stmt 0
..LDL111:
/*   1269 */	add	x2, x2, 512
	.loc 38 1268 0
..LDL112:
/*   1268 */	ld1d	{z24.d}, p1/z, [x14, z24.d, lsl #3]	//  (*)
/*   1268 */	ld1d	{z23.d}, p1/z, [x14, z23.d, lsl #3]	//  (*)
/*   1268 */	ld1d	{z4.d}, p1/z, [x14, z4.d, lsl #3]	//  (*)
/*   1268 */	ld1d	{z10.d}, p1/z, [x14, z10.d, lsl #3]	//  (*)
/*   1268 */	ld1d	{z21.d}, p1/z, [x14, z21.d, lsl #3]	//  (*)
/*   1268 */	ld1d	{z22.d}, p1/z, [x14, z22.d, lsl #3]	//  (*)
/*   1268 */	ld1d	{z29.d}, p1/z, [x14, z29.d, lsl #3]	//  (*)
/*   1268 */	ld1d	{z25.d}, p1/z, [x14, z25.d, lsl #3]	//  (*)
/*   1268 */	fmls	z19.d, p1/m, z20.d, z24.d
/*   1268 */	fmls	z18.d, p1/m, z1.d, z23.d
/*   1268 */	fmls	z16.d, p1/m, z7.d, z4.d
/*   1268 */	fmls	z6.d, p1/m, z17.d, z10.d
/*   1268 */	fmls	z5.d, p1/m, z9.d, z21.d
/*   1268 */	fmls	z3.d, p1/m, z8.d, z22.d
/*   1268 */	fmls	z2.d, p1/m, z31.d, z29.d
/*   1268 */	fmls	z0.d, p1/m, z30.d, z25.d
	.loc 38 1269 0
..LDL113:
/*   1269 */	bpl	.L1777
.L1771:
	.loc 38 1268 0
..LDL114:
/*   1268 */	fadd	z0.d, z0.d, z2.d
/*   1268 */	fadd	z1.d, z3.d, z5.d
/*   1268 */	fadd	z2.d, z6.d, z16.d
/*   1268 */	fadd	z3.d, z19.d, z18.d
/*   1268 */	fadd	z0.d, z1.d, z0.d
/*   1268 */	fadd	z1.d, z3.d, z2.d
/*   1268 */	fadd	z0.d, z1.d, z0.d
.L1400:
	.loc 38 1266 0 is_stmt 1
..LDL115:
/*   1266 */	adds	w3, w3, 7
/*   1266 */	bmi	.L1390
	.loc 38 1268 0 is_stmt 0
..LDL116:
/*   1268 */	ldr	x2, [x0, 24]	//  "xv"
	.p2align 5
.L1412:					// :entr:term:mod
	.loc 38 1267 0 is_stmt 1
..LDL117:
/*   1267 */	ld1sw	{z1.d}, p1/z, [x15, x5, lsl #2]	//  (*)
	.loc 38 1269 0 is_stmt 0
..LDL118:
/*   1269 */	subs	w3, w3, 1
	.loc 38 1268 0 is_stmt 1
..LDL119:
/*   1268 */	ld1d	{z2.d}, p1/z, [x2, z1.d, lsl #3]	//  (*)
/*   1268 */	ld1d	{z1.d}, p1/z, [x11, x5, lsl #3]	//  (*)
	.loc 38 1267 0 is_stmt 0
..LDL120:
/*   1267 */	add	x5, x5, 8
	.loc 38 1268 0
..LDL121:
/*   1268 */	fmls	z0.d, p1/m, z1.d, z2.d
	.loc 38 1267 0
..LDL122:
/*   1267 */	bpl	.L1412
.L1390:
	.loc 38 1268 0
..LDL123:
/*   1268 */	movprfx	z1, z0
/*   1268 */	ext	z1.b, z1.b, z0.b, 32
/*   1268 */	fadd	z1.d, z1.d, z0.d
/*   1268 */	movprfx	z0, z1
/*   1268 */	ext	z0.b, z0.b, z1.b, 16
/*   1268 */	fadd	z1.d, z1.d, z0.d
/*   1268 */	movprfx	z0, z1
/*   1268 */	ext	z0.b, z0.b, z1.b, 8
/*   1268 */	fadd	z0.d, z1.d, z0.d
/*   1268 */	fadd	d26, d26, d0
.L1391:
	.loc 38 1266 0 is_stmt 1
..LDL124:
/*   1266 */	sbfiz	x2, x9, 3, 32
/*   1266 */	cbz	w12, .L1394
	.loc 38 1267 0 is_stmt 0
..LDL125:
/*   1267 */	whilelt	p0.d, wzr, w12
	.loc 38 1268 0 is_stmt 1
..LDL126:
/*   1268 */	ldr	x3, [x0, 24]	//  "xv"
	.loc 38 1267 0
..LDL127:
/*   1267 */	ld1sw	{z0.d}, p0/z, [x15, x2, lsl #2]	//  (*)
	.loc 38 1268 0
..LDL128:
/*   1268 */	ld1d	{z1.d}, p0/z, [x11, x2, lsl #3]	//  (*)
/*   1268 */	ld1d	{z0.d}, p0/z, [x3, z0.d, lsl #3]	//  (*)
/*   1268 */	fmsb	z1.d, p0/m, z0.d, z27.d
/*   1268 */	sel	z1.d, p0, z1.d, z27.d
/*   1268 */	movprfx	z0, z1
/*   1268 */	ext	z0.b, z0.b, z1.b, 32
/*   1268 */	fadd	z0.d, z1.d, z0.d
/*   1268 */	movprfx	z1, z0
/*   1268 */	ext	z1.b, z1.b, z0.b, 16
/*   1268 */	fadd	z1.d, z0.d, z1.d
/*   1268 */	movprfx	z0, z1
/*   1268 */	ext	z0.b, z0.b, z1.b, 8
/*   1268 */	fadd	z0.d, z1.d, z0.d
/*   1268 */	fadd	d26, d26, d0
.L1394:					// :term
	.loc 38 1271 0
..LDL129:
	.loc 38 1270 0 is_stmt 0
..LDL130:
/*   1270 */	ldr	d2, [x10, x13, lsl #3]	//  (*)
	.loc 38 1271 0
..LDL131:
/*   1271 */	frecpe	d1, d28
	.loc 38 1272 0 is_stmt 1
..LDL132:
/*   1272 */	add	x8, x8, 1
/*   1272 */	cmp	x8, x1
	.loc 38 1271 0
..LDL133:
/*   1271 */	fmsub	d0, d28, d1, d12
/*   1271 */	fmadd	d4, d2, d28, d26
/*   1271 */	fmadd	d3, d0, d0, d0
/*   1271 */	fmul	d2, d0, d0
/*   1271 */	fmul	d1, d4, d1
/*   1271 */	fmadd	d0, d2, d2, d0
/*   1271 */	fmadd	d2, d3, d1, d1
/*   1271 */	fmadd	d0, d0, d2, d1
/*   1271 */	str	d0, [x10, x13, lsl #3]	//  (*)
	.loc 38 1272 0 is_stmt 0
..LDL134:
/*   1272 */	bls	.L1386
	.loc 38 1272 0 is_stmt 1
..LDL135:
.L1397:
/*   1272 */	add	x19, sp, 32
/*   1272 */	ldr	x0, [x19, -16]
/*   1272 */	bl	__mpc_obar
/*   1272 */	ldr	x0, [x19, -16]
/*   1272 */	bl	__mpc_obar
/*    ??? */	add	sp, sp, 48
	.cfi_def_cfa_offset 80
/*    ??? */	ldr	x19, [sp, 56]	//  (*)
	.cfi_restore 19
/*    ??? */	ldr	d14, [sp]	//  (*)
	.cfi_restore 78
/*    ??? */	ldp	d8, d9, [sp, 40]	//  (*)
	.cfi_restore 72
	.cfi_restore 73
/*    ??? */	ldp	d10, d11, [sp, 24]	//  (*)
	.cfi_restore 74
	.cfi_restore 75
/*    ??? */	ldp	d12, d13, [sp, 8]	//  (*)
	.cfi_restore 76
	.cfi_restore 77
/*    ??? */	ldr	x30, [sp, 64]	//  (*)
	.cfi_restore 30
/*   1272 */	add	sp, sp, 80
	.cfi_def_cfa_offset 0
/*   1272 */	ret	
..D2.pchi:
	.cfi_endproc
.LFE1:
	.size	_Z22ComputeFusedSYMGS_SPMVRK19SparseMatrix_STRUCTRK13Vector_STRUCTRS2_S5_._OMP_1, .-_Z22ComputeFusedSYMGS_SPMVRK19SparseMatrix_STRUCTRK13Vector_STRUCTRS2_S5_._OMP_1
	.ident	"$Compiler: Fujitsu C/C++ Compiler 4.7.0 (Nov 10 2021 09:37:15) ../src/ComputeSYMGS.cpp _Z22ComputeFusedSYMGS_SPMVRK19SparseMatrix_STRUCTRK13Vector_STRUCTRS2_S5_._OMP_2 $"
	.text
	.align	2
	.type	_Z22ComputeFusedSYMGS_SPMVRK19SparseMatrix_STRUCTRK13Vector_STRUCTRS2_S5_._OMP_2, %function
_Z22ComputeFusedSYMGS_SPMVRK19SparseMatrix_STRUCTRK13Vector_STRUCTRS2_S5_._OMP_2:
	.loc 38 1280 0
..LDL136:
.LFB2:
	.cfi_startproc
/*   1272 */	sub	sp, sp, 128
	.cfi_def_cfa_offset 128
/*    ??? */	stp	x29, x30, [sp, 112]	//  (*)
	.cfi_offset 29, -16
	.cfi_offset 30, -8
/*    ??? */	stp	x19, x20, [sp, 96]	//  (*)
	.cfi_offset 19, -32
	.cfi_offset 20, -24
/*    ??? */	stp	x21, x22, [sp, 80]	//  (*)
	.cfi_offset 21, -48
	.cfi_offset 22, -40
/*    ??? */	stp	x23, x24, [sp, 64]	//  (*)
	.cfi_offset 23, -64
	.cfi_offset 24, -56
/*    ??? */	stp	d8, d9, [sp, 48]	//  (*)
	.cfi_offset 72, -80
	.cfi_offset 73, -72
/*    ??? */	stp	d10, d11, [sp, 32]	//  (*)
	.cfi_offset 74, -96
	.cfi_offset 75, -88
/*    ??? */	stp	d12, d13, [sp, 16]	//  (*)
	.cfi_offset 76, -112
	.cfi_offset 77, -104
/*    ??? */	stp	d14, d15, [sp]	//  (*)
	.cfi_offset 78, -128
	.cfi_offset 79, -120
/*    ??? */	sub	sp, sp, 64
	.cfi_def_cfa_offset 192
/*   1272 */	str	x1, [sp, 32]
/*   1272 */	str	x2, [sp, 24]
/*   1272 */	str	x3, [sp, 16]
/*   1272 */	str	x4, [sp, 8]
	.loc 38 1280 0 is_stmt 0
..LDL137:
	.loc 38 1280 0 is_stmt 0
..LDL138:
	.loc 38 1282 0 is_stmt 1
..LDL139:
/*   1282 */	ldrsw	x2, [x0]	//  "l"
	.loc 37 1506 0
..LDL140:
/*   1506 */	ldr	x1, [x0, 40]	//  "A"
/*   1506 */	add	x3, x2, x2
/*   1506 */	ldr	x1, [x1, 280]	//  (*)
/*   1506 */	add	x2, x3, x2
/*   1506 */	lsl	x6, x2, 3
	.loc 37 641 0
..LDL141:
/*    641 */	add	x2, x6, 8
/*    641 */	ldr	x2, [x1, x2]	//  (*)
/*    641 */	ldr	x1, [x1, x6]	//  (*)
/*    641 */	sub	x1, x2, x1
/*    641 */	asr	x2, x1, 1
/*    641 */	add	x1, x1, x2, lsr #62
/*    641 */	asr	x1, x1, 2
	.loc 38 1282 0
..LDL142:
/*   1282 */	sub	x1, x1, 1
/*   1282 */	cmp	w1, 0
/*   1282 */	blt	.L1434
/*   1282 */	sxtw	x1, w1
/*   1282 */	add	x2, sp, 32
/*   1282 */	add	x4, x1, 1
/*   1282 */	ldr	x5, [x2]
/*   1282 */	sdiv	x3, x4, x5
/*   1282 */	msub	x4, x5, x3, x4
/*   1282 */	cbnz	x4, .L1418
/*   1282 */	ldr	x2, [x2, -8]
/*   1282 */	msub	x2, x2, x3, x1
/*   1282 */	b	.L1421
.L1418:
/*   1282 */	ldr	x2, [x2, -8]
/*   1282 */	cmp	x2, x4
/*   1282 */	blt	.L1420
/*   1282 */	madd	x2, x2, x3, x4
/*   1282 */	sub	x2, x1, x2
/*   1282 */	b	.L1421
.L1420:
/*   1282 */	add	x3, x3, 1
/*   1282 */	msub	x2, x2, x3, x1
.L1421:
/*   1282 */	mov	x1, 0
/*   1282 */	sub	x1, x1, x3
/*   1282 */	add	x1, x1, 1
/*   1282 */	add	x1, x1, x2
/*   1282 */	cbz	x3, .L1434
	.loc 38 1295 0 is_stmt 0
..LDL143:
/*   1295 */	ldr	x15, [x0, 32]	//  "rv"
	.loc 38 1291 0
..LDL144:
/*   1291 */	index	z26.d, 0, -1
	.loc 38 1282 0
..LDL145:
/*   1282 */	sub	w3, w2, w1
	.loc 38 1295 0
..LDL146:
/*   1295 */	fmov	d15, 1.000000e+00
	.loc 38 1297 0
..LDL147:
/*   1297 */	ldr	x8, [x0, 16]	//  "yv"
	.loc 38 1294 0
..LDL148:
/*   1294 */	ldr	x14, [x0, 24]	//  "xv"
	.loc 38 1282 0
..LDL149:
/*   1282 */	add	w3, w3, 1
/*   1282 */	cmp	w2, w1
	.loc 38 1290 0
..LDL150:
/*   1290 */	ptrue	p1.d, ALL
	.loc 38 1282 0
..LDL151:
/*   1282 */	csinc	w16, w3, wzr, ge
	.loc 38 1283 0
..LDL152:
/*   1283 */	sxtw	x11, w2
	.loc 38 1290 0
..LDL153:
/*   1290 */	mov	x17, 0
.L1423:					// :entr
	.loc 37 1506 0 is_stmt 1
..LDL154:
/*   1506 */	ldr	x2, [x0, 40]	//  "A"
	.loc 38 1287 0
..LDL155:
/*   1287 */	ldr	x3, [x0, 8]	//  "matrixDiagonal"
	.loc 38 1288 0
..LDL156:
/*   1288 */	eor	v1.8b, v1.8b, v1.8b
	.loc 37 1506 0
..LDL157:
/*   1506 */	ldr	x5, [x2, 280]	//  (*)
	.loc 38 1286 0
..LDL158:
/*   1286 */	ldr	x1, [x2, 48]	//  (*)
	.loc 38 1284 0
..LDL159:
/*   1284 */	ldp	x2, x4, [x2, 64]	//  (*)
	.loc 37 1506 0
..LDL160:
/*   1506 */	ldr	x5, [x5, x6]	//  (*)
	.loc 38 1283 0
..LDL161:
/*   1283 */	ldrsw	x10, [x5, x11, lsl #2]	//  (*)
	.loc 38 1286 0
..LDL162:
/*   1286 */	ldrb	w1, [x1, x10]	//  (*)
	.loc 38 1287 0
..LDL163:
/*   1287 */	ldr	x3, [x3, x10, lsl #3]	//  (*)
	.loc 38 1284 0
..LDL164:
/*   1284 */	ldr	x13, [x4, x10, lsl #3]	//  (*)
	.loc 38 1285 0
..LDL165:
/*   1285 */	ldr	x12, [x2, x10, lsl #3]	//  (*)
	.loc 38 1287 0
..LDL166:
/*   1287 */	ldr	d14, [x3]	//  (*)
	.loc 38 1290 0
..LDL167:
/*   1290 */	sub	w2, w1, 1
/*   1290 */	cmp	w1, 0
/*   1290 */	csel	w1, w1, wzr, ge
/*   1290 */	cmp	w2, 0
/*   1290 */	blt	.L1431
	.loc 38 1291 0 is_stmt 0
..LDL168:
/*   1291 */	sxtw	x9, w2
	.loc 38 1290 0
..LDL169:
/*   1290 */	asr	w2, w1, 2
	.loc 38 1292 0
..LDL170:
/*   1292 */	fmov	z19.d, 0.000000e+00
	.loc 38 1290 0
..LDL171:
/*   1290 */	add	w2, w1, w2, lsr #29
/*   1290 */	asr	w7, w2, 3
/*   1290 */	sub	w18, w1, w7, lsl #3
/*   1290 */	cbz	w7, .L1428
/*   1290 */	sub	w4, w7, 8
/*   1290 */	mov	x5, x9
/*   1290 */	cmp	w4, 0
/*   1290 */	blt	.L1437
	.loc 38 1292 0
..LDL172:
/*   1292 */	ldr	x29, [x0, 24]	//  "xv"
/*   1292 */	lsl	x2, x9, 3
/*   1292 */	mov	z18.d, z19.d
/*   1292 */	mov	z16.d, z19.d
	.loc 38 1291 0
..LDL173:
/*   1291 */	lsl	x3, x9, 2
	.loc 38 1292 0
..LDL174:
/*   1292 */	sub	x1, x2, 192
/*   1292 */	mov	z7.d, z19.d
/*   1292 */	mov	z5.d, z19.d
/*   1292 */	mov	z0.d, z19.d
/*   1292 */	mov	z2.d, z19.d
	.loc 38 1291 0
..LDL175:
/*   1291 */	add	x3, x3, x12
	.loc 38 1292 0
..LDL176:
/*   1292 */	mov	z4.d, z19.d
/*   1292 */	add	x2, x2, x13
/*   1292 */	add	x20, x1, x13
	.loc 38 1290 0
..LDL177:
/*   1290 */	cmp	w4, 16
/*   1290 */	blt	.L1785
	.loc 38 1291 0
..LDL178:
/*   1291 */	ld1sw	{z30.d}, p1/z, [x3, z26.d, lsl #2]	//  (*)
/*   1291 */	sub	x1, x3, 32
/*   1291 */	sub	x30, x3, 64
	.loc 38 1293 0
..LDL179:
/*   1293 */	mov	z25.d, z19.d
	.loc 38 1291 0
..LDL180:
/*   1291 */	ld1sw	{z29.d}, p1/z, [x1, z26.d, lsl #2]	//  (*)
/*   1291 */	sub	x1, x3, 96
/*   1291 */	sub	x21, x3, 128
	.loc 38 1293 0
..LDL181:
/*   1293 */	mov	z1.d, z4.d
	.loc 38 1291 0
..LDL182:
/*   1291 */	ld1sw	{z28.d}, p1/z, [x30, z26.d, lsl #2]	//  (*)
/*   1291 */	sub	x30, x3, 160
	.loc 38 1293 0
..LDL183:
/*   1293 */	mov	x19, x20
/*   1293 */	mov	z3.d, z2.d
	.loc 38 1291 0
..LDL184:
/*   1291 */	ld1sw	{z31.d}, p1/z, [x1, z26.d, lsl #2]	//  (*)
	.loc 38 1293 0
..LDL185:
/*   1293 */	mov	z6.d, z0.d
	.loc 38 1291 0
..LDL186:
/*   1291 */	ld1sw	{z8.d}, p1/z, [x21, z26.d, lsl #2]	//  (*)
	.loc 38 1293 0
..LDL187:
/*   1293 */	mov	z17.d, z5.d
	.loc 38 1291 0
..LDL188:
/*   1291 */	ld1sw	{z9.d}, p1/z, [x30, z26.d, lsl #2]	//  (*)
	.loc 38 1293 0
..LDL189:
/*   1293 */	mov	z27.d, z7.d
/*   1293 */	mov	z20.d, z16.d
/*   1293 */	mov	z23.d, z18.d
	.p2align 5
.L1426:					// :entr:term:body:swpl
	.loc 38 1291 0
..LDL190:
/*   1291 */	sub	x1, x3, 192
/*   1291 */	ld1sw	{z2.d}, p1/z, [x1, z26.d, lsl #2]	//  (*)
/*   1291 */	sub	x1, x3, 224
/*   1291 */	ld1sw	{z0.d}, p1/z, [x1, z26.d, lsl #2]	//  (*)
	.loc 38 1292 0
..LDL191:
/*   1292 */	ld1d	{z30.d}, p1/z, [x29, z30.d, lsl #3]	//  (*)
/*   1292 */	ld1d	{z24.d}, p1/z, [x2, z26.d, lsl #3]	//  (*)
/*   1292 */	ld1d	{z29.d}, p1/z, [x29, z29.d, lsl #3]	//  (*)
/*   1292 */	sub	x1, x2, 64
/*   1292 */	ld1d	{z22.d}, p1/z, [x1, z26.d, lsl #3]	//  (*)
/*   1292 */	ld1d	{z28.d}, p1/z, [x29, z28.d, lsl #3]	//  (*)
/*   1292 */	sub	x1, x2, 128
/*   1292 */	ld1d	{z21.d}, p1/z, [x1, z26.d, lsl #3]	//  (*)
/*   1292 */	ld1d	{z11.d}, p1/z, [x29, z31.d, lsl #3]	//  (*)
/*   1292 */	ld1d	{z10.d}, p1/z, [x19, z26.d, lsl #3]	//  (*)
/*   1292 */	ld1d	{z18.d}, p1/z, [x29, z8.d, lsl #3]	//  (*)
/*   1292 */	sub	x1, x19, 64
/*   1292 */	ld1d	{z19.d}, p1/z, [x1, z26.d, lsl #3]	//  (*)
/*   1292 */	ld1d	{z7.d}, p1/z, [x29, z9.d, lsl #3]	//  (*)
/*   1292 */	sub	x1, x19, 128
/*   1292 */	ld1d	{z16.d}, p1/z, [x1, z26.d, lsl #3]	//  (*)
/*   1292 */	ld1d	{z4.d}, p1/z, [x29, z2.d, lsl #3]	//  (*)
/*   1292 */	sub	x1, x19, 192
/*   1292 */	ld1d	{z5.d}, p1/z, [x1, z26.d, lsl #3]	//  (*)
/*   1292 */	ld1d	{z0.d}, p1/z, [x29, z0.d, lsl #3]	//  (*)
/*   1292 */	sub	x1, x19, 256
/*   1292 */	ld1d	{z2.d}, p1/z, [x1, z26.d, lsl #3]	//  (*)
	.loc 38 1293 0
..LDL192:
/*   1293 */	sub	x1, x3, 256
	.loc 38 1291 0
..LDL193:
/*   1291 */	ld1sw	{z8.d}, p1/z, [x1, z26.d, lsl #2]	//  (*)
/*   1291 */	sub	x1, x3, 288
/*   1291 */	ld1sw	{z9.d}, p1/z, [x1, z26.d, lsl #2]	//  (*)
/*   1291 */	sub	x1, x3, 320
/*   1291 */	ld1sw	{z31.d}, p1/z, [x1, z26.d, lsl #2]	//  (*)
	.loc 38 1292 0
..LDL194:
/*   1292 */	fmad	z24.d, p1/m, z30.d, z25.d
	.loc 38 1291 0
..LDL195:
/*   1291 */	sub	x1, x3, 352
	.loc 38 1292 0
..LDL196:
/*   1292 */	fmad	z22.d, p1/m, z29.d, z23.d
	.loc 38 1291 0
..LDL197:
/*   1291 */	ld1sw	{z23.d}, p1/z, [x1, z26.d, lsl #2]	//  (*)
	.loc 38 1292 0
..LDL198:
/*   1292 */	fmad	z21.d, p1/m, z28.d, z20.d
	.loc 38 1291 0
..LDL199:
/*   1291 */	sub	x1, x3, 384
	.loc 38 1292 0
..LDL200:
/*   1292 */	movprfx	z13.d, p1/z, z27.d
/*   1292 */	fmla	z13.d, p1/m, z10.d, z11.d
	.loc 38 1291 0
..LDL201:
/*   1291 */	ld1sw	{z28.d}, p1/z, [x1, z26.d, lsl #2]	//  (*)
	.loc 38 1292 0
..LDL202:
/*   1292 */	fmad	z19.d, p1/m, z18.d, z17.d
	.loc 38 1291 0
..LDL203:
/*   1291 */	sub	x1, x3, 416
/*   1291 */	ld1sw	{z29.d}, p1/z, [x1, z26.d, lsl #2]	//  (*)
	.loc 38 1292 0
..LDL204:
/*   1292 */	fmad	z16.d, p1/m, z7.d, z6.d
	.loc 38 1293 0
..LDL205:
/*   1293 */	sub	x1, x19, 512
/*   1293 */	sub	x30, x2, 512
	.loc 38 1292 0
..LDL206:
/*   1292 */	fmad	z5.d, p1/m, z4.d, z3.d
/*   1292 */	fmad	z2.d, p1/m, z0.d, z1.d
	.loc 38 1291 0
..LDL207:
/*   1291 */	sub	x20, x3, 448
/*   1291 */	ld1sw	{z1.d}, p1/z, [x20, z26.d, lsl #2]	//  (*)
/*   1291 */	sub	x20, x3, 480
/*   1291 */	ld1sw	{z0.d}, p1/z, [x20, z26.d, lsl #2]	//  (*)
	.loc 38 1292 0
..LDL208:
/*   1292 */	ld1d	{z25.d}, p1/z, [x29, z8.d, lsl #3]	//  (*)
/*   1292 */	ld1d	{z10.d}, p1/z, [x30, z26.d, lsl #3]	//  (*)
/*   1292 */	ld1d	{z11.d}, p1/z, [x29, z9.d, lsl #3]	//  (*)
/*   1292 */	sub	x30, x2, 576
/*   1292 */	ld1d	{z12.d}, p1/z, [x30, z26.d, lsl #3]	//  (*)
/*   1292 */	ld1d	{z9.d}, p1/z, [x29, z31.d, lsl #3]	//  (*)
/*   1292 */	sub	x30, x2, 640
/*   1292 */	ld1d	{z20.d}, p1/z, [x30, z26.d, lsl #3]	//  (*)
/*   1292 */	ld1d	{z27.d}, p1/z, [x29, z23.d, lsl #3]	//  (*)
/*   1292 */	ld1d	{z8.d}, p1/z, [x1, z26.d, lsl #3]	//  (*)
/*   1292 */	ld1d	{z18.d}, p1/z, [x29, z28.d, lsl #3]	//  (*)
/*   1292 */	sub	x1, x19, 576
/*   1292 */	ld1d	{z17.d}, p1/z, [x1, z26.d, lsl #3]	//  (*)
/*   1292 */	ld1d	{z7.d}, p1/z, [x29, z29.d, lsl #3]	//  (*)
/*   1292 */	sub	x1, x19, 640
/*   1292 */	ld1d	{z6.d}, p1/z, [x1, z26.d, lsl #3]	//  (*)
/*   1292 */	ld1d	{z4.d}, p1/z, [x29, z1.d, lsl #3]	//  (*)
/*   1292 */	sub	x1, x19, 704
/*   1292 */	ld1d	{z3.d}, p1/z, [x1, z26.d, lsl #3]	//  (*)
/*   1292 */	ld1d	{z0.d}, p1/z, [x29, z0.d, lsl #3]	//  (*)
/*   1292 */	sub	x1, x19, 768
/*   1292 */	ld1d	{z1.d}, p1/z, [x1, z26.d, lsl #3]	//  (*)
	.loc 38 1293 0
..LDL209:
/*   1293 */	sub	x3, x3, 512
	.loc 38 1291 0
..LDL210:
/*   1291 */	ld1sw	{z30.d}, p1/z, [x3, z26.d, lsl #2]	//  (*)
/*   1291 */	sub	x1, x3, 32
/*   1291 */	ld1sw	{z29.d}, p1/z, [x1, z26.d, lsl #2]	//  (*)
/*   1291 */	sub	x1, x3, 64
/*   1291 */	ld1sw	{z28.d}, p1/z, [x1, z26.d, lsl #2]	//  (*)
	.loc 38 1292 0
..LDL211:
/*   1292 */	fmad	z25.d, p1/m, z10.d, z24.d
	.loc 38 1291 0
..LDL212:
/*   1291 */	sub	x1, x3, 96
	.loc 38 1292 0
..LDL213:
/*   1292 */	movprfx	z23.d, p1/z, z22.d
/*   1292 */	fmla	z23.d, p1/m, z12.d, z11.d
	.loc 38 1291 0
..LDL214:
/*   1291 */	ld1sw	{z31.d}, p1/z, [x1, z26.d, lsl #2]	//  (*)
	.loc 38 1292 0
..LDL215:
/*   1292 */	fmad	z20.d, p1/m, z9.d, z21.d
	.loc 38 1291 0
..LDL216:
/*   1291 */	sub	x1, x3, 128
	.loc 38 1292 0
..LDL217:
/*   1292 */	fmad	z27.d, p1/m, z8.d, z13.d
	.loc 38 1291 0
..LDL218:
/*   1291 */	ld1sw	{z8.d}, p1/z, [x1, z26.d, lsl #2]	//  (*)
	.loc 38 1292 0
..LDL219:
/*   1292 */	fmad	z17.d, p1/m, z18.d, z19.d
	.loc 38 1291 0
..LDL220:
/*   1291 */	sub	x1, x3, 160
	.loc 38 1290 0
..LDL221:
/*   1290 */	sub	x5, x5, 128
	.loc 38 1291 0
..LDL222:
/*   1291 */	ld1sw	{z9.d}, p1/z, [x1, z26.d, lsl #2]	//  (*)
	.loc 38 1292 0
..LDL223:
/*   1292 */	fmad	z6.d, p1/m, z7.d, z16.d
	.loc 38 1293 0
..LDL224:
/*   1293 */	sub	x19, x19, 1024
/*   1293 */	sub	x2, x2, 1024
	.loc 38 1292 0
..LDL225:
/*   1292 */	fmad	z3.d, p1/m, z4.d, z5.d
/*   1292 */	fmad	z1.d, p1/m, z0.d, z2.d
	.loc 38 1293 0
..LDL226:
/*   1293 */	sub	w4, w4, 16
	.loc 38 1290 0
..LDL227:
/*   1290 */	cmp	w4, 16
/*   1290 */	bge	.L1426
	.loc 38 1291 0
..LDL228:
/*   1291 */	sub	x1, x3, 192
/*   1291 */	sub	x30, x3, 224
	.loc 38 1292 0
..LDL229:
/*   1292 */	ld1d	{z11.d}, p1/z, [x29, z30.d, lsl #3]	//  (*)
	.loc 38 1291 0
..LDL230:
/*   1291 */	ld1sw	{z22.d}, p1/z, [x1, z26.d, lsl #2]	//  (*)
	.loc 38 1292 0
..LDL231:
/*   1292 */	sub	x20, x2, 64
/*   1292 */	sub	x1, x2, 128
	.loc 38 1291 0
..LDL232:
/*   1291 */	ld1sw	{z21.d}, p1/z, [x30, z26.d, lsl #2]	//  (*)
	.loc 38 1292 0
..LDL233:
/*   1292 */	sub	x23, x19, 64
/*   1292 */	sub	x21, x19, 128
/*   1292 */	sub	x30, x19, 192
/*   1292 */	sub	x22, x19, 256
/*   1292 */	ld1d	{z10.d}, p1/z, [x29, z29.d, lsl #3]	//  (*)
	.loc 38 1293 0
..LDL234:
/*   1293 */	sub	x3, x3, 256
/*   1293 */	sub	w4, w4, 8
	.loc 38 1292 0
..LDL235:
/*   1292 */	ld1d	{z30.d}, p1/z, [x29, z28.d, lsl #3]	//  (*)
/*   1292 */	ld1d	{z19.d}, p1/z, [x2, z26.d, lsl #3]	//  (*)
	.loc 38 1290 0
..LDL236:
/*   1290 */	sub	x5, x5, 64
	.loc 38 1293 0
..LDL237:
/*   1293 */	sub	x2, x2, 512
	.loc 38 1292 0
..LDL238:
/*   1292 */	ld1d	{z18.d}, p1/z, [x20, z26.d, lsl #3]	//  (*)
	.loc 38 1293 0
..LDL239:
/*   1293 */	sub	x20, x19, 512
/*   1293 */	cmp	w4, 0
	.loc 38 1292 0
..LDL240:
/*   1292 */	ld1d	{z16.d}, p1/z, [x1, z26.d, lsl #3]	//  (*)
/*   1292 */	ld1d	{z29.d}, p1/z, [x29, z31.d, lsl #3]	//  (*)
/*   1292 */	ld1d	{z7.d}, p1/z, [x19, z26.d, lsl #3]	//  (*)
/*   1292 */	ld1d	{z28.d}, p1/z, [x29, z8.d, lsl #3]	//  (*)
/*   1292 */	ld1d	{z5.d}, p1/z, [x23, z26.d, lsl #3]	//  (*)
/*   1292 */	ld1d	{z24.d}, p1/z, [x29, z9.d, lsl #3]	//  (*)
/*   1292 */	ld1d	{z0.d}, p1/z, [x21, z26.d, lsl #3]	//  (*)
/*   1292 */	ld1d	{z2.d}, p1/z, [x30, z26.d, lsl #3]	//  (*)
/*   1292 */	ld1d	{z4.d}, p1/z, [x22, z26.d, lsl #3]	//  (*)
/*   1292 */	ld1d	{z22.d}, p1/z, [x29, z22.d, lsl #3]	//  (*)
/*   1292 */	ld1d	{z21.d}, p1/z, [x29, z21.d, lsl #3]	//  (*)
/*   1292 */	fmad	z19.d, p1/m, z11.d, z25.d
/*   1292 */	fmad	z18.d, p1/m, z10.d, z23.d
/*   1292 */	fmad	z16.d, p1/m, z30.d, z20.d
/*   1292 */	fmad	z7.d, p1/m, z29.d, z27.d
/*   1292 */	fmad	z5.d, p1/m, z28.d, z17.d
/*   1292 */	fmad	z0.d, p1/m, z24.d, z6.d
/*   1292 */	fmad	z2.d, p1/m, z22.d, z3.d
/*   1292 */	fmad	z4.d, p1/m, z21.d, z1.d
	.loc 38 1293 0
..LDL241:
/*   1293 */	blt	.L1782
.L1785:
	.p2align 5
.L1788:					// :entr:term:mod:swpl
	.loc 38 1291 0 is_stmt 1
..LDL242:
/*   1291 */	ld1sw	{z6.d}, p1/z, [x3, z26.d, lsl #2]	//  (*)
/*   1291 */	sub	x1, x3, 32
/*   1291 */	sub	x30, x3, 64
/*   1291 */	sub	x19, x3, 96
/*   1291 */	ld1sw	{z3.d}, p1/z, [x30, z26.d, lsl #2]	//  (*)
/*   1291 */	sub	x30, x3, 160
/*   1291 */	ld1sw	{z23.d}, p1/z, [x1, z26.d, lsl #2]	//  (*)
/*   1291 */	sub	x1, x3, 128
/*   1291 */	sub	x24, x3, 192
	.loc 38 1292 0
..LDL243:
/*   1292 */	sub	x23, x2, 64
	.loc 38 1291 0
..LDL244:
/*   1291 */	ld1sw	{z1.d}, p1/z, [x19, z26.d, lsl #2]	//  (*)
/*   1291 */	sub	x21, x3, 224
	.loc 38 1292 0
..LDL245:
/*   1292 */	sub	x22, x2, 128
	.loc 38 1291 0
..LDL246:
/*   1291 */	ld1sw	{z20.d}, p1/z, [x1, z26.d, lsl #2]	//  (*)
	.loc 38 1292 0
..LDL247:
/*   1292 */	sub	x1, x20, 64
	.loc 38 1291 0
..LDL248:
/*   1291 */	ld1sw	{z9.d}, p1/z, [x30, z26.d, lsl #2]	//  (*)
	.loc 38 1292 0
..LDL249:
/*   1292 */	sub	x30, x20, 128
/*   1292 */	sub	x19, x20, 192
	.loc 38 1291 0
..LDL250:
/*   1291 */	ld1sw	{z28.d}, p1/z, [x24, z26.d, lsl #2]	//  (*)
	.loc 38 1292 0
..LDL251:
/*   1292 */	sub	x24, x20, 256
	.loc 38 1290 0 is_stmt 0
..LDL252:
/*   1290 */	sub	x5, x5, 64
	.loc 38 1291 0 is_stmt 1
..LDL253:
/*   1291 */	ld1sw	{z25.d}, p1/z, [x21, z26.d, lsl #2]	//  (*)
	.loc 38 1293 0 is_stmt 0
..LDL254:
/*   1293 */	sub	x3, x3, 256
/*   1293 */	subs	w4, w4, 8
	.loc 38 1292 0 is_stmt 1
..LDL255:
/*   1292 */	ld1d	{z17.d}, p1/z, [x2, z26.d, lsl #3]	//  (*)
	.loc 38 1293 0 is_stmt 0
..LDL256:
/*   1293 */	sub	x2, x2, 512
	.loc 38 1292 0
..LDL257:
/*   1292 */	ld1d	{z22.d}, p1/z, [x23, z26.d, lsl #3]	//  (*)
/*   1292 */	ld1d	{z24.d}, p1/z, [x22, z26.d, lsl #3]	//  (*)
/*   1292 */	ld1d	{z21.d}, p1/z, [x20, z26.d, lsl #3]	//  (*)
	.loc 38 1293 0
..LDL258:
/*   1293 */	sub	x20, x20, 512
	.loc 38 1292 0
..LDL259:
/*   1292 */	ld1d	{z29.d}, p1/z, [x1, z26.d, lsl #3]	//  (*)
/*   1292 */	ld1d	{z8.d}, p1/z, [x30, z26.d, lsl #3]	//  (*)
/*   1292 */	ld1d	{z31.d}, p1/z, [x19, z26.d, lsl #3]	//  (*)
/*   1292 */	ld1d	{z30.d}, p1/z, [x24, z26.d, lsl #3]	//  (*)
/*   1292 */	ld1d	{z6.d}, p1/z, [x29, z6.d, lsl #3]	//  (*)
/*   1292 */	ld1d	{z27.d}, p1/z, [x29, z3.d, lsl #3]	//  (*)
/*   1292 */	ld1d	{z23.d}, p1/z, [x29, z23.d, lsl #3]	//  (*)
/*   1292 */	ld1d	{z3.d}, p1/z, [x29, z1.d, lsl #3]	//  (*)
/*   1292 */	ld1d	{z20.d}, p1/z, [x29, z20.d, lsl #3]	//  (*)
/*   1292 */	ld1d	{z1.d}, p1/z, [x29, z9.d, lsl #3]	//  (*)
/*   1292 */	ld1d	{z28.d}, p1/z, [x29, z28.d, lsl #3]	//  (*)
/*   1292 */	ld1d	{z25.d}, p1/z, [x29, z25.d, lsl #3]	//  (*)
/*   1292 */	fmla	z19.d, p1/m, z17.d, z6.d
/*   1292 */	fmla	z16.d, p1/m, z24.d, z27.d
/*   1292 */	fmla	z18.d, p1/m, z22.d, z23.d
/*   1292 */	fmla	z7.d, p1/m, z21.d, z3.d
/*   1292 */	fmla	z5.d, p1/m, z29.d, z20.d
/*   1292 */	fmla	z0.d, p1/m, z8.d, z1.d
/*   1292 */	fmla	z2.d, p1/m, z31.d, z28.d
/*   1292 */	fmla	z4.d, p1/m, z30.d, z25.d
	.loc 38 1293 0
..LDL260:
/*   1293 */	bpl	.L1788
.L1782:
	.loc 38 1292 0
..LDL261:
/*   1292 */	fadd	z1.d, z4.d, z2.d
/*   1292 */	fadd	z0.d, z0.d, z5.d
/*   1292 */	fadd	z2.d, z7.d, z16.d
/*   1292 */	fadd	z3.d, z19.d, z18.d
/*   1292 */	fadd	z0.d, z0.d, z1.d
/*   1292 */	fadd	z1.d, z3.d, z2.d
/*   1292 */	fadd	z19.d, z1.d, z0.d
.L1437:
	.loc 38 1290 0 is_stmt 1
..LDL262:
/*   1290 */	adds	w1, w4, 7
/*   1290 */	bmi	.L1428
	.loc 38 1292 0 is_stmt 0
..LDL263:
/*   1292 */	ldr	x3, [x0, 24]	//  "xv"
	.p2align 5
.L1449:					// :entr:term:mod
	.loc 38 1291 0 is_stmt 1
..LDL264:
/*   1291 */	index	z0.d, 0, -1
/*   1291 */	mov	x4, x5
	.loc 38 1290 0 is_stmt 0
..LDL265:
/*   1290 */	sub	x5, x5, 8
	.loc 38 1291 0
..LDL266:
/*   1291 */	add	x2, x12, x4, lsl #2
	.loc 38 1293 0
..LDL267:
/*   1293 */	subs	w1, w1, 1
	.loc 38 1292 0 is_stmt 1
..LDL268:
/*   1292 */	add	x4, x13, x4, lsl #3
	.loc 38 1291 0
..LDL269:
/*   1291 */	ld1sw	{z1.d}, p1/z, [x2, z0.d, lsl #2]	//  (*)
	.loc 38 1292 0
..LDL270:
/*   1292 */	ld1d	{z0.d}, p1/z, [x4, z0.d, lsl #3]	//  (*)
/*   1292 */	ld1d	{z1.d}, p1/z, [x3, z1.d, lsl #3]	//  (*)
/*   1292 */	fmla	z19.d, p1/m, z0.d, z1.d
	.loc 38 1290 0 is_stmt 0
..LDL271:
/*   1290 */	bpl	.L1449
.L1428:
	.loc 38 1290 0 is_stmt 1
..LDL272:
/*   1290 */	sbfiz	x1, x7, 3, 32
/*   1290 */	sub	x1, x17, x1
/*   1290 */	add	x1, x1, x9
/*   1290 */	cbz	w18, .L1430
/*   1290 */	whilelt	p0.d, wzr, w18
	.loc 38 1292 0
..LDL273:
/*   1292 */	ldr	x3, [x0, 24]	//  "xv"
	.loc 38 1291 0
..LDL274:
/*   1291 */	add	x2, x12, x1, lsl #2
	.loc 38 1292 0
..LDL275:
/*   1292 */	add	x1, x13, x1, lsl #3
	.loc 38 1291 0
..LDL276:
/*   1291 */	ld1sw	{z0.d}, p0/z, [x2, z26.d, lsl #2]	//  (*)
	.loc 38 1292 0
..LDL277:
/*   1292 */	ld1d	{z1.d}, p0/z, [x1, z26.d, lsl #3]	//  (*)
/*   1292 */	ld1d	{z0.d}, p0/z, [x3, z0.d, lsl #3]	//  (*)
/*   1292 */	fmla	z19.d, p0/m, z0.d, z1.d
.L1430:
/*   1292 */	movprfx	z0, z19
/*   1292 */	ext	z0.b, z0.b, z19.b, 32
/*   1292 */	fadd	z0.d, z0.d, z19.d
/*   1292 */	movprfx	z1, z0
/*   1292 */	ext	z1.b, z1.b, z0.b, 16
/*   1292 */	fadd	z1.d, z0.d, z1.d
/*   1292 */	movprfx	z0, z1
/*   1292 */	ext	z0.b, z0.b, z1.b, 8
/*   1292 */	fadd	z1.d, z1.d, z0.d
.L1431:					// :term
	.loc 38 1294 0
..LDL278:
/*   1294 */	ldr	d0, [x14, x10, lsl #3]	//  (*)
	.loc 38 1295 0
..LDL279:
/*   1295 */	ldr	d4, [x15, x10, lsl #3]	//  (*)
/*   1295 */	frecpe	d2, d14
	.loc 38 1298 0
..LDL280:
/*   1298 */	sub	x11, x11, 1
/*   1298 */	subs	w16, w16, 1
	.loc 38 1295 0
..LDL281:
/*   1295 */	fmsub	d3, d14, d2, d15
	.loc 38 1294 0
..LDL282:
/*   1294 */	fmsub	d1, d0, d14, d1
	.loc 38 1295 0
..LDL283:
/*   1295 */	fmadd	d0, d3, d3, d3
/*   1295 */	fmul	d5, d3, d3
/*   1295 */	fsub	d4, d4, d1
/*   1295 */	fmadd	d3, d5, d5, d3
/*   1295 */	fmul	d2, d4, d2
/*   1295 */	fmadd	d0, d0, d2, d2
/*   1295 */	fmadd	d0, d3, d0, d2
	.loc 38 1296 0
..LDL284:
/*   1296 */	fmadd	d1, d0, d14, d1
	.loc 38 1295 0
..LDL285:
/*   1295 */	str	d0, [x14, x10, lsl #3]	//  (*)
	.loc 38 1297 0
..LDL286:
/*   1297 */	str	d1, [x8, x10, lsl #3]	//  (*)
	.loc 38 1298 0 is_stmt 0
..LDL287:
/*   1298 */	bne	.L1423
	.loc 38 1298 0 is_stmt 1
..LDL288:
.L1434:
/*   1298 */	add	x19, sp, 32
/*   1298 */	ldr	x0, [x19, -16]
/*   1298 */	bl	__mpc_obar
/*   1298 */	ldr	x0, [x19, -16]
/*   1298 */	bl	__mpc_obar
/*    ??? */	add	sp, sp, 64
	.cfi_def_cfa_offset 128
/*    ??? */	ldp	x19, x20, [sp, 96]	//  (*)
	.cfi_restore 19
	.cfi_restore 20
/*    ??? */	ldp	x21, x22, [sp, 80]	//  (*)
	.cfi_restore 21
	.cfi_restore 22
/*    ??? */	ldp	x23, x24, [sp, 64]	//  (*)
	.cfi_restore 23
	.cfi_restore 24
/*    ??? */	ldp	d8, d9, [sp, 48]	//  (*)
	.cfi_restore 72
	.cfi_restore 73
/*    ??? */	ldp	d10, d11, [sp, 32]	//  (*)
	.cfi_restore 74
	.cfi_restore 75
/*    ??? */	ldp	d12, d13, [sp, 16]	//  (*)
	.cfi_restore 76
	.cfi_restore 77
/*    ??? */	ldp	d14, d15, [sp]	//  (*)
	.cfi_restore 78
	.cfi_restore 79
/*    ??? */	ldp	x29, x30, [sp, 112]	//  (*)
	.cfi_restore 29
	.cfi_restore 30
/*   1298 */	add	sp, sp, 128
	.cfi_def_cfa_offset 0
/*   1298 */	ret	
..D3.pchi:
	.cfi_endproc
.LFE2:
	.size	_Z22ComputeFusedSYMGS_SPMVRK19SparseMatrix_STRUCTRK13Vector_STRUCTRS2_S5_._OMP_2, .-_Z22ComputeFusedSYMGS_SPMVRK19SparseMatrix_STRUCTRK13Vector_STRUCTRS2_S5_._OMP_2
	.ident	"$Compiler: Fujitsu C/C++ Compiler 4.7.0 (Nov 10 2021 09:37:15) ../src/ComputeSYMGS.cpp _Z16ComputeSYMGS_TDGRK19SparseMatrix_STRUCTRK13Vector_STRUCTRS2_R9TraceData $"
	.text
	.align	2
	.global	_Z16ComputeSYMGS_TDGRK19SparseMatrix_STRUCTRK13Vector_STRUCTRS2_R9TraceData
	.type	_Z16ComputeSYMGS_TDGRK19SparseMatrix_STRUCTRK13Vector_STRUCTRS2_R9TraceData, %function
_Z16ComputeSYMGS_TDGRK19SparseMatrix_STRUCTRK13Vector_STRUCTRS2_R9TraceData:
	.loc 38 1304 0
..LDL289:
.LFB3:
	.cfi_startproc
/*   1368 */	sub	sp, sp, 48
	.cfi_def_cfa_offset 48
/*    ??? */	str	x30, [sp, 32]	//  (*)
	.cfi_offset 30, -16
/*    ??? */	stp	x19, x20, [sp, 16]	//  (*)
	.cfi_offset 19, -32
	.cfi_offset 20, -24
/*    ??? */	stp	x21, x22, [sp]	//  (*)
	.cfi_offset 21, -48
	.cfi_offset 22, -40
/*    ??? */	sub	sp, sp, 80
	.cfi_def_cfa_offset 128
/*   1304 */	add	x19, sp, 8
/*   1304 */	str	x0, [x19, 32]
	.loc 38 1306 0
..LDL290:
/*   1306 */	ldr	w3, [x2]	//  (*)
/*   1306 */	ldr	w4, [x0, 36]	//  (*)
/*   1306 */	cmp	w3, w4
/*   1306 */	bne	.L1464
	.loc 38 1312 0
..LDL291:
/*   1312 */	ldr	x1, [x1, 8]	//  (*)
/*   1312 */	str	x1, [x19, 24]
	.loc 38 1313 0
..LDL292:
/*   1313 */	ldr	x1, [x2, 8]	//  (*)
/*   1313 */	str	x1, [x19, 16]
	.loc 38 1314 0
..LDL293:
/*   1314 */	ldr	x1, [x0, 80]	//  (*)
/*   1314 */	str	x1, [x19, 8]
	.loc 38 1324 0
..LDL294:
/*   1324 */	str	wzr, [x19, 4]
	.loc 37 641 0
..LDL295:
/*    641 */	ldp	x0, x1, [x0, 280]	//  (*)
/*    641 */	sub	x0, x1, x0
/*    641 */	mov	x1, 24
/*    641 */	sdiv	x0, x0, x1
	.loc 38 1324 0
..LDL296:
/*   1324 */	cbz	x0, .L1458
	.loc 38 1326 0 is_stmt 0
..LDL297:
/*   1326 */	adrp	x0, _Z16ComputeSYMGS_TDGRK19SparseMatrix_STRUCTRK13Vector_STRUCTRS2_R9TraceData._OMP_3
	.loc 37 641 0
..LDL298:
/*    641 */	mov	x20, 24
	.loc 38 1344 0
..LDL299:
/*   1344 */	add	x22, x19, 32
	.loc 38 1326 0
..LDL300:
/*   1326 */	add	x21, x0, :lo12:_Z16ComputeSYMGS_TDGRK19SparseMatrix_STRUCTRK13Vector_STRUCTRS2_R9TraceData._OMP_3
	.p2align 5
.L1456:					// :entr:term
	.loc 38 1326 0 is_stmt 0
..LDL301:
/*   1326 */	mov	x2, 0
/*   1326 */	mov	x0, x21
/*   1326 */	mov	x1, x19
/*   1326 */	bl	__mpc_opar
	.loc 38 1344 0 is_stmt 1
..LDL302:
/*   1344 */	ldr	w0, [x22, -28]
	.loc 37 641 0
..LDL303:
/*    641 */	ldr	x2, [x22]
	.loc 38 1344 0
..LDL304:
/*   1344 */	add	w0, w0, 1
/*   1344 */	str	w0, [x22, -28]
/*   1344 */	sxtw	x1, w0
	.loc 37 641 0
..LDL305:
/*    641 */	ldp	x2, x0, [x2, 280]	//  (*)
/*    641 */	sub	x0, x0, x2
/*    641 */	sdiv	x0, x0, x20
	.loc 38 1344 0
..LDL306:
/*   1344 */	cmp	x1, x0
/*   1344 */	bcc	.L1456
.L1458:
	.loc 37 641 0
..LDL307:
/*    641 */	ldr	x0, [x19, 32]
/*    641 */	ldp	x0, x1, [x0, 280]	//  (*)
/*    641 */	sub	x0, x1, x0
/*    641 */	mov	x1, 24
/*    641 */	sdiv	x0, x0, x1
	.loc 38 1349 0
..LDL308:
/*   1349 */	sub	x0, x0, 1
/*   1349 */	str	w0, [x19]
/*   1349 */	cmp	w0, 0
/*   1349 */	blt	.L1463
	.loc 38 1351 0 is_stmt 0
..LDL309:
/*   1351 */	adrp	x0, _Z16ComputeSYMGS_TDGRK19SparseMatrix_STRUCTRK13Vector_STRUCTRS2_R9TraceData._OMP_4
/*   1351 */	add	x20, x0, :lo12:_Z16ComputeSYMGS_TDGRK19SparseMatrix_STRUCTRK13Vector_STRUCTRS2_R9TraceData._OMP_4
	.p2align 5
.L1461:					// :entr:term
	.loc 38 1351 0 is_stmt 0
..LDL310:
/*   1351 */	mov	x2, 0
/*   1351 */	mov	x0, x20
/*   1351 */	mov	x1, x19
/*   1351 */	bl	__mpc_opar
	.loc 38 1369 0 is_stmt 1
..LDL311:
/*   1369 */	ldr	w0, [x19]
/*   1369 */	sub	w0, w0, 1
/*   1369 */	str	w0, [x19]
/*   1369 */	cmp	w0, 0
/*   1369 */	bge	.L1461
.L1463:
	.loc 38 1374 0
..LDL312:
/*   1374 */	mov	w0, 0
/*   1374 */	b	.L1465
.L1464:
	.loc 38 1306 0
..LDL313:
/*   1306 */	adrp	x0, .LR.3
/*   1306 */	adrp	x1, .LR.2
/*   1306 */	mov	w2, 1306
/*   1306 */	add	x0, x0, :lo12:.LR.3
/*   1306 */	add	x1, x1, :lo12:.LR.2
/*   1306 */	adrp	x3, .LR.5
/*   1306 */	add	x3, x3, :lo12:.LR.5
/*   1306 */	bl	__assert_fail
.L1465:					// :epi:term
	.loc 38 1375 0
..LDL314:
/*    ??? */	add	sp, sp, 80
	.cfi_def_cfa_offset 48
/*    ??? */	ldp	x19, x20, [sp, 16]	//  (*)
	.cfi_restore 19
	.cfi_restore 20
/*    ??? */	ldp	x21, x22, [sp]	//  (*)
	.cfi_restore 21
	.cfi_restore 22
/*    ??? */	ldr	x30, [sp, 32]	//  (*)
	.cfi_restore 30
/*   1375 */	add	sp, sp, 48
	.cfi_def_cfa_offset 0
/*   1375 */	ret	
..D4.pchi:
	.cfi_endproc
.LFE3:
	.size	_Z16ComputeSYMGS_TDGRK19SparseMatrix_STRUCTRK13Vector_STRUCTRS2_R9TraceData, .-_Z16ComputeSYMGS_TDGRK19SparseMatrix_STRUCTRK13Vector_STRUCTRS2_R9TraceData
	.ident	"$Compiler: Fujitsu C/C++ Compiler 4.7.0 (Nov 10 2021 09:37:15) ../src/ComputeSYMGS.cpp _Z16ComputeSYMGS_TDGRK19SparseMatrix_STRUCTRK13Vector_STRUCTRS2_R9TraceData._OMP_3 $"
	.text
	.align	2
	.type	_Z16ComputeSYMGS_TDGRK19SparseMatrix_STRUCTRK13Vector_STRUCTRS2_R9TraceData._OMP_3, %function
_Z16ComputeSYMGS_TDGRK19SparseMatrix_STRUCTRK13Vector_STRUCTRS2_R9TraceData._OMP_3:
	.loc 38 1326 0
..LDL315:
.LFB4:
	.cfi_startproc
/*   1302 */	sub	sp, sp, 80
	.cfi_def_cfa_offset 80
/*    ??? */	stp	x19, x30, [sp, 56]	//  (*)
	.cfi_offset 30, -16
	.cfi_offset 19, -24
/*    ??? */	stp	d8, d9, [sp, 40]	//  (*)
	.cfi_offset 72, -40
	.cfi_offset 73, -32
/*    ??? */	stp	d10, d11, [sp, 24]	//  (*)
	.cfi_offset 74, -56
	.cfi_offset 75, -48
/*    ??? */	stp	d12, d13, [sp, 8]	//  (*)
	.cfi_offset 76, -72
	.cfi_offset 77, -64
/*    ??? */	str	d14, [sp]	//  (*)
	.cfi_offset 78, -80
/*    ??? */	sub	sp, sp, 48
	.cfi_def_cfa_offset 128
/*   1302 */	str	x1, [sp, 32]
/*   1302 */	str	x2, [sp, 24]
/*   1302 */	str	x3, [sp, 16]
/*   1302 */	str	x4, [sp, 8]
	.loc 38 1326 0 is_stmt 0
..LDL316:
	.loc 38 1326 0 is_stmt 0
..LDL317:
	.loc 38 1329 0 is_stmt 1
..LDL318:
/*   1329 */	ldrsw	x2, [x0, 4]	//  "l"
	.loc 37 1506 0
..LDL319:
/*   1506 */	ldr	x1, [x0, 32]	//  "A"
/*   1506 */	add	x3, x2, x2
/*   1506 */	ldr	x1, [x1, 280]	//  (*)
/*   1506 */	add	x2, x3, x2
/*   1506 */	lsl	x6, x2, 3
	.loc 37 641 0
..LDL320:
/*    641 */	add	x2, x6, 8
/*    641 */	ldr	x2, [x1, x2]	//  (*)
/*    641 */	ldr	x1, [x1, x6]	//  (*)
/*    641 */	sub	x1, x2, x1
/*    641 */	asr	x2, x1, 1
/*    641 */	add	x1, x1, x2, lsr #62
/*    641 */	asr	x1, x1, 2
/*   1329 */	cbz	x1, .L1486
	.loc 38 1329 0
..LDL321:
/*   1329 */	add	x2, sp, 32
/*   1329 */	ldr	x4, [x2]
/*   1329 */	sdiv	x3, x1, x4
/*   1329 */	msub	x1, x4, x3, x1
/*   1329 */	cbnz	x1, .L1470
/*   1329 */	ldr	x1, [x2, -8]
/*   1329 */	mul	x2, x1, x3
/*   1329 */	b	.L1473
.L1470:
/*   1329 */	ldr	x2, [x2, -8]
/*   1329 */	cmp	x2, x1
/*   1329 */	blt	.L1472
/*   1329 */	madd	x2, x2, x3, x1
/*   1329 */	b	.L1473
.L1472:
/*   1329 */	add	x3, x3, 1
/*   1329 */	mul	x2, x2, x3
.L1473:
/*   1329 */	sub	x1, x3, 1
/*   1329 */	add	x1, x1, x2
/*   1329 */	cbz	x3, .L1486
	.loc 38 1338 0 is_stmt 0
..LDL322:
/*   1338 */	ptrue	p1.d, ALL
	.loc 38 1335 0
..LDL323:
/*   1335 */	ldr	x7, [x0, 24]	//  "rv"
	.loc 38 1342 0
..LDL324:
/*   1342 */	fmov	d12, 1.000000e+00
	.loc 38 1341 0
..LDL325:
/*   1341 */	ldr	x10, [x0, 16]	//  "xv"
	.loc 38 1339 0
..LDL326:
/*   1339 */	fmov	z27.d, 0.000000e+00
	.loc 38 1330 0
..LDL327:
/*   1330 */	sxtw	x8, w2
.L1475:					// :entr
	.loc 37 1506 0 is_stmt 1
..LDL328:
/*   1506 */	ldr	x3, [x0, 32]	//  "A"
	.loc 38 1334 0
..LDL329:
/*   1334 */	ldr	x4, [x0, 8]	//  "matrixDiagonal"
	.loc 37 1506 0
..LDL330:
/*   1506 */	ldr	x9, [x3, 280]	//  (*)
	.loc 38 1333 0
..LDL331:
/*   1333 */	ldr	x2, [x3, 48]	//  (*)
	.loc 38 1331 0
..LDL332:
/*   1331 */	ldp	x3, x5, [x3, 64]	//  (*)
	.loc 37 1506 0
..LDL333:
/*   1506 */	ldr	x9, [x9, x6]	//  (*)
	.loc 38 1330 0
..LDL334:
/*   1330 */	ldrsw	x13, [x9, x8, lsl #2]	//  (*)
	.loc 38 1333 0
..LDL335:
/*   1333 */	ldrb	w2, [x2, x13]	//  (*)
	.loc 38 1334 0
..LDL336:
/*   1334 */	ldr	x4, [x4, x13, lsl #3]	//  (*)
	.loc 38 1335 0
..LDL337:
/*   1335 */	ldr	d26, [x7, x13, lsl #3]	//  (*)
	.loc 38 1332 0
..LDL338:
/*   1332 */	ldr	x15, [x3, x13, lsl #3]	//  (*)
	.loc 38 1331 0
..LDL339:
/*   1331 */	ldr	x11, [x5, x13, lsl #3]	//  (*)
	.loc 38 1333 0
..LDL340:
/*   1333 */	uxtb	w3, w2
	.loc 38 1334 0
..LDL341:
/*   1334 */	ldr	d28, [x4]	//  (*)
	.loc 38 1337 0
..LDL342:
/*   1337 */	uxtb	w4, w2
/*   1337 */	cmp	w3, 0
/*   1337 */	csel	w2, w3, wzr, ge
/*   1337 */	cbz	w4, .L1483
/*   1337 */	asr	w3, w2, 2
/*   1337 */	mov	x5, 0
/*   1337 */	add	w3, w2, w3, lsr #29
/*   1337 */	asr	w9, w3, 3
/*   1337 */	sub	w12, w2, w9, lsl #3
/*   1337 */	cbz	w9, .L1480
/*   1337 */	sub	w3, w9, 8
/*   1337 */	mov	z0.d, z27.d
/*   1337 */	cmp	w3, 0
/*   1337 */	blt	.L1489
	.loc 38 1339 0 is_stmt 0
..LDL343:
/*   1339 */	ldr	x14, [x0, 16]	//  "xv"
	.loc 38 1338 0
..LDL344:
/*   1338 */	add	x4, x15, 224
	.loc 38 1339 0
..LDL345:
/*   1339 */	mov	z19.d, z27.d
/*   1339 */	mov	z18.d, z27.d
/*   1339 */	add	x2, x11, 448
/*   1339 */	mov	z16.d, z27.d
/*   1339 */	mov	z6.d, z27.d
	.loc 38 1337 0
..LDL346:
/*   1337 */	cmp	w3, 16
	.loc 38 1339 0
..LDL347:
/*   1339 */	mov	z5.d, z27.d
/*   1339 */	mov	z3.d, z27.d
/*   1339 */	mov	z2.d, z27.d
/*   1339 */	mov	z0.d, z27.d
	.loc 38 1337 0
..LDL348:
/*   1337 */	blt	.L1796
	.loc 38 1340 0
..LDL349:
/*   1340 */	mov	z1.d, z0.d
	.loc 38 1338 0
..LDL350:
/*   1338 */	ld1sw	{z31.d}, p1/z, [x4, -7, mul vl]	//  (*)
	.loc 38 1340 0
..LDL351:
/*   1340 */	mov	z22.d, z16.d
/*   1340 */	mov	z4.d, z2.d
/*   1340 */	mov	z7.d, z3.d
	.loc 38 1338 0
..LDL352:
/*   1338 */	ld1sw	{z30.d}, p1/z, [x4, -6, mul vl]	//  (*)
/*   1338 */	ld1sw	{z29.d}, p1/z, [x4, -5, mul vl]	//  (*)
	.loc 38 1340 0
..LDL353:
/*   1340 */	mov	z17.d, z5.d
/*   1340 */	mov	z20.d, z6.d
	.loc 38 1338 0
..LDL354:
/*   1338 */	ld1sw	{z8.d}, p1/z, [x4, -4, mul vl]	//  (*)
/*   1338 */	ld1sw	{z9.d}, p1/z, [x4, -3, mul vl]	//  (*)
	.loc 38 1340 0
..LDL355:
/*   1340 */	mov	z24.d, z18.d
/*   1340 */	mov	z25.d, z19.d
	.loc 38 1338 0
..LDL356:
/*   1338 */	ld1sw	{z10.d}, p1/z, [x4, -2, mul vl]	//  (*)
/*   1338 */	ld1sw	{z16.d}, p1/z, [x4, -1, mul vl]	//  (*)
	.p2align 5
.L1478:					// :entr:term:body:swpl
/*   1338 */	ld1sw	{z0.d}, p1/z, [x4, 0, mul vl]	//  (*)
	.loc 38 1339 0
..LDL357:
/*   1339 */	ld1d	{z31.d}, p1/z, [x14, z31.d, lsl #3]	//  (*)
/*   1339 */	ld1d	{z11.d}, p1/z, [x14, z30.d, lsl #3]	//  (*)
/*   1339 */	ld1d	{z23.d}, p1/z, [x14, z29.d, lsl #3]	//  (*)
/*   1339 */	ld1d	{z21.d}, p1/z, [x14, z8.d, lsl #3]	//  (*)
/*   1339 */	ld1d	{z18.d}, p1/z, [x14, z9.d, lsl #3]	//  (*)
/*   1339 */	ld1d	{z6.d}, p1/z, [x14, z10.d, lsl #3]	//  (*)
/*   1339 */	ld1d	{z3.d}, p1/z, [x14, z16.d, lsl #3]	//  (*)
/*   1339 */	ld1d	{z0.d}, p1/z, [x14, z0.d, lsl #3]	//  (*)
/*   1339 */	ld1d	{z14.d}, p1/z, [x2, -7, mul vl]	//  (*)
/*   1339 */	ld1d	{z13.d}, p1/z, [x2, -6, mul vl]	//  (*)
/*   1339 */	ld1d	{z9.d}, p1/z, [x2, -5, mul vl]	//  (*)
/*   1339 */	ld1d	{z10.d}, p1/z, [x2, -4, mul vl]	//  (*)
/*   1339 */	ld1d	{z19.d}, p1/z, [x2, -3, mul vl]	//  (*)
/*   1339 */	ld1d	{z16.d}, p1/z, [x2, -2, mul vl]	//  (*)
/*   1339 */	ld1d	{z5.d}, p1/z, [x2, -1, mul vl]	//  (*)
/*   1339 */	ld1d	{z2.d}, p1/z, [x2, 0, mul vl]	//  (*)
	.loc 38 1340 0
..LDL358:
/*   1340 */	add	x16, x4, 256
	.loc 38 1338 0
..LDL359:
/*   1338 */	ld1sw	{z29.d}, p1/z, [x4, 1, mul vl]	//  (*)
/*   1338 */	ld1sw	{z8.d}, p1/z, [x4, 2, mul vl]	//  (*)
/*   1338 */	ld1sw	{z30.d}, p1/z, [x4, 3, mul vl]	//  (*)
	.loc 38 1339 0
..LDL360:
/*   1339 */	fmls	z25.d, p1/m, z14.d, z31.d
/*   1339 */	fmls	z24.d, p1/m, z13.d, z11.d
	.loc 38 1338 0
..LDL361:
/*   1338 */	ld1sw	{z31.d}, p1/z, [x4, 4, mul vl]	//  (*)
	.loc 38 1339 0
..LDL362:
/*   1339 */	fmls	z22.d, p1/m, z9.d, z23.d
	.loc 38 1338 0
..LDL363:
/*   1338 */	ld1sw	{z9.d}, p1/z, [x4, 5, mul vl]	//  (*)
	.loc 38 1339 0
..LDL364:
/*   1339 */	fmls	z20.d, p1/m, z10.d, z21.d
	.loc 38 1338 0
..LDL365:
/*   1338 */	ld1sw	{z10.d}, p1/z, [x4, 6, mul vl]	//  (*)
	.loc 38 1339 0
..LDL366:
/*   1339 */	fmsb	z19.d, p1/m, z18.d, z17.d
/*   1339 */	fmsb	z16.d, p1/m, z6.d, z7.d
	.loc 38 1338 0
..LDL367:
/*   1338 */	ld1sw	{z7.d}, p1/z, [x4, 7, mul vl]	//  (*)
	.loc 38 1340 0
..LDL368:
/*   1340 */	add	x17, x2, 512
	.loc 38 1339 0
..LDL369:
/*   1339 */	fmls	z4.d, p1/m, z5.d, z3.d
/*   1339 */	fmls	z1.d, p1/m, z2.d, z0.d
	.loc 38 1338 0
..LDL370:
/*   1338 */	ld1sw	{z0.d}, p1/z, [x16, 0, mul vl]	//  (*)
	.loc 38 1339 0
..LDL371:
/*   1339 */	ld1d	{z11.d}, p1/z, [x14, z29.d, lsl #3]	//  (*)
/*   1339 */	ld1d	{z8.d}, p1/z, [x14, z8.d, lsl #3]	//  (*)
/*   1339 */	ld1d	{z23.d}, p1/z, [x14, z30.d, lsl #3]	//  (*)
/*   1339 */	ld1d	{z21.d}, p1/z, [x14, z31.d, lsl #3]	//  (*)
/*   1339 */	ld1d	{z18.d}, p1/z, [x14, z9.d, lsl #3]	//  (*)
/*   1339 */	ld1d	{z6.d}, p1/z, [x14, z10.d, lsl #3]	//  (*)
/*   1339 */	ld1d	{z3.d}, p1/z, [x14, z7.d, lsl #3]	//  (*)
/*   1339 */	ld1d	{z0.d}, p1/z, [x14, z0.d, lsl #3]	//  (*)
/*   1339 */	ld1d	{z14.d}, p1/z, [x2, 1, mul vl]	//  (*)
/*   1339 */	ld1d	{z13.d}, p1/z, [x2, 2, mul vl]	//  (*)
/*   1339 */	ld1d	{z9.d}, p1/z, [x2, 3, mul vl]	//  (*)
/*   1339 */	ld1d	{z10.d}, p1/z, [x2, 4, mul vl]	//  (*)
/*   1339 */	ld1d	{z17.d}, p1/z, [x2, 5, mul vl]	//  (*)
/*   1339 */	ld1d	{z7.d}, p1/z, [x2, 6, mul vl]	//  (*)
/*   1339 */	ld1d	{z5.d}, p1/z, [x2, 7, mul vl]	//  (*)
/*   1339 */	ld1d	{z2.d}, p1/z, [x17, 0, mul vl]	//  (*)
	.loc 38 1340 0
..LDL372:
/*   1340 */	add	x4, x16, 256
	.loc 38 1338 0
..LDL373:
/*   1338 */	ld1sw	{z31.d}, p1/z, [x16, 1, mul vl]	//  (*)
/*   1338 */	ld1sw	{z30.d}, p1/z, [x16, 2, mul vl]	//  (*)
/*   1338 */	ld1sw	{z29.d}, p1/z, [x16, 3, mul vl]	//  (*)
	.loc 38 1339 0
..LDL374:
/*   1339 */	fmls	z25.d, p1/m, z14.d, z11.d
/*   1339 */	fmls	z24.d, p1/m, z13.d, z8.d
	.loc 38 1338 0
..LDL375:
/*   1338 */	ld1sw	{z8.d}, p1/z, [x16, 4, mul vl]	//  (*)
	.loc 38 1339 0
..LDL376:
/*   1339 */	fmls	z22.d, p1/m, z9.d, z23.d
	.loc 38 1338 0
..LDL377:
/*   1338 */	ld1sw	{z9.d}, p1/z, [x16, 5, mul vl]	//  (*)
	.loc 38 1339 0
..LDL378:
/*   1339 */	fmls	z20.d, p1/m, z10.d, z21.d
	.loc 38 1338 0
..LDL379:
/*   1338 */	ld1sw	{z10.d}, p1/z, [x16, 6, mul vl]	//  (*)
	.loc 38 1339 0
..LDL380:
/*   1339 */	fmsb	z17.d, p1/m, z18.d, z19.d
/*   1339 */	fmsb	z7.d, p1/m, z6.d, z16.d
	.loc 38 1338 0
..LDL381:
/*   1338 */	ld1sw	{z16.d}, p1/z, [x16, 7, mul vl]	//  (*)
/*   1338 */	add	x5, x5, 128
	.loc 38 1340 0
..LDL382:
/*   1340 */	add	x2, x17, 512
	.loc 38 1339 0
..LDL383:
/*   1339 */	fmls	z4.d, p1/m, z5.d, z3.d
/*   1339 */	fmls	z1.d, p1/m, z2.d, z0.d
	.loc 38 1340 0
..LDL384:
/*   1340 */	sub	w3, w3, 16
	.loc 38 1338 0
..LDL385:
/*   1338 */	cmp	w3, 16
/*   1338 */	bge	.L1478
/*   1338 */	ld1sw	{z0.d}, p1/z, [x4, 0, mul vl]	//  (*)
	.loc 38 1339 0
..LDL386:
/*   1339 */	ld1d	{z11.d}, p1/z, [x14, z31.d, lsl #3]	//  (*)
	.loc 38 1340 0
..LDL387:
/*   1340 */	add	x4, x4, 256
/*   1340 */	sub	w3, w3, 8
	.loc 38 1339 0
..LDL388:
/*   1339 */	ld1d	{z13.d}, p1/z, [x14, z30.d, lsl #3]	//  (*)
/*   1339 */	ld1d	{z19.d}, p1/z, [x2, -7, mul vl]	//  (*)
	.loc 38 1338 0
..LDL389:
/*   1338 */	add	x5, x5, 64
	.loc 38 1340 0
..LDL390:
/*   1340 */	cmp	w3, 0
	.loc 38 1339 0
..LDL391:
/*   1339 */	ld1d	{z14.d}, p1/z, [x14, z29.d, lsl #3]	//  (*)
/*   1339 */	ld1d	{z18.d}, p1/z, [x2, -6, mul vl]	//  (*)
/*   1339 */	ld1d	{z23.d}, p1/z, [x14, z16.d, lsl #3]	//  (*)
/*   1339 */	ld1d	{z16.d}, p1/z, [x2, -5, mul vl]	//  (*)
/*   1339 */	ld1d	{z31.d}, p1/z, [x14, z8.d, lsl #3]	//  (*)
/*   1339 */	ld1d	{z6.d}, p1/z, [x2, -4, mul vl]	//  (*)
/*   1339 */	ld1d	{z30.d}, p1/z, [x14, z9.d, lsl #3]	//  (*)
/*   1339 */	ld1d	{z5.d}, p1/z, [x2, -3, mul vl]	//  (*)
/*   1339 */	ld1d	{z29.d}, p1/z, [x14, z10.d, lsl #3]	//  (*)
/*   1339 */	ld1d	{z3.d}, p1/z, [x2, -2, mul vl]	//  (*)
/*   1339 */	ld1d	{z2.d}, p1/z, [x2, -1, mul vl]	//  (*)
/*   1339 */	ld1d	{z21.d}, p1/z, [x14, z0.d, lsl #3]	//  (*)
/*   1339 */	ld1d	{z0.d}, p1/z, [x2, 0, mul vl]	//  (*)
	.loc 38 1340 0
..LDL392:
/*   1340 */	add	x2, x2, 512
	.loc 38 1339 0
..LDL393:
/*   1339 */	fmsb	z19.d, p1/m, z11.d, z25.d
/*   1339 */	fmsb	z18.d, p1/m, z13.d, z24.d
/*   1339 */	fmsb	z16.d, p1/m, z14.d, z22.d
/*   1339 */	fmsb	z2.d, p1/m, z23.d, z4.d
/*   1339 */	fmsb	z6.d, p1/m, z31.d, z20.d
/*   1339 */	fmsb	z5.d, p1/m, z30.d, z17.d
/*   1339 */	fmsb	z3.d, p1/m, z29.d, z7.d
/*   1339 */	fmsb	z0.d, p1/m, z21.d, z1.d
	.loc 38 1340 0
..LDL394:
/*   1340 */	blt	.L1793
.L1796:
	.p2align 5
.L1799:					// :entr:term:mod:swpl
	.loc 38 1338 0 is_stmt 1
..LDL395:
/*   1338 */	ld1sw	{z24.d}, p1/z, [x4, -7, mul vl]	//  (*)
/*   1338 */	ld1sw	{z23.d}, p1/z, [x4, -6, mul vl]	//  (*)
/*   1338 */	add	x5, x5, 64
	.loc 38 1340 0 is_stmt 0
..LDL396:
/*   1340 */	subs	w3, w3, 8
	.loc 38 1338 0
..LDL397:
/*   1338 */	ld1sw	{z4.d}, p1/z, [x4, -5, mul vl]	//  (*)
/*   1338 */	ld1sw	{z10.d}, p1/z, [x4, -4, mul vl]	//  (*)
/*   1338 */	ld1sw	{z21.d}, p1/z, [x4, -3, mul vl]	//  (*)
/*   1338 */	ld1sw	{z22.d}, p1/z, [x4, -2, mul vl]	//  (*)
/*   1338 */	ld1sw	{z29.d}, p1/z, [x4, -1, mul vl]	//  (*)
/*   1338 */	ld1sw	{z25.d}, p1/z, [x4, 0, mul vl]	//  (*)
	.loc 38 1340 0
..LDL398:
/*   1340 */	add	x4, x4, 256
	.loc 38 1339 0 is_stmt 1
..LDL399:
/*   1339 */	ld1d	{z20.d}, p1/z, [x2, -7, mul vl]	//  (*)
/*   1339 */	ld1d	{z1.d}, p1/z, [x2, -6, mul vl]	//  (*)
/*   1339 */	ld1d	{z7.d}, p1/z, [x2, -5, mul vl]	//  (*)
/*   1339 */	ld1d	{z17.d}, p1/z, [x2, -4, mul vl]	//  (*)
/*   1339 */	ld1d	{z9.d}, p1/z, [x2, -3, mul vl]	//  (*)
/*   1339 */	ld1d	{z8.d}, p1/z, [x2, -2, mul vl]	//  (*)
/*   1339 */	ld1d	{z31.d}, p1/z, [x2, -1, mul vl]	//  (*)
/*   1339 */	ld1d	{z30.d}, p1/z, [x2, 0, mul vl]	//  (*)
	.loc 38 1340 0 is_stmt 0
..LDL400:
/*   1340 */	add	x2, x2, 512
	.loc 38 1339 0
..LDL401:
/*   1339 */	ld1d	{z24.d}, p1/z, [x14, z24.d, lsl #3]	//  (*)
/*   1339 */	ld1d	{z23.d}, p1/z, [x14, z23.d, lsl #3]	//  (*)
/*   1339 */	ld1d	{z4.d}, p1/z, [x14, z4.d, lsl #3]	//  (*)
/*   1339 */	ld1d	{z10.d}, p1/z, [x14, z10.d, lsl #3]	//  (*)
/*   1339 */	ld1d	{z21.d}, p1/z, [x14, z21.d, lsl #3]	//  (*)
/*   1339 */	ld1d	{z22.d}, p1/z, [x14, z22.d, lsl #3]	//  (*)
/*   1339 */	ld1d	{z29.d}, p1/z, [x14, z29.d, lsl #3]	//  (*)
/*   1339 */	ld1d	{z25.d}, p1/z, [x14, z25.d, lsl #3]	//  (*)
/*   1339 */	fmls	z19.d, p1/m, z20.d, z24.d
/*   1339 */	fmls	z18.d, p1/m, z1.d, z23.d
/*   1339 */	fmls	z16.d, p1/m, z7.d, z4.d
/*   1339 */	fmls	z6.d, p1/m, z17.d, z10.d
/*   1339 */	fmls	z5.d, p1/m, z9.d, z21.d
/*   1339 */	fmls	z3.d, p1/m, z8.d, z22.d
/*   1339 */	fmls	z2.d, p1/m, z31.d, z29.d
/*   1339 */	fmls	z0.d, p1/m, z30.d, z25.d
	.loc 38 1340 0
..LDL402:
/*   1340 */	bpl	.L1799
.L1793:
	.loc 38 1339 0
..LDL403:
/*   1339 */	fadd	z0.d, z0.d, z2.d
/*   1339 */	fadd	z1.d, z3.d, z5.d
/*   1339 */	fadd	z2.d, z6.d, z16.d
/*   1339 */	fadd	z3.d, z19.d, z18.d
/*   1339 */	fadd	z0.d, z1.d, z0.d
/*   1339 */	fadd	z1.d, z3.d, z2.d
/*   1339 */	fadd	z0.d, z1.d, z0.d
.L1489:
	.loc 38 1337 0 is_stmt 1
..LDL404:
/*   1337 */	adds	w3, w3, 7
/*   1337 */	bmi	.L1479
	.loc 38 1339 0 is_stmt 0
..LDL405:
/*   1339 */	ldr	x2, [x0, 16]	//  "xv"
	.p2align 5
.L1501:					// :entr:term:mod
	.loc 38 1338 0 is_stmt 1
..LDL406:
/*   1338 */	ld1sw	{z1.d}, p1/z, [x15, x5, lsl #2]	//  (*)
	.loc 38 1340 0 is_stmt 0
..LDL407:
/*   1340 */	subs	w3, w3, 1
	.loc 38 1339 0 is_stmt 1
..LDL408:
/*   1339 */	ld1d	{z2.d}, p1/z, [x2, z1.d, lsl #3]	//  (*)
/*   1339 */	ld1d	{z1.d}, p1/z, [x11, x5, lsl #3]	//  (*)
	.loc 38 1338 0 is_stmt 0
..LDL409:
/*   1338 */	add	x5, x5, 8
	.loc 38 1339 0
..LDL410:
/*   1339 */	fmls	z0.d, p1/m, z1.d, z2.d
	.loc 38 1338 0
..LDL411:
/*   1338 */	bpl	.L1501
.L1479:
	.loc 38 1339 0
..LDL412:
/*   1339 */	movprfx	z1, z0
/*   1339 */	ext	z1.b, z1.b, z0.b, 32
/*   1339 */	fadd	z1.d, z1.d, z0.d
/*   1339 */	movprfx	z0, z1
/*   1339 */	ext	z0.b, z0.b, z1.b, 16
/*   1339 */	fadd	z1.d, z1.d, z0.d
/*   1339 */	movprfx	z0, z1
/*   1339 */	ext	z0.b, z0.b, z1.b, 8
/*   1339 */	fadd	z0.d, z1.d, z0.d
/*   1339 */	fadd	d26, d26, d0
.L1480:
	.loc 38 1337 0 is_stmt 1
..LDL413:
/*   1337 */	sbfiz	x2, x9, 3, 32
/*   1337 */	cbz	w12, .L1483
	.loc 38 1338 0 is_stmt 0
..LDL414:
/*   1338 */	whilelt	p0.d, wzr, w12
	.loc 38 1339 0 is_stmt 1
..LDL415:
/*   1339 */	ldr	x3, [x0, 16]	//  "xv"
	.loc 38 1338 0
..LDL416:
/*   1338 */	ld1sw	{z0.d}, p0/z, [x15, x2, lsl #2]	//  (*)
	.loc 38 1339 0
..LDL417:
/*   1339 */	ld1d	{z1.d}, p0/z, [x11, x2, lsl #3]	//  (*)
/*   1339 */	ld1d	{z0.d}, p0/z, [x3, z0.d, lsl #3]	//  (*)
/*   1339 */	fmsb	z1.d, p0/m, z0.d, z27.d
/*   1339 */	sel	z1.d, p0, z1.d, z27.d
/*   1339 */	movprfx	z0, z1
/*   1339 */	ext	z0.b, z0.b, z1.b, 32
/*   1339 */	fadd	z0.d, z1.d, z0.d
/*   1339 */	movprfx	z1, z0
/*   1339 */	ext	z1.b, z1.b, z0.b, 16
/*   1339 */	fadd	z1.d, z0.d, z1.d
/*   1339 */	movprfx	z0, z1
/*   1339 */	ext	z0.b, z0.b, z1.b, 8
/*   1339 */	fadd	z0.d, z1.d, z0.d
/*   1339 */	fadd	d26, d26, d0
.L1483:					// :term
	.loc 38 1342 0
..LDL418:
	.loc 38 1341 0 is_stmt 0
..LDL419:
/*   1341 */	ldr	d2, [x10, x13, lsl #3]	//  (*)
	.loc 38 1342 0
..LDL420:
/*   1342 */	frecpe	d1, d28
	.loc 38 1343 0 is_stmt 1
..LDL421:
/*   1343 */	add	x8, x8, 1
/*   1343 */	cmp	x8, x1
	.loc 38 1342 0
..LDL422:
/*   1342 */	fmsub	d0, d28, d1, d12
/*   1342 */	fmadd	d4, d2, d28, d26
/*   1342 */	fmadd	d3, d0, d0, d0
/*   1342 */	fmul	d2, d0, d0
/*   1342 */	fmul	d1, d4, d1
/*   1342 */	fmadd	d0, d2, d2, d0
/*   1342 */	fmadd	d2, d3, d1, d1
/*   1342 */	fmadd	d0, d0, d2, d1
/*   1342 */	str	d0, [x10, x13, lsl #3]	//  (*)
	.loc 38 1343 0 is_stmt 0
..LDL423:
/*   1343 */	bls	.L1475
	.loc 38 1343 0 is_stmt 1
..LDL424:
.L1486:
/*   1343 */	add	x19, sp, 32
/*   1343 */	ldr	x0, [x19, -16]
/*   1343 */	bl	__mpc_obar
/*   1343 */	ldr	x0, [x19, -16]
/*   1343 */	bl	__mpc_obar
/*    ??? */	add	sp, sp, 48
	.cfi_def_cfa_offset 80
/*    ??? */	ldr	x19, [sp, 56]	//  (*)
	.cfi_restore 19
/*    ??? */	ldr	d14, [sp]	//  (*)
	.cfi_restore 78
/*    ??? */	ldp	d8, d9, [sp, 40]	//  (*)
	.cfi_restore 72
	.cfi_restore 73
/*    ??? */	ldp	d10, d11, [sp, 24]	//  (*)
	.cfi_restore 74
	.cfi_restore 75
/*    ??? */	ldp	d12, d13, [sp, 8]	//  (*)
	.cfi_restore 76
	.cfi_restore 77
/*    ??? */	ldr	x30, [sp, 64]	//  (*)
	.cfi_restore 30
/*   1343 */	add	sp, sp, 80
	.cfi_def_cfa_offset 0
/*   1343 */	ret	
..D5.pchi:
	.cfi_endproc
.LFE4:
	.size	_Z16ComputeSYMGS_TDGRK19SparseMatrix_STRUCTRK13Vector_STRUCTRS2_R9TraceData._OMP_3, .-_Z16ComputeSYMGS_TDGRK19SparseMatrix_STRUCTRK13Vector_STRUCTRS2_R9TraceData._OMP_3
	.ident	"$Compiler: Fujitsu C/C++ Compiler 4.7.0 (Nov 10 2021 09:37:15) ../src/ComputeSYMGS.cpp _Z16ComputeSYMGS_TDGRK19SparseMatrix_STRUCTRK13Vector_STRUCTRS2_R9TraceData._OMP_4 $"
	.text
	.align	2
	.type	_Z16ComputeSYMGS_TDGRK19SparseMatrix_STRUCTRK13Vector_STRUCTRS2_R9TraceData._OMP_4, %function
_Z16ComputeSYMGS_TDGRK19SparseMatrix_STRUCTRK13Vector_STRUCTRS2_R9TraceData._OMP_4:
	.loc 38 1351 0
..LDL425:
.LFB5:
	.cfi_startproc
/*   1343 */	sub	sp, sp, 128
	.cfi_def_cfa_offset 128
/*    ??? */	stp	x29, x30, [sp, 112]	//  (*)
	.cfi_offset 29, -16
	.cfi_offset 30, -8
/*    ??? */	stp	x19, x20, [sp, 96]	//  (*)
	.cfi_offset 19, -32
	.cfi_offset 20, -24
/*    ??? */	stp	x21, x22, [sp, 80]	//  (*)
	.cfi_offset 21, -48
	.cfi_offset 22, -40
/*    ??? */	str	x23, [sp, 72]	//  (*)
	.cfi_offset 23, -56
/*    ??? */	stp	d8, d9, [sp, 56]	//  (*)
	.cfi_offset 72, -72
	.cfi_offset 73, -64
/*    ??? */	stp	d10, d11, [sp, 40]	//  (*)
	.cfi_offset 74, -88
	.cfi_offset 75, -80
/*    ??? */	stp	d12, d13, [sp, 24]	//  (*)
	.cfi_offset 76, -104
	.cfi_offset 77, -96
/*    ??? */	stp	d14, d15, [sp, 8]	//  (*)
	.cfi_offset 78, -120
	.cfi_offset 79, -112
/*    ??? */	sub	sp, sp, 64
	.cfi_def_cfa_offset 192
/*   1343 */	str	x1, [sp, 32]
/*   1343 */	str	x2, [sp, 24]
/*   1343 */	str	x3, [sp, 16]
/*   1343 */	str	x4, [sp, 8]
	.loc 38 1351 0 is_stmt 0
..LDL426:
	.loc 38 1351 0 is_stmt 0
..LDL427:
	.loc 38 1354 0 is_stmt 1
..LDL428:
/*   1354 */	ldrsw	x3, [x0]	//  "l"
	.loc 37 1506 0
..LDL429:
/*   1506 */	ldr	x1, [x0, 32]	//  "A"
/*   1506 */	add	x2, x3, x3
/*   1506 */	ldr	x1, [x1, 280]	//  (*)
/*   1506 */	add	x2, x2, x3
/*   1506 */	lsl	x21, x2, 3
	.loc 37 641 0
..LDL430:
/*    641 */	add	x2, x21, 8
/*    641 */	ldr	x2, [x1, x2]	//  (*)
/*    641 */	ldr	x1, [x1, x21]	//  (*)
/*    641 */	sub	x1, x2, x1
/*    641 */	asr	x2, x1, 1
/*    641 */	add	x1, x1, x2, lsr #62
/*    641 */	asr	x1, x1, 2
	.loc 38 1354 0
..LDL431:
/*   1354 */	sub	x1, x1, 1
/*   1354 */	cmp	w1, 0
/*   1354 */	blt	.L1523
/*   1354 */	sxtw	x1, w1
/*   1354 */	add	x3, sp, 32
/*   1354 */	add	x5, x1, 1
/*   1354 */	ldr	x4, [x3]
/*   1354 */	sdiv	x2, x5, x4
/*   1354 */	msub	x4, x4, x2, x5
/*   1354 */	cbnz	x4, .L1507
/*   1354 */	ldr	x3, [x3, -8]
/*   1354 */	msub	x1, x3, x2, x1
/*   1354 */	b	.L1510
.L1507:
/*   1354 */	ldr	x3, [x3, -8]
/*   1354 */	cmp	x3, x4
/*   1354 */	blt	.L1509
/*   1354 */	madd	x3, x3, x2, x4
/*   1354 */	sub	x1, x1, x3
/*   1354 */	b	.L1510
.L1509:
/*   1354 */	add	x2, x2, 1
/*   1354 */	msub	x1, x3, x2, x1
.L1510:
/*   1354 */	mov	x3, 0
/*   1354 */	sub	x3, x3, x2
/*   1354 */	add	x3, x3, 1
/*   1354 */	add	x3, x3, x1
/*   1354 */	cbz	x2, .L1523
	.loc 38 1360 0 is_stmt 0
..LDL432:
/*   1360 */	ldr	x22, [x0, 24]	//  "rv"
	.loc 38 1363 0
..LDL433:
/*   1363 */	index	z11.d, 0, -1
	.loc 38 1354 0
..LDL434:
/*   1354 */	sub	w2, w1, w3
	.loc 38 1362 0
..LDL435:
/*   1362 */	ptrue	p0.d, ALL
	.loc 38 1367 0
..LDL436:
/*   1367 */	fmov	d15, 1.000000e+00
	.loc 38 1366 0
..LDL437:
/*   1366 */	ldr	x19, [x0, 16]	//  "xv"
	.loc 38 1354 0
..LDL438:
/*   1354 */	add	w2, w2, 1
/*   1354 */	cmp	w1, w3
	.loc 38 1364 0
..LDL439:
/*   1364 */	fmov	z12.d, 0.000000e+00
	.loc 38 1354 0
..LDL440:
/*   1354 */	csinc	w20, w2, wzr, ge
	.loc 38 1355 0
..LDL441:
/*   1355 */	sxtw	x29, w1
	.loc 38 1362 0
..LDL442:
/*   1362 */	mov	x23, 0
.L1512:					// :entr
	.loc 37 1506 0 is_stmt 1
..LDL443:
/*   1506 */	ldr	x2, [x0, 32]	//  "A"
	.loc 38 1359 0
..LDL444:
/*   1359 */	ldr	x5, [x0, 8]	//  "matrixDiagonal"
	.loc 37 1506 0
..LDL445:
/*   1506 */	ldr	x4, [x2, 280]	//  (*)
	.loc 38 1358 0
..LDL446:
/*   1358 */	ldr	x1, [x2, 48]	//  (*)
	.loc 38 1356 0
..LDL447:
/*   1356 */	ldp	x2, x3, [x2, 64]	//  (*)
	.loc 37 1506 0
..LDL448:
/*   1506 */	ldr	x4, [x4, x21]	//  (*)
	.loc 38 1355 0
..LDL449:
/*   1355 */	ldrsw	x16, [x4, x29, lsl #2]	//  (*)
	.loc 38 1358 0
..LDL450:
/*   1358 */	ldrb	w1, [x1, x16]	//  (*)
	.loc 38 1359 0
..LDL451:
/*   1359 */	ldr	x4, [x5, x16, lsl #3]	//  (*)
	.loc 38 1360 0
..LDL452:
/*   1360 */	ldr	d13, [x22, x16, lsl #3]	//  (*)
	.loc 38 1357 0
..LDL453:
/*   1357 */	ldr	x15, [x2, x16, lsl #3]	//  (*)
	.loc 38 1356 0
..LDL454:
/*   1356 */	ldr	x14, [x3, x16, lsl #3]	//  (*)
	.loc 38 1359 0
..LDL455:
/*   1359 */	ldr	d14, [x4]	//  (*)
	.loc 38 1362 0
..LDL456:
/*   1362 */	sub	w2, w1, 1
/*   1362 */	cmp	w1, 0
/*   1362 */	csel	w1, w1, wzr, ge
/*   1362 */	cmp	w2, 0
/*   1362 */	blt	.L1520
	.loc 38 1363 0 is_stmt 0
..LDL457:
/*   1363 */	sxtw	x18, w2
	.loc 38 1362 0
..LDL458:
/*   1362 */	asr	w2, w1, 2
/*   1362 */	add	w2, w1, w2, lsr #29
/*   1362 */	asr	w17, w2, 3
/*   1362 */	sub	w30, w1, w17, lsl #3
/*   1362 */	cbz	w17, .L1517
/*   1362 */	sub	w4, w17, 8
/*   1362 */	mov	x1, x18
/*   1362 */	mov	z0.d, z12.d
/*   1362 */	cmp	w4, 0
/*   1362 */	blt	.L1526
	.loc 38 1364 0
..LDL459:
/*   1364 */	ldr	x13, [x0, 16]	//  "xv"
/*   1364 */	lsl	x3, x18, 3
/*   1364 */	mov	z5.d, z12.d
/*   1364 */	mov	z6.d, z12.d
	.loc 38 1363 0
..LDL460:
/*   1363 */	lsl	x2, x18, 2
	.loc 38 1364 0
..LDL461:
/*   1364 */	sub	x5, x3, 192
/*   1364 */	mov	z7.d, z12.d
/*   1364 */	mov	z4.d, z12.d
/*   1364 */	mov	z3.d, z12.d
/*   1364 */	mov	z2.d, z12.d
	.loc 38 1363 0
..LDL462:
/*   1363 */	add	x2, x2, x15
	.loc 38 1364 0
..LDL463:
/*   1364 */	mov	z16.d, z12.d
/*   1364 */	mov	z17.d, z12.d
/*   1364 */	add	x3, x3, x14
/*   1364 */	add	x5, x5, x14
	.loc 38 1362 0
..LDL464:
/*   1362 */	cmp	w4, 16
/*   1362 */	blt	.L1807
	.loc 38 1363 0
..LDL465:
/*   1363 */	ld1sw	{z28.d}, p0/z, [x2, z11.d, lsl #2]	//  (*)
/*   1363 */	sub	x7, x2, 32
/*   1363 */	sub	x6, x2, 64
/*   1363 */	ld1sw	{z27.d}, p0/z, [x7, z11.d, lsl #2]	//  (*)
/*   1363 */	sub	x9, x2, 96
/*   1363 */	sub	x8, x2, 128
	.loc 38 1365 0
..LDL466:
/*   1365 */	mov	z20.d, z4.d
/*   1365 */	mov	z0.d, z17.d
	.loc 38 1363 0
..LDL467:
/*   1363 */	ld1sw	{z23.d}, p0/z, [x6, z11.d, lsl #2]	//  (*)
/*   1363 */	sub	x7, x2, 160
	.loc 38 1365 0
..LDL468:
/*   1365 */	mov	x6, x5
/*   1365 */	mov	z1.d, z16.d
	.loc 38 1363 0
..LDL469:
/*   1363 */	ld1sw	{z25.d}, p0/z, [x9, z11.d, lsl #2]	//  (*)
/*   1363 */	ld1sw	{z24.d}, p0/z, [x8, z11.d, lsl #2]	//  (*)
	.loc 38 1365 0
..LDL470:
/*   1365 */	mov	z4.d, z7.d
	.loc 38 1363 0
..LDL471:
/*   1363 */	ld1sw	{z26.d}, p0/z, [x7, z11.d, lsl #2]	//  (*)
	.loc 38 1365 0
..LDL472:
/*   1365 */	mov	z21.d, z6.d
/*   1365 */	mov	z22.d, z5.d
	.p2align 5
.L1515:					// :entr:term:body:swpl
	.loc 38 1363 0
..LDL473:
/*   1363 */	sub	x5, x2, 192
/*   1363 */	ld1sw	{z6.d}, p0/z, [x5, z11.d, lsl #2]	//  (*)
/*   1363 */	sub	x5, x2, 224
/*   1363 */	ld1sw	{z5.d}, p0/z, [x5, z11.d, lsl #2]	//  (*)
	.loc 38 1364 0
..LDL474:
/*   1364 */	ld1d	{z30.d}, p0/z, [x13, z28.d, lsl #3]	//  (*)
/*   1364 */	ld1d	{z19.d}, p0/z, [x3, z11.d, lsl #3]	//  (*)
/*   1364 */	ld1d	{z29.d}, p0/z, [x13, z27.d, lsl #3]	//  (*)
/*   1364 */	sub	x5, x3, 64
/*   1364 */	ld1d	{z18.d}, p0/z, [x5, z11.d, lsl #3]	//  (*)
/*   1364 */	ld1d	{z28.d}, p0/z, [x13, z23.d, lsl #3]	//  (*)
/*   1364 */	sub	x5, x3, 128
/*   1364 */	ld1d	{z17.d}, p0/z, [x5, z11.d, lsl #3]	//  (*)
/*   1364 */	ld1d	{z27.d}, p0/z, [x13, z25.d, lsl #3]	//  (*)
/*   1364 */	ld1d	{z16.d}, p0/z, [x6, z11.d, lsl #3]	//  (*)
/*   1364 */	ld1d	{z8.d}, p0/z, [x13, z24.d, lsl #3]	//  (*)
/*   1364 */	sub	x5, x6, 64
/*   1364 */	ld1d	{z10.d}, p0/z, [x5, z11.d, lsl #3]	//  (*)
/*   1364 */	ld1d	{z25.d}, p0/z, [x13, z26.d, lsl #3]	//  (*)
/*   1364 */	sub	x5, x6, 128
/*   1364 */	ld1d	{z7.d}, p0/z, [x5, z11.d, lsl #3]	//  (*)
/*   1364 */	ld1d	{z24.d}, p0/z, [x13, z6.d, lsl #3]	//  (*)
/*   1364 */	sub	x5, x6, 192
/*   1364 */	ld1d	{z6.d}, p0/z, [x5, z11.d, lsl #3]	//  (*)
/*   1364 */	ld1d	{z23.d}, p0/z, [x13, z5.d, lsl #3]	//  (*)
/*   1364 */	sub	x5, x6, 256
/*   1364 */	ld1d	{z5.d}, p0/z, [x5, z11.d, lsl #3]	//  (*)
	.loc 38 1365 0
..LDL475:
/*   1365 */	sub	x5, x2, 256
	.loc 38 1363 0
..LDL476:
/*   1363 */	ld1sw	{z31.d}, p0/z, [x5, z11.d, lsl #2]	//  (*)
/*   1363 */	sub	x5, x2, 288
/*   1363 */	ld1sw	{z9.d}, p0/z, [x5, z11.d, lsl #2]	//  (*)
/*   1363 */	sub	x5, x2, 320
/*   1363 */	ld1sw	{z26.d}, p0/z, [x5, z11.d, lsl #2]	//  (*)
	.loc 38 1364 0
..LDL477:
/*   1364 */	fmsb	z19.d, p0/m, z30.d, z22.d
	.loc 38 1363 0
..LDL478:
/*   1363 */	sub	x5, x2, 352
	.loc 38 1364 0
..LDL479:
/*   1364 */	fmsb	z18.d, p0/m, z29.d, z21.d
	.loc 38 1363 0
..LDL480:
/*   1363 */	ld1sw	{z29.d}, p0/z, [x5, z11.d, lsl #2]	//  (*)
	.loc 38 1364 0
..LDL481:
/*   1364 */	fmsb	z17.d, p0/m, z28.d, z4.d
	.loc 38 1363 0
..LDL482:
/*   1363 */	sub	x5, x2, 384
	.loc 38 1364 0
..LDL483:
/*   1364 */	fmsb	z16.d, p0/m, z27.d, z20.d
	.loc 38 1363 0
..LDL484:
/*   1363 */	ld1sw	{z28.d}, p0/z, [x5, z11.d, lsl #2]	//  (*)
	.loc 38 1364 0
..LDL485:
/*   1364 */	fmsb	z10.d, p0/m, z8.d, z3.d
	.loc 38 1363 0
..LDL486:
/*   1363 */	sub	x5, x2, 416
/*   1363 */	ld1sw	{z27.d}, p0/z, [x5, z11.d, lsl #2]	//  (*)
	.loc 38 1364 0
..LDL487:
/*   1364 */	fmsb	z7.d, p0/m, z25.d, z2.d
	.loc 38 1365 0
..LDL488:
/*   1365 */	sub	x5, x6, 512
/*   1365 */	sub	x7, x3, 512
	.loc 38 1364 0
..LDL489:
/*   1364 */	fmsb	z6.d, p0/m, z24.d, z1.d
/*   1364 */	fmsb	z5.d, p0/m, z23.d, z0.d
	.loc 38 1363 0
..LDL490:
/*   1363 */	sub	x8, x2, 448
/*   1363 */	ld1sw	{z1.d}, p0/z, [x8, z11.d, lsl #2]	//  (*)
/*   1363 */	sub	x8, x2, 480
/*   1363 */	ld1sw	{z0.d}, p0/z, [x8, z11.d, lsl #2]	//  (*)
	.loc 38 1364 0
..LDL491:
/*   1364 */	ld1d	{z22.d}, p0/z, [x13, z31.d, lsl #3]	//  (*)
/*   1364 */	ld1d	{z21.d}, p0/z, [x7, z11.d, lsl #3]	//  (*)
/*   1364 */	ld1d	{z25.d}, p0/z, [x13, z9.d, lsl #3]	//  (*)
/*   1364 */	sub	x7, x3, 576
/*   1364 */	ld1d	{z9.d}, p0/z, [x7, z11.d, lsl #3]	//  (*)
/*   1364 */	ld1d	{z8.d}, p0/z, [x13, z26.d, lsl #3]	//  (*)
/*   1364 */	sub	x7, x3, 640
/*   1364 */	ld1d	{z4.d}, p0/z, [x7, z11.d, lsl #3]	//  (*)
/*   1364 */	ld1d	{z20.d}, p0/z, [x13, z29.d, lsl #3]	//  (*)
/*   1364 */	ld1d	{z24.d}, p0/z, [x5, z11.d, lsl #3]	//  (*)
/*   1364 */	ld1d	{z26.d}, p0/z, [x13, z28.d, lsl #3]	//  (*)
/*   1364 */	sub	x5, x6, 576
/*   1364 */	ld1d	{z3.d}, p0/z, [x5, z11.d, lsl #3]	//  (*)
/*   1364 */	ld1d	{z31.d}, p0/z, [x13, z27.d, lsl #3]	//  (*)
/*   1364 */	sub	x5, x6, 640
/*   1364 */	ld1d	{z2.d}, p0/z, [x5, z11.d, lsl #3]	//  (*)
/*   1364 */	ld1d	{z30.d}, p0/z, [x13, z1.d, lsl #3]	//  (*)
/*   1364 */	sub	x5, x6, 704
/*   1364 */	ld1d	{z1.d}, p0/z, [x5, z11.d, lsl #3]	//  (*)
/*   1364 */	ld1d	{z29.d}, p0/z, [x13, z0.d, lsl #3]	//  (*)
/*   1364 */	sub	x5, x6, 768
/*   1364 */	ld1d	{z0.d}, p0/z, [x5, z11.d, lsl #3]	//  (*)
	.loc 38 1365 0
..LDL492:
/*   1365 */	sub	x2, x2, 512
	.loc 38 1363 0
..LDL493:
/*   1363 */	ld1sw	{z28.d}, p0/z, [x2, z11.d, lsl #2]	//  (*)
/*   1363 */	sub	x5, x2, 32
/*   1363 */	ld1sw	{z27.d}, p0/z, [x5, z11.d, lsl #2]	//  (*)
/*   1363 */	sub	x5, x2, 64
/*   1363 */	ld1sw	{z23.d}, p0/z, [x5, z11.d, lsl #2]	//  (*)
	.loc 38 1364 0
..LDL494:
/*   1364 */	fmsb	z22.d, p0/m, z21.d, z19.d
	.loc 38 1363 0
..LDL495:
/*   1363 */	sub	x5, x2, 96
	.loc 38 1364 0
..LDL496:
/*   1364 */	movprfx	z21.d, p0/z, z18.d
/*   1364 */	fmls	z21.d, p0/m, z9.d, z25.d
	.loc 38 1363 0
..LDL497:
/*   1363 */	ld1sw	{z25.d}, p0/z, [x5, z11.d, lsl #2]	//  (*)
	.loc 38 1364 0
..LDL498:
/*   1364 */	fmsb	z4.d, p0/m, z8.d, z17.d
	.loc 38 1363 0
..LDL499:
/*   1363 */	sub	x5, x2, 128
	.loc 38 1364 0
..LDL500:
/*   1364 */	fmsb	z20.d, p0/m, z24.d, z16.d
	.loc 38 1363 0
..LDL501:
/*   1363 */	ld1sw	{z24.d}, p0/z, [x5, z11.d, lsl #2]	//  (*)
	.loc 38 1364 0
..LDL502:
/*   1364 */	fmsb	z3.d, p0/m, z26.d, z10.d
	.loc 38 1363 0
..LDL503:
/*   1363 */	sub	x5, x2, 160
	.loc 38 1362 0
..LDL504:
/*   1362 */	sub	x1, x1, 128
	.loc 38 1363 0
..LDL505:
/*   1363 */	ld1sw	{z26.d}, p0/z, [x5, z11.d, lsl #2]	//  (*)
	.loc 38 1364 0
..LDL506:
/*   1364 */	fmsb	z2.d, p0/m, z31.d, z7.d
	.loc 38 1365 0
..LDL507:
/*   1365 */	sub	x6, x6, 1024
/*   1365 */	sub	x3, x3, 1024
	.loc 38 1364 0
..LDL508:
/*   1364 */	fmsb	z1.d, p0/m, z30.d, z6.d
/*   1364 */	fmsb	z0.d, p0/m, z29.d, z5.d
	.loc 38 1365 0
..LDL509:
/*   1365 */	sub	w4, w4, 16
	.loc 38 1362 0
..LDL510:
/*   1362 */	cmp	w4, 16
/*   1362 */	bge	.L1515
	.loc 38 1363 0
..LDL511:
/*   1363 */	sub	x7, x2, 192
/*   1363 */	sub	x5, x2, 224
	.loc 38 1364 0
..LDL512:
/*   1364 */	ld1d	{z19.d}, p0/z, [x13, z27.d, lsl #3]	//  (*)
/*   1364 */	sub	x11, x3, 64
/*   1364 */	sub	x10, x3, 128
/*   1364 */	ld1d	{z18.d}, p0/z, [x13, z23.d, lsl #3]	//  (*)
	.loc 38 1363 0
..LDL513:
/*   1363 */	ld1sw	{z16.d}, p0/z, [x7, z11.d, lsl #2]	//  (*)
	.loc 38 1364 0
..LDL514:
/*   1364 */	sub	x7, x6, 64
/*   1364 */	sub	x12, x6, 128
	.loc 38 1363 0
..LDL515:
/*   1363 */	ld1sw	{z17.d}, p0/z, [x5, z11.d, lsl #2]	//  (*)
	.loc 38 1364 0
..LDL516:
/*   1364 */	sub	x9, x6, 192
/*   1364 */	sub	x8, x6, 256
	.loc 38 1365 0
..LDL517:
/*   1365 */	sub	x2, x2, 256
/*   1365 */	sub	w4, w4, 8
	.loc 38 1364 0
..LDL518:
/*   1364 */	ld1d	{z23.d}, p0/z, [x13, z25.d, lsl #3]	//  (*)
	.loc 38 1362 0
..LDL519:
/*   1362 */	sub	x1, x1, 64
	.loc 38 1365 0
..LDL520:
/*   1365 */	sub	x5, x6, 512
	.loc 38 1364 0
..LDL521:
/*   1364 */	ld1d	{z27.d}, p0/z, [x13, z24.d, lsl #3]	//  (*)
	.loc 38 1365 0
..LDL522:
/*   1365 */	cmp	w4, 0
	.loc 38 1364 0
..LDL523:
/*   1364 */	ld1d	{z30.d}, p0/z, [x13, z26.d, lsl #3]	//  (*)
/*   1364 */	ld1d	{z7.d}, p0/z, [x10, z11.d, lsl #3]	//  (*)
/*   1364 */	ld1d	{z28.d}, p0/z, [x13, z28.d, lsl #3]	//  (*)
/*   1364 */	ld1d	{z5.d}, p0/z, [x3, z11.d, lsl #3]	//  (*)
	.loc 38 1365 0
..LDL524:
/*   1365 */	sub	x3, x3, 512
	.loc 38 1364 0
..LDL525:
/*   1364 */	ld1d	{z6.d}, p0/z, [x11, z11.d, lsl #3]	//  (*)
/*   1364 */	ld1d	{z25.d}, p0/z, [x6, z11.d, lsl #3]	//  (*)
/*   1364 */	ld1d	{z24.d}, p0/z, [x7, z11.d, lsl #3]	//  (*)
/*   1364 */	ld1d	{z26.d}, p0/z, [x12, z11.d, lsl #3]	//  (*)
/*   1364 */	ld1d	{z29.d}, p0/z, [x9, z11.d, lsl #3]	//  (*)
/*   1364 */	ld1d	{z31.d}, p0/z, [x8, z11.d, lsl #3]	//  (*)
/*   1364 */	ld1d	{z16.d}, p0/z, [x13, z16.d, lsl #3]	//  (*)
/*   1364 */	ld1d	{z17.d}, p0/z, [x13, z17.d, lsl #3]	//  (*)
/*   1364 */	fmsb	z7.d, p0/m, z18.d, z4.d
/*   1364 */	fmsb	z5.d, p0/m, z28.d, z22.d
/*   1364 */	fmsb	z6.d, p0/m, z19.d, z21.d
/*   1364 */	movprfx	z4.d, p0/z, z20.d
/*   1364 */	fmls	z4.d, p0/m, z25.d, z23.d
/*   1364 */	fmls	z3.d, p0/m, z24.d, z27.d
/*   1364 */	fmls	z2.d, p0/m, z26.d, z30.d
/*   1364 */	fmsb	z16.d, p0/m, z29.d, z1.d
/*   1364 */	fmsb	z17.d, p0/m, z31.d, z0.d
	.loc 38 1365 0
..LDL526:
/*   1365 */	blt	.L1804
.L1807:
	.p2align 5
.L1810:					// :entr:term:mod:swpl
	.loc 38 1363 0 is_stmt 1
..LDL527:
/*   1363 */	ld1sw	{z21.d}, p0/z, [x2, z11.d, lsl #2]	//  (*)
/*   1363 */	sub	x7, x2, 32
/*   1363 */	sub	x11, x2, 128
/*   1363 */	sub	x8, x2, 160
/*   1363 */	sub	x10, x2, 192
/*   1363 */	ld1sw	{z31.d}, p0/z, [x11, z11.d, lsl #2]	//  (*)
/*   1363 */	sub	x6, x2, 64
/*   1363 */	ld1sw	{z26.d}, p0/z, [x7, z11.d, lsl #2]	//  (*)
/*   1363 */	sub	x7, x2, 96
	.loc 38 1364 0
..LDL528:
/*   1364 */	sub	x9, x3, 128
/*   1364 */	sub	x11, x5, 64
	.loc 38 1363 0
..LDL529:
/*   1363 */	ld1sw	{z27.d}, p0/z, [x8, z11.d, lsl #2]	//  (*)
/*   1363 */	ld1sw	{z0.d}, p0/z, [x7, z11.d, lsl #2]	//  (*)
/*   1363 */	sub	x7, x2, 224
	.loc 38 1364 0
..LDL530:
/*   1364 */	sub	x8, x5, 128
/*   1364 */	sub	x12, x5, 192
	.loc 38 1363 0
..LDL531:
/*   1363 */	ld1sw	{z1.d}, p0/z, [x10, z11.d, lsl #2]	//  (*)
	.loc 38 1364 0
..LDL532:
/*   1364 */	sub	x10, x5, 256
	.loc 38 1363 0
..LDL533:
/*   1363 */	ld1sw	{z24.d}, p0/z, [x6, z11.d, lsl #2]	//  (*)
	.loc 38 1364 0
..LDL534:
/*   1364 */	sub	x6, x3, 64
	.loc 38 1362 0 is_stmt 0
..LDL535:
/*   1362 */	sub	x1, x1, 64
	.loc 38 1363 0 is_stmt 1
..LDL536:
/*   1363 */	ld1sw	{z20.d}, p0/z, [x7, z11.d, lsl #2]	//  (*)
	.loc 38 1365 0 is_stmt 0
..LDL537:
/*   1365 */	sub	x2, x2, 256
/*   1365 */	subs	w4, w4, 8
	.loc 38 1364 0 is_stmt 1
..LDL538:
/*   1364 */	ld1d	{z30.d}, p0/z, [x3, z11.d, lsl #3]	//  (*)
	.loc 38 1365 0 is_stmt 0
..LDL539:
/*   1365 */	sub	x3, x3, 512
	.loc 38 1364 0
..LDL540:
/*   1364 */	ld1d	{z25.d}, p0/z, [x6, z11.d, lsl #3]	//  (*)
/*   1364 */	ld1d	{z22.d}, p0/z, [x9, z11.d, lsl #3]	//  (*)
/*   1364 */	ld1d	{z23.d}, p0/z, [x5, z11.d, lsl #3]	//  (*)
	.loc 38 1365 0
..LDL541:
/*   1365 */	sub	x5, x5, 512
	.loc 38 1364 0
..LDL542:
/*   1364 */	ld1d	{z28.d}, p0/z, [x11, z11.d, lsl #3]	//  (*)
/*   1364 */	ld1d	{z29.d}, p0/z, [x8, z11.d, lsl #3]	//  (*)
/*   1364 */	ld1d	{z19.d}, p0/z, [x12, z11.d, lsl #3]	//  (*)
/*   1364 */	ld1d	{z18.d}, p0/z, [x10, z11.d, lsl #3]	//  (*)
/*   1364 */	ld1d	{z21.d}, p0/z, [x13, z21.d, lsl #3]	//  (*)
/*   1364 */	ld1d	{z8.d}, p0/z, [x13, z31.d, lsl #3]	//  (*)
/*   1364 */	ld1d	{z26.d}, p0/z, [x13, z26.d, lsl #3]	//  (*)
/*   1364 */	ld1d	{z31.d}, p0/z, [x13, z27.d, lsl #3]	//  (*)
/*   1364 */	ld1d	{z0.d}, p0/z, [x13, z0.d, lsl #3]	//  (*)
/*   1364 */	ld1d	{z27.d}, p0/z, [x13, z1.d, lsl #3]	//  (*)
/*   1364 */	ld1d	{z24.d}, p0/z, [x13, z24.d, lsl #3]	//  (*)
/*   1364 */	ld1d	{z1.d}, p0/z, [x13, z20.d, lsl #3]	//  (*)
/*   1364 */	fmls	z5.d, p0/m, z30.d, z21.d
/*   1364 */	fmls	z3.d, p0/m, z28.d, z8.d
/*   1364 */	fmls	z6.d, p0/m, z25.d, z26.d
/*   1364 */	fmls	z2.d, p0/m, z29.d, z31.d
/*   1364 */	fmls	z4.d, p0/m, z23.d, z0.d
/*   1364 */	fmls	z16.d, p0/m, z19.d, z27.d
/*   1364 */	fmls	z7.d, p0/m, z22.d, z24.d
/*   1364 */	fmls	z17.d, p0/m, z18.d, z1.d
	.loc 38 1365 0
..LDL543:
/*   1365 */	bpl	.L1810
.L1804:
	.loc 38 1364 0
..LDL544:
/*   1364 */	fadd	z16.d, z17.d, z16.d
/*   1364 */	fadd	z0.d, z2.d, z3.d
/*   1364 */	fadd	z2.d, z4.d, z7.d
/*   1364 */	fadd	z1.d, z5.d, z6.d
/*   1364 */	fadd	z0.d, z0.d, z16.d
/*   1364 */	fadd	z1.d, z1.d, z2.d
/*   1364 */	fadd	z0.d, z1.d, z0.d
.L1526:
	.loc 38 1362 0 is_stmt 1
..LDL545:
/*   1362 */	adds	w2, w4, 7
/*   1362 */	bmi	.L1516
	.loc 38 1364 0 is_stmt 0
..LDL546:
/*   1364 */	ldr	x5, [x0, 16]	//  "xv"
	.p2align 5
.L1538:					// :entr:term:mod
	.loc 38 1363 0 is_stmt 1
..LDL547:
/*   1363 */	index	z1.d, 0, -1
/*   1363 */	mov	x3, x1
	.loc 38 1362 0 is_stmt 0
..LDL548:
/*   1362 */	sub	x1, x1, 8
	.loc 38 1363 0
..LDL549:
/*   1363 */	add	x4, x15, x3, lsl #2
	.loc 38 1365 0
..LDL550:
/*   1365 */	subs	w2, w2, 1
	.loc 38 1364 0 is_stmt 1
..LDL551:
/*   1364 */	add	x3, x14, x3, lsl #3
	.loc 38 1363 0
..LDL552:
/*   1363 */	ld1sw	{z2.d}, p0/z, [x4, z1.d, lsl #2]	//  (*)
	.loc 38 1364 0
..LDL553:
/*   1364 */	ld1d	{z1.d}, p0/z, [x3, z1.d, lsl #3]	//  (*)
/*   1364 */	ld1d	{z2.d}, p0/z, [x5, z2.d, lsl #3]	//  (*)
/*   1364 */	fmls	z0.d, p0/m, z1.d, z2.d
	.loc 38 1362 0 is_stmt 0
..LDL554:
/*   1362 */	bpl	.L1538
.L1516:
	.loc 38 1364 0
..LDL555:
/*   1364 */	movprfx	z1, z0
/*   1364 */	ext	z1.b, z1.b, z0.b, 32
/*   1364 */	fadd	z1.d, z1.d, z0.d
/*   1364 */	movprfx	z0, z1
/*   1364 */	ext	z0.b, z0.b, z1.b, 16
/*   1364 */	fadd	z1.d, z1.d, z0.d
/*   1364 */	movprfx	z0, z1
/*   1364 */	ext	z0.b, z0.b, z1.b, 8
/*   1364 */	fadd	z0.d, z1.d, z0.d
/*   1364 */	fadd	d13, d13, d0
.L1517:
	.loc 38 1362 0 is_stmt 1
..LDL556:
/*   1362 */	sbfiz	x1, x17, 3, 32
/*   1362 */	sub	x1, x23, x1
/*   1362 */	add	x1, x1, x18
/*   1362 */	cbz	w30, .L1520
/*   1362 */	whilelt	p1.d, wzr, w30
	.loc 38 1364 0
..LDL557:
/*   1364 */	ldr	x3, [x0, 16]	//  "xv"
	.loc 38 1363 0
..LDL558:
/*   1363 */	add	x2, x15, x1, lsl #2
	.loc 38 1364 0
..LDL559:
/*   1364 */	add	x1, x14, x1, lsl #3
	.loc 38 1363 0
..LDL560:
/*   1363 */	ld1sw	{z1.d}, p1/z, [x2, z11.d, lsl #2]	//  (*)
	.loc 38 1364 0
..LDL561:
/*   1364 */	ld1d	{z0.d}, p1/z, [x1, z11.d, lsl #3]	//  (*)
/*   1364 */	ld1d	{z1.d}, p1/z, [x3, z1.d, lsl #3]	//  (*)
/*   1364 */	fmsb	z0.d, p1/m, z1.d, z12.d
/*   1364 */	sel	z0.d, p1, z0.d, z12.d
/*   1364 */	movprfx	z1, z0
/*   1364 */	ext	z1.b, z1.b, z0.b, 32
/*   1364 */	fadd	z1.d, z0.d, z1.d
/*   1364 */	movprfx	z0, z1
/*   1364 */	ext	z0.b, z0.b, z1.b, 16
/*   1364 */	fadd	z0.d, z1.d, z0.d
/*   1364 */	movprfx	z1, z0
/*   1364 */	ext	z1.b, z1.b, z0.b, 8
/*   1364 */	fadd	z0.d, z0.d, z1.d
/*   1364 */	fadd	d13, d13, d0
.L1520:					// :term
	.loc 38 1367 0
..LDL562:
	.loc 38 1366 0 is_stmt 0
..LDL563:
/*   1366 */	ldr	d2, [x19, x16, lsl #3]	//  (*)
	.loc 38 1367 0
..LDL564:
/*   1367 */	frecpe	d1, d14
	.loc 38 1368 0 is_stmt 1
..LDL565:
/*   1368 */	sub	x29, x29, 1
/*   1368 */	subs	w20, w20, 1
	.loc 38 1367 0
..LDL566:
/*   1367 */	fmsub	d0, d14, d1, d15
/*   1367 */	fmadd	d4, d2, d14, d13
/*   1367 */	fmadd	d2, d0, d0, d0
/*   1367 */	fmul	d3, d0, d0
/*   1367 */	fmul	d1, d4, d1
/*   1367 */	fmadd	d0, d3, d3, d0
/*   1367 */	fmadd	d2, d2, d1, d1
/*   1367 */	fmadd	d0, d0, d2, d1
/*   1367 */	str	d0, [x19, x16, lsl #3]	//  (*)
	.loc 38 1368 0 is_stmt 0
..LDL567:
/*   1368 */	bne	.L1512
	.loc 38 1368 0 is_stmt 1
..LDL568:
.L1523:
/*   1368 */	add	x19, sp, 32
/*   1368 */	ldr	x0, [x19, -16]
/*   1368 */	bl	__mpc_obar
/*   1368 */	ldr	x0, [x19, -16]
/*   1368 */	bl	__mpc_obar
/*    ??? */	add	sp, sp, 64
	.cfi_def_cfa_offset 128
/*    ??? */	ldp	x19, x20, [sp, 96]	//  (*)
	.cfi_restore 19
	.cfi_restore 20
/*    ??? */	ldp	x21, x22, [sp, 80]	//  (*)
	.cfi_restore 21
	.cfi_restore 22
/*    ??? */	ldr	x23, [sp, 72]	//  (*)
	.cfi_restore 23
/*    ??? */	ldp	d8, d9, [sp, 56]	//  (*)
	.cfi_restore 72
	.cfi_restore 73
/*    ??? */	ldp	d10, d11, [sp, 40]	//  (*)
	.cfi_restore 74
	.cfi_restore 75
/*    ??? */	ldp	d12, d13, [sp, 24]	//  (*)
	.cfi_restore 76
	.cfi_restore 77
/*    ??? */	ldp	d14, d15, [sp, 8]	//  (*)
	.cfi_restore 78
	.cfi_restore 79
/*    ??? */	ldp	x29, x30, [sp, 112]	//  (*)
	.cfi_restore 29
	.cfi_restore 30
/*   1368 */	add	sp, sp, 128
	.cfi_def_cfa_offset 0
/*   1368 */	ret	
..D6.pchi:
	.cfi_endproc
.LFE5:
	.size	_Z16ComputeSYMGS_TDGRK19SparseMatrix_STRUCTRK13Vector_STRUCTRS2_R9TraceData._OMP_4, .-_Z16ComputeSYMGS_TDGRK19SparseMatrix_STRUCTRK13Vector_STRUCTRS2_R9TraceData._OMP_4
	.ident	"$Compiler: Fujitsu C/C++ Compiler 4.7.0 (Nov 10 2021 09:37:15) ../src/ComputeSYMGS.cpp _Z18ComputeSYMGS_BLOCKRK19SparseMatrix_STRUCTRK13Vector_STRUCTRS2_R9TraceData $"
	.text
	.align	2
	.global	_Z18ComputeSYMGS_BLOCKRK19SparseMatrix_STRUCTRK13Vector_STRUCTRS2_R9TraceData
	.type	_Z18ComputeSYMGS_BLOCKRK19SparseMatrix_STRUCTRK13Vector_STRUCTRS2_R9TraceData, %function
_Z18ComputeSYMGS_BLOCKRK19SparseMatrix_STRUCTRK13Vector_STRUCTRS2_R9TraceData:
	.loc 38 1377 0
..LDL569:
.LFB6:
	.cfi_startproc
/*   1531 */	sub	sp, sp, 64
	.cfi_def_cfa_offset 64
/*    ??? */	str	x30, [sp, 48]	//  (*)
	.cfi_offset 30, -16
/*    ??? */	stp	x19, x20, [sp, 32]	//  (*)
	.cfi_offset 19, -32
	.cfi_offset 20, -24
/*    ??? */	stp	x21, x22, [sp, 16]	//  (*)
	.cfi_offset 21, -48
	.cfi_offset 22, -40
/*    ??? */	str	x23, [sp, 8]	//  (*)
	.cfi_offset 23, -56
/*    ??? */	sub	sp, sp, 64
	.cfi_def_cfa_offset 128
/*   1377 */	add	x19, sp, 8
/*   1377 */	str	x0, [x19, 32]
	.loc 38 1379 0
..LDL570:
/*   1379 */	ldr	w4, [x2]	//  (*)
/*   1379 */	ldr	w3, [x0, 36]	//  (*)
/*   1379 */	cmp	w4, w3
/*   1379 */	blt	.L1557
	.loc 38 1386 0
..LDL571:
/*   1386 */	ldr	x3, [x0, 80]	//  (*)
/*   1386 */	str	x3, [x19, 24]
	.loc 38 1387 0
..LDL572:
/*   1387 */	ldr	x1, [x1, 8]	//  (*)
/*   1387 */	str	x1, [x19, 16]
	.loc 38 1388 0
..LDL573:
/*   1388 */	ldr	x1, [x2, 8]	//  (*)
/*   1388 */	str	x1, [x19, 8]
	.loc 38 1390 0
..LDL574:
/*   1390 */	str	wzr, [x19, 4]
	.loc 37 1506 0
..LDL575:
/*   1506 */	ldr	x0, [x0, 304]	//  (*)
	.loc 38 1391 0
..LDL576:
/*   1391 */	ldr	w0, [x0]	//  (*)
/*   1391 */	str	w0, [x19]
	.loc 38 1395 0
..LDL577:
/*   1395 */	ldr	x0, [x19, 32]
/*   1395 */	ldr	w0, [x0, 344]	//  (*)
/*   1395 */	cmp	w0, 0
/*   1395 */	ble	.L1549
/*   1395 */	mov	w22, 0
	.loc 38 1397 0 is_stmt 0
..LDL578:
/*   1397 */	mov	x23, 0
	.loc 38 1401 0
..LDL579:
/*   1401 */	adrp	x0, _Z18ComputeSYMGS_BLOCKRK19SparseMatrix_STRUCTRK13Vector_STRUCTRS2_R9TraceData._OMP_5
/*   1401 */	add	x21, x0, :lo12:_Z18ComputeSYMGS_BLOCKRK19SparseMatrix_STRUCTRK13Vector_STRUCTRS2_R9TraceData._OMP_5
	.loc 37 1506 0
..LDL580:
/*   1506 */	add	x20, x19, 32
	.p2align 5
.L1545:					// :entr
	.loc 38 1396 0 is_stmt 1
..LDL581:
/*   1396 */	cmp	w22, 0
/*   1396 */	ble	.L1547
	.loc 38 1397 0
..LDL582:
/*   1397 */	ldr	w2, [x20, -28]
	.loc 37 1506 0 is_stmt 0
..LDL583:
/*   1506 */	ldr	x0, [x20]
/*   1506 */	ldr	x1, [x0, 304]	//  (*)
	.loc 38 1397 0
..LDL584:
/*   1397 */	sub	x0, x23, 1
/*   1397 */	ldr	w0, [x1, x0, lsl #2]	//  (*)
/*   1397 */	add	w0, w2, w0
/*   1397 */	str	w0, [x20, -28]
	.loc 38 1398 0 is_stmt 1
..LDL585:
/*   1398 */	ldr	w1, [x1, x23, lsl #2]	//  (*)
/*   1398 */	add	w0, w0, w1
/*   1398 */	str	w0, [x20, -32]
.L1547:					// :term
	.loc 38 1401 0 is_stmt 0
..LDL586:
/*   1401 */	mov	x2, 0
/*   1401 */	mov	x0, x21
/*   1401 */	mov	x1, x19
/*   1401 */	bl	__mpc_opar
	.loc 38 1457 0 is_stmt 1
..LDL587:
/*   1457 */	add	w22, w22, 1
/*   1457 */	add	x23, x23, 1
/*   1457 */	ldr	x0, [x19, 32]
/*   1457 */	ldr	w0, [x0, 344]	//  (*)
/*   1457 */	cmp	w22, w0
/*   1457 */	blt	.L1545
.L1549:
	.loc 38 1459 0
..LDL588:
/*   1459 */	ldr	x1, [x19, 32]
/*   1459 */	ldr	w0, [x1, 348]	//  (*)
/*   1459 */	sub	w0, w0, 1
/*   1459 */	str	w0, [x19, 4]
	.loc 38 1460 0
..LDL589:
/*   1460 */	ldr	w2, [x1, 344]	//  (*)
	.loc 37 1506 0
..LDL590:
/*   1506 */	ldr	x1, [x1, 304]	//  (*)
	.loc 38 1460 0
..LDL591:
/*   1460 */	sub	w23, w2, 1
/*   1460 */	sxtw	x20, w23
/*   1460 */	ldr	w1, [x1, x20, lsl #2]	//  (*)
/*   1460 */	sub	w0, w0, w1
/*   1460 */	str	w0, [x19]
	.loc 38 1464 0
..LDL592:
/*   1464 */	cmp	w23, 0
/*   1464 */	blt	.L1556
	.loc 38 1470 0 is_stmt 0
..LDL593:
/*   1470 */	adrp	x0, _Z18ComputeSYMGS_BLOCKRK19SparseMatrix_STRUCTRK13Vector_STRUCTRS2_R9TraceData._OMP_6
	.loc 38 1465 0
..LDL594:
/*   1465 */	add	x22, x19, 32
	.loc 38 1470 0
..LDL595:
/*   1470 */	add	x21, x0, :lo12:_Z18ComputeSYMGS_BLOCKRK19SparseMatrix_STRUCTRK13Vector_STRUCTRS2_R9TraceData._OMP_6
	.p2align 5
.L1552:					// :entr
	.loc 38 1465 0 is_stmt 1
..LDL596:
/*   1465 */	ldr	x1, [x22]
/*   1465 */	ldr	w0, [x1, 344]	//  (*)
/*   1465 */	sub	w0, w0, 1
/*   1465 */	cmp	w23, w0
/*   1465 */	bge	.L1554
	.loc 38 1466 0
..LDL597:
/*   1466 */	ldr	w0, [x22, -28]
	.loc 37 1506 0 is_stmt 0
..LDL598:
/*   1506 */	ldr	x1, [x1, 304]	//  (*)
	.loc 38 1466 0
..LDL599:
/*   1466 */	add	x2, x20, 1
/*   1466 */	ldr	w2, [x1, x2, lsl #2]	//  (*)
/*   1466 */	sub	w0, w0, w2
/*   1466 */	str	w0, [x22, -28]
	.loc 38 1467 0 is_stmt 1
..LDL600:
/*   1467 */	ldr	w1, [x1, x20, lsl #2]	//  (*)
/*   1467 */	sub	w0, w0, w1
/*   1467 */	str	w0, [x22, -32]
.L1554:					// :term
	.loc 38 1470 0 is_stmt 0
..LDL601:
/*   1470 */	mov	x2, 0
/*   1470 */	mov	x0, x21
/*   1470 */	mov	x1, x19
/*   1470 */	bl	__mpc_opar
	.loc 38 1532 0 is_stmt 1
..LDL602:
/*   1532 */	subs	w23, w23, 1
/*   1532 */	sub	x20, x20, 1
/*   1532 */	bpl	.L1552
.L1556:
	.loc 38 1534 0
..LDL603:
/*   1534 */	mov	w0, 0
/*   1534 */	b	.L1558
.L1557:
	.loc 38 1379 0
..LDL604:
/*   1379 */	adrp	x0, .LR.1
/*   1379 */	adrp	x1, .LR.2
/*   1379 */	mov	w2, 1379
/*   1379 */	add	x0, x0, :lo12:.LR.1
/*   1379 */	add	x1, x1, :lo12:.LR.2
/*   1379 */	adrp	x3, .LR.4
/*   1379 */	add	x3, x3, :lo12:.LR.4
/*   1379 */	bl	__assert_fail
.L1558:					// :epi:term
	.loc 38 1535 0
..LDL605:
/*    ??? */	add	sp, sp, 64
	.cfi_def_cfa_offset 64
/*    ??? */	ldp	x19, x20, [sp, 32]	//  (*)
	.cfi_restore 19
	.cfi_restore 20
/*    ??? */	ldp	x21, x22, [sp, 16]	//  (*)
	.cfi_restore 21
	.cfi_restore 22
/*    ??? */	ldr	x23, [sp, 8]	//  (*)
	.cfi_restore 23
/*    ??? */	ldr	x30, [sp, 48]	//  (*)
	.cfi_restore 30
/*   1535 */	add	sp, sp, 64
	.cfi_def_cfa_offset 0
/*   1535 */	ret	
..D7.pchi:
	.cfi_endproc
.LFE6:
	.size	_Z18ComputeSYMGS_BLOCKRK19SparseMatrix_STRUCTRK13Vector_STRUCTRS2_R9TraceData, .-_Z18ComputeSYMGS_BLOCKRK19SparseMatrix_STRUCTRK13Vector_STRUCTRS2_R9TraceData
	.ident	"$Compiler: Fujitsu C/C++ Compiler 4.7.0 (Nov 10 2021 09:37:15) ../src/ComputeSYMGS.cpp _Z18ComputeSYMGS_BLOCKRK19SparseMatrix_STRUCTRK13Vector_STRUCTRS2_R9TraceData._OMP_5 $"
	.text
	.align	2
	.type	_Z18ComputeSYMGS_BLOCKRK19SparseMatrix_STRUCTRK13Vector_STRUCTRS2_R9TraceData._OMP_5, %function
_Z18ComputeSYMGS_BLOCKRK19SparseMatrix_STRUCTRK13Vector_STRUCTRS2_R9TraceData._OMP_5:
	.loc 38 1401 0
..LDL606:
.LFB7:
	.cfi_startproc
/*   1375 */	sub	sp, sp, 64
	.cfi_def_cfa_offset 64
/*    ??? */	stp	x29, x30, [sp, 48]	//  (*)
	.cfi_offset 29, -16
	.cfi_offset 30, -8
/*    ??? */	stp	x19, x20, [sp, 32]	//  (*)
	.cfi_offset 19, -32
	.cfi_offset 20, -24
/*    ??? */	stp	x21, x22, [sp, 16]	//  (*)
	.cfi_offset 21, -48
	.cfi_offset 22, -40
/*    ??? */	str	x23, [sp, 8]	//  (*)
	.cfi_offset 23, -56
/*    ??? */	sub	sp, sp, 64
	.cfi_def_cfa_offset 128
/*   1375 */	str	x1, [sp, 32]
/*   1375 */	str	x2, [sp, 24]
/*   1375 */	str	x3, [sp, 16]
/*   1375 */	str	x4, [sp, 8]
	.loc 38 1401 0 is_stmt 0
..LDL607:
	.loc 38 1401 0 is_stmt 0
..LDL608:
	.loc 38 1403 0 is_stmt 1
..LDL609:
/*   1403 */	ldr	w2, [x0, 4]	//  "firstBlock"
/*   1403 */	ldr	x3, [x0, 32]	//  "A"
/*   1403 */	ldr	w1, [x0]	//  "lastBlock"
/*   1403 */	ldr	w3, [x3, 336]	//  (*)
/*   1403 */	cmp	w2, w1
/*   1403 */	bge	.L1596
/*   1403 */	sxtw	x1, w1
/*   1403 */	sxtw	x2, w2
/*   1403 */	sub	x4, x1, 1
/*   1403 */	sxtw	x1, w3
/*   1403 */	add	x6, sp, 32
/*   1403 */	sub	x4, x4, x2
/*   1403 */	ldr	x5, [x6]
/*   1403 */	sdiv	x4, x4, x1
/*   1403 */	add	x7, x4, 1
/*   1403 */	sdiv	x4, x7, x5
/*   1403 */	msub	x5, x5, x4, x7
/*   1403 */	cbnz	x5, .L1563
/*   1403 */	ldr	x5, [x6, -8]
/*   1403 */	mul	x5, x5, x1
/*   1403 */	madd	x2, x5, x4, x2
/*   1403 */	b	.L1566
.L1563:
/*   1403 */	ldr	x6, [x6, -8]
/*   1403 */	cmp	x6, x5
/*   1403 */	blt	.L1565
/*   1403 */	madd	x5, x6, x4, x5
/*   1403 */	madd	x2, x5, x1, x2
/*   1403 */	b	.L1566
.L1565:
/*   1403 */	add	x4, x4, 1
/*   1403 */	mul	x5, x6, x1
/*   1403 */	madd	x2, x5, x4, x2
.L1566:
/*   1403 */	mul	x5, x1, x4
/*   1403 */	sub	x1, x5, x1
/*   1403 */	add	x1, x1, x2
/*   1403 */	cbz	x4, .L1596
	.loc 38 1427 0 is_stmt 0
..LDL610:
/*   1427 */	fmov	d0, 1.000000e+00
.L1568:					// :entr
	.loc 38 1404 0 is_stmt 1
..LDL611:
/*   1404 */	ldr	x5, [x0, 32]	//  "A"
/*   1404 */	ldr	w6, [x5, 332]	//  (*)
	.loc 38 1405 0
..LDL612:
/*   1405 */	ldr	w5, [x5, 336]	//  (*)
	.loc 38 1404 0
..LDL613:
/*   1404 */	mul	w4, w6, w2
	.loc 38 1405 0
..LDL614:
/*   1405 */	sdiv	w7, w4, w5
	.loc 38 1406 0
..LDL615:
/*   1406 */	madd	w4, w6, w5, w4
/*   1406 */	sdiv	w4, w4, w5
	.loc 38 1408 0
..LDL616:
/*   1408 */	sub	w14, w4, w7
/*   1408 */	cmp	w7, w4
/*   1408 */	bge	.L1593
.L1571:					// :entr
	.loc 38 1409 0
..LDL617:
/*   1409 */	ldr	x4, [x0, 32]	//  "A"
/*   1409 */	ldr	w9, [x4, 336]	//  (*)
/*   1409 */	mul	w5, w9, w7
	.loc 38 1414 0
..LDL618:
/*   1414 */	cmp	w9, 4
	.loc 38 1415 0 is_stmt 0
..LDL619:
/*   1415 */	sxtw	x15, w5
	.loc 38 1414 0
..LDL620:
/*   1414 */	bne	.L1578
	.loc 38 1415 0 is_stmt 1
..LDL621:
/*   1415 */	ldr	x6, [x0, 16]	//  "rv"
	.loc 38 1416 0
..LDL622:
/*   1416 */	add	x22, x15, 1
	.loc 38 1417 0
..LDL623:
/*   1417 */	add	x29, x15, 2
	.loc 37 1506 0
..LDL624:
/*   1506 */	ldr	x5, [x4, 256]	//  (*)
	.loc 38 1418 0
..LDL625:
/*   1418 */	add	x18, x15, 3
	.loc 38 1420 0
..LDL626:
/*   1420 */	sxtw	x8, w7
/*   1420 */	mov	w21, 0
	.loc 38 1415 0
..LDL627:
/*   1415 */	ldr	d5, [x6, x15, lsl #3]	//  (*)
	.loc 38 1416 0
..LDL628:
/*   1416 */	ldr	d20, [x6, x22, lsl #3]	//  (*)
	.loc 37 1506 0
..LDL629:
/*   1506 */	add	x9, x5, x8, lsl #2
	.loc 38 1417 0
..LDL630:
/*   1417 */	ldr	d19, [x6, x29, lsl #3]	//  (*)
	.loc 38 1418 0
..LDL631:
/*   1418 */	ldr	d18, [x6, x18, lsl #3]	//  (*)
	.loc 38 1420 0
..LDL632:
/*   1420 */	ldr	w6, [x9]	//  (*)
/*   1420 */	cmp	w6, 0
/*   1420 */	ble	.L1577
/*   1421 */	ldp	x4, x6, [x4, 64]	//  (*)
	.loc 38 1421 0 is_stmt 0
..LDL633:
/*   1421 */	mov	x16, 0
	.loc 38 1425 0
..LDL634:
/*   1425 */	ldr	w10, [x5, x8, lsl #2]	//  (*)
	.loc 38 1421 0
..LDL635:
/*   1421 */	ldr	x5, [x0, 8]	//  "xv"
/*   1421 */	ldr	x9, [x6, x15, lsl #3]	//  (*)
/*   1421 */	ldr	x30, [x4, x15, lsl #3]	//  (*)
	.loc 38 1422 0
..LDL636:
/*   1422 */	ldr	x8, [x6, x22, lsl #3]	//  (*)
/*   1422 */	ldr	x20, [x4, x22, lsl #3]	//  (*)
	.loc 38 1423 0
..LDL637:
/*   1423 */	ldr	x13, [x6, x29, lsl #3]	//  (*)
/*   1423 */	ldr	x12, [x4, x29, lsl #3]	//  (*)
	.loc 38 1424 0
..LDL638:
/*   1424 */	ldr	x19, [x6, x18, lsl #3]	//  (*)
/*   1424 */	ldr	x11, [x4, x18, lsl #3]	//  (*)
	.p2align 5
.L1575:					// :entr:term
	.loc 38 1421 0 is_stmt 1
..LDL639:
/*   1421 */	ldrsw	x6, [x30, x16, lsl #2]	//  (*)
	.loc 38 1422 0
..LDL640:
/*   1422 */	ldrsw	x4, [x20, x16, lsl #2]	//  (*)
	.loc 38 1425 0
..LDL641:
/*   1425 */	add	w21, w21, 1
	.loc 38 1423 0
..LDL642:
/*   1423 */	ldrsw	x23, [x12, x16, lsl #2]	//  (*)
	.loc 38 1424 0
..LDL643:
/*   1424 */	ldrsw	x17, [x11, x16, lsl #2]	//  (*)
	.loc 38 1425 0
..LDL644:
/*   1425 */	cmp	w21, w10
	.loc 38 1421 0
..LDL645:
/*   1421 */	ldr	d3, [x9, x16, lsl #3]	//  (*)
	.loc 38 1422 0
..LDL646:
/*   1422 */	ldr	d2, [x8, x16, lsl #3]	//  (*)
	.loc 38 1423 0
..LDL647:
/*   1423 */	ldr	d4, [x13, x16, lsl #3]	//  (*)
	.loc 38 1424 0
..LDL648:
/*   1424 */	ldr	d1, [x19, x16, lsl #3]	//  (*)
	.loc 38 1425 0
..LDL649:
/*   1425 */	add	x16, x16, 1
	.loc 38 1421 0
..LDL650:
/*   1421 */	ldr	d17, [x5, x6, lsl #3]	//  (*)
	.loc 38 1422 0
..LDL651:
/*   1422 */	ldr	d7, [x5, x4, lsl #3]	//  (*)
	.loc 38 1423 0
..LDL652:
/*   1423 */	ldr	d16, [x5, x23, lsl #3]	//  (*)
	.loc 38 1424 0
..LDL653:
/*   1424 */	ldr	d6, [x5, x17, lsl #3]	//  (*)
	.loc 38 1421 0
..LDL654:
/*   1421 */	fmsub	d5, d3, d17, d5
	.loc 38 1422 0
..LDL655:
/*   1422 */	fmsub	d20, d2, d7, d20
	.loc 38 1423 0
..LDL656:
/*   1423 */	fmsub	d19, d4, d16, d19
	.loc 38 1424 0
..LDL657:
/*   1424 */	fmsub	d18, d1, d6, d18
	.loc 38 1425 0 is_stmt 0
..LDL658:
/*   1425 */	blt	.L1575
.L1577:
	.loc 38 1427 0 is_stmt 1
..LDL659:
	.loc 38 1426 0 is_stmt 0
..LDL660:
/*   1426 */	ldr	x4, [x0, 8]	//  "xv"
/*   1426 */	ldr	x5, [x0, 24]	//  "matrixDiagonal"
/*   1426 */	ldr	x5, [x5, x15, lsl #3]	//  (*)
/*   1426 */	ldr	d2, [x4, x15, lsl #3]	//  (*)
/*   1426 */	ldr	d1, [x5]	//  (*)
	.loc 38 1427 0
..LDL661:
/*   1427 */	fmadd	d3, d2, d1, d5
/*   1427 */	frecpe	d2, d1
/*   1427 */	fmsub	d4, d1, d2, d0
/*   1427 */	fmul	d1, d3, d2
/*   1427 */	fmadd	d2, d4, d4, d4
/*   1427 */	fmul	d3, d4, d4
/*   1427 */	fmadd	d2, d2, d1, d1
/*   1427 */	fmadd	d3, d3, d3, d4
/*   1427 */	fmadd	d1, d3, d2, d1
/*   1427 */	str	d1, [x4, x15, lsl #3]	//  (*)
	.loc 38 1428 0 is_stmt 1
..LDL662:
/*   1428 */	ldr	x5, [x0, 24]	//  "matrixDiagonal"
	.loc 38 1429 0
..LDL663:
	.loc 38 1428 0 is_stmt 0
..LDL664:
/*   1428 */	ldr	d1, [x4, x22, lsl #3]	//  (*)
	.loc 38 1428 0 is_stmt 1
..LDL665:
/*   1428 */	ldr	x5, [x5, x22, lsl #3]	//  (*)
	.loc 38 1429 0
..LDL666:
	.loc 38 1428 0 is_stmt 0
..LDL667:
/*   1428 */	ldr	d2, [x5]	//  (*)
	.loc 38 1429 0
..LDL668:
/*   1429 */	fmadd	d1, d1, d2, d20
/*   1429 */	frecpe	d3, d2
/*   1429 */	fmsub	d2, d2, d3, d0
/*   1429 */	fmul	d3, d1, d3
/*   1429 */	fmadd	d1, d2, d2, d2
/*   1429 */	fmul	d4, d2, d2
/*   1429 */	fmadd	d1, d1, d3, d3
/*   1429 */	fmadd	d2, d4, d4, d2
/*   1429 */	fmadd	d1, d2, d1, d3
/*   1429 */	str	d1, [x4, x22, lsl #3]	//  (*)
	.loc 38 1430 0 is_stmt 1
..LDL669:
/*   1430 */	ldr	x5, [x0, 24]	//  "matrixDiagonal"
	.loc 38 1431 0
..LDL670:
	.loc 38 1430 0 is_stmt 0
..LDL671:
/*   1430 */	ldr	d2, [x4, x29, lsl #3]	//  (*)
	.loc 38 1430 0 is_stmt 1
..LDL672:
/*   1430 */	ldr	x5, [x5, x29, lsl #3]	//  (*)
	.loc 38 1431 0
..LDL673:
	.loc 38 1430 0 is_stmt 0
..LDL674:
/*   1430 */	ldr	d1, [x5]	//  (*)
	.loc 38 1431 0
..LDL675:
/*   1431 */	fmadd	d4, d2, d1, d19
/*   1431 */	frecpe	d3, d1
/*   1431 */	fmsub	d2, d1, d3, d0
/*   1431 */	fmul	d3, d4, d3
/*   1431 */	fmadd	d4, d2, d2, d2
/*   1431 */	fmul	d1, d2, d2
/*   1431 */	fmadd	d4, d4, d3, d3
/*   1431 */	fmadd	d1, d1, d1, d2
/*   1431 */	fmadd	d1, d1, d4, d3
/*   1431 */	str	d1, [x4, x29, lsl #3]	//  (*)
	.loc 38 1432 0 is_stmt 1
..LDL676:
/*   1432 */	ldr	x5, [x0, 24]	//  "matrixDiagonal"
	.loc 38 1433 0
..LDL677:
	.loc 38 1432 0 is_stmt 0
..LDL678:
/*   1432 */	ldr	d2, [x4, x18, lsl #3]	//  (*)
	.loc 38 1432 0 is_stmt 1
..LDL679:
/*   1432 */	ldr	x5, [x5, x18, lsl #3]	//  (*)
	.loc 38 1433 0
..LDL680:
	.loc 38 1432 0 is_stmt 0
..LDL681:
/*   1432 */	ldr	d1, [x5]	//  (*)
	.loc 38 1433 0
..LDL682:
/*   1433 */	fmadd	d3, d2, d1, d18
/*   1433 */	frecpe	d2, d1
/*   1433 */	fmsub	d1, d1, d2, d0
/*   1433 */	fmul	d2, d3, d2
/*   1433 */	fmadd	d3, d1, d1, d1
/*   1433 */	fmul	d4, d1, d1
/*   1433 */	fmadd	d3, d3, d2, d2
/*   1433 */	fmadd	d1, d4, d4, d1
/*   1433 */	fmadd	d1, d1, d3, d2
/*   1433 */	str	d1, [x4, x18, lsl #3]	//  (*)
	.loc 38 1434 0
..LDL683:
/*   1434 */	b	.L1591
.L1578:
	.loc 38 1434 0 is_stmt 1
..LDL684:
	.loc 38 1435 0 is_stmt 0
..LDL685:
/*   1435 */	ldr	x6, [x0, 16]	//  "rv"
	.loc 38 1438 0
..LDL686:
/*   1438 */	add	x8, x4, 256
/*   1438 */	sxtw	x5, w7
	.loc 38 1434 0
..LDL687:
/*   1434 */	cmp	w9, 2
	.loc 38 1435 0
..LDL688:
/*   1435 */	ldr	d1, [x6, x15, lsl #3]	//  (*)
	.loc 38 1434 0
..LDL689:
/*   1434 */	beq	.L1585
	.loc 38 1449 0 is_stmt 1
..LDL690:
/*   1449 */	mov	w6, 0
	.loc 37 1506 0
..LDL691:
/*   1506 */	ldr	x8, [x8]	//  (*)
/*   1506 */	add	x8, x8, x5, lsl #2
	.loc 38 1449 0
..LDL692:
/*   1449 */	ldr	w8, [x8]	//  (*)
/*   1449 */	cmp	w8, 0
/*   1449 */	ble	.L1584
/*   1450 */	ldp	x9, x12, [x4, 64]	//  (*)
	.loc 38 1450 0 is_stmt 0
..LDL693:
/*   1450 */	mov	x8, 0
	.loc 37 1506 0
..LDL694:
/*   1506 */	ldr	x11, [x4, 256]	//  (*)
	.loc 38 1450 0
..LDL695:
/*   1450 */	ldr	x10, [x0, 8]	//  "xv"
/*   1450 */	ldr	x4, [x12, x15, lsl #3]	//  (*)
/*   1450 */	ldr	x9, [x9, x15, lsl #3]	//  (*)
	.loc 38 1451 0
..LDL696:
/*   1451 */	ldr	w5, [x11, x5, lsl #2]	//  (*)
	.p2align 5
.L1582:					// :entr:term
	.loc 38 1450 0 is_stmt 1
..LDL697:
/*   1450 */	ldrsw	x11, [x9, x8, lsl #2]	//  (*)
/*   1450 */	ldr	d3, [x4, x8, lsl #3]	//  (*)
	.loc 38 1451 0
..LDL698:
/*   1451 */	add	w6, w6, 1
/*   1451 */	add	x8, x8, 1
/*   1451 */	cmp	w6, w5
	.loc 38 1450 0
..LDL699:
/*   1450 */	ldr	d2, [x10, x11, lsl #3]	//  (*)
/*   1450 */	fmsub	d1, d3, d2, d1
	.loc 38 1451 0
..LDL700:
/*   1451 */	blt	.L1582
.L1584:
	.loc 38 1453 0
..LDL701:
	.loc 38 1452 0 is_stmt 0
..LDL702:
/*   1452 */	ldr	x4, [x0, 8]	//  "xv"
/*   1452 */	ldr	x5, [x0, 24]	//  "matrixDiagonal"
/*   1452 */	ldr	x5, [x5, x15, lsl #3]	//  (*)
/*   1452 */	ldr	d3, [x4, x15, lsl #3]	//  (*)
/*   1452 */	ldr	d2, [x5]	//  (*)
	.loc 38 1453 0
..LDL703:
/*   1453 */	fmadd	d4, d3, d2, d1
/*   1453 */	frecpe	d3, d2
/*   1453 */	fmsub	d1, d2, d3, d0
/*   1453 */	fmul	d3, d4, d3
/*   1453 */	fmadd	d4, d1, d1, d1
/*   1453 */	fmul	d2, d1, d1
/*   1453 */	fmadd	d4, d4, d3, d3
/*   1453 */	fmadd	d1, d2, d2, d1
/*   1453 */	fmadd	d1, d1, d4, d3
/*   1453 */	str	d1, [x4, x15, lsl #3]	//  (*)
	.loc 38 1454 0
..LDL704:
/*   1454 */	b	.L1591
.L1585:
	.loc 38 1436 0 is_stmt 1
..LDL705:
/*   1436 */	add	x9, x15, 1
	.loc 37 1506 0
..LDL706:
/*   1506 */	ldr	x8, [x8]	//  (*)
	.loc 38 1436 0
..LDL707:
/*   1436 */	ldr	d2, [x6, x9, lsl #3]	//  (*)
	.loc 38 1438 0
..LDL708:
/*   1438 */	mov	w6, 0
	.loc 37 1506 0
..LDL709:
/*   1506 */	add	x8, x8, x5, lsl #2
	.loc 38 1438 0
..LDL710:
/*   1438 */	ldr	w8, [x8]	//  (*)
/*   1438 */	cmp	w8, 0
/*   1438 */	ble	.L1590
/*   1439 */	ldp	x13, x12, [x4, 64]	//  (*)
	.loc 38 1439 0 is_stmt 0
..LDL711:
/*   1439 */	mov	x8, 0
	.loc 37 1506 0
..LDL712:
/*   1506 */	ldr	x4, [x4, 256]	//  (*)
	.loc 38 1439 0
..LDL713:
/*   1439 */	ldr	x10, [x0, 8]	//  "xv"
/*   1439 */	ldr	x11, [x12, x15, lsl #3]	//  (*)
/*   1439 */	ldr	x16, [x13, x15, lsl #3]	//  (*)
	.loc 38 1440 0
..LDL714:
/*   1440 */	ldr	x12, [x12, x9, lsl #3]	//  (*)
/*   1440 */	ldr	x13, [x13, x9, lsl #3]	//  (*)
	.loc 38 1441 0
..LDL715:
/*   1441 */	ldr	w17, [x4, x5, lsl #2]	//  (*)
	.p2align 5
.L1588:					// :entr:term
	.loc 38 1439 0 is_stmt 1
..LDL716:
/*   1439 */	ldrsw	x4, [x16, x8, lsl #2]	//  (*)
	.loc 38 1440 0
..LDL717:
/*   1440 */	ldrsw	x5, [x13, x8, lsl #2]	//  (*)
	.loc 38 1441 0
..LDL718:
/*   1441 */	add	w6, w6, 1
	.loc 38 1439 0
..LDL719:
/*   1439 */	ldr	d4, [x11, x8, lsl #3]	//  (*)
	.loc 38 1440 0
..LDL720:
/*   1440 */	ldr	d5, [x12, x8, lsl #3]	//  (*)
	.loc 38 1441 0
..LDL721:
/*   1441 */	add	x8, x8, 1
/*   1441 */	cmp	w6, w17
	.loc 38 1439 0
..LDL722:
/*   1439 */	ldr	d3, [x10, x4, lsl #3]	//  (*)
	.loc 38 1440 0
..LDL723:
/*   1440 */	ldr	d6, [x10, x5, lsl #3]	//  (*)
	.loc 38 1439 0
..LDL724:
/*   1439 */	fmsub	d1, d4, d3, d1
	.loc 38 1440 0
..LDL725:
/*   1440 */	fmsub	d2, d5, d6, d2
	.loc 38 1441 0 is_stmt 0
..LDL726:
/*   1441 */	blt	.L1588
.L1590:
	.loc 38 1443 0 is_stmt 1
..LDL727:
	.loc 38 1442 0 is_stmt 0
..LDL728:
/*   1442 */	ldr	x4, [x0, 8]	//  "xv"
/*   1442 */	ldr	x5, [x0, 24]	//  "matrixDiagonal"
/*   1442 */	ldr	x5, [x5, x15, lsl #3]	//  (*)
/*   1442 */	ldr	d4, [x4, x15, lsl #3]	//  (*)
/*   1442 */	ldr	d3, [x5]	//  (*)
	.loc 38 1443 0
..LDL729:
/*   1443 */	fmadd	d1, d4, d3, d1
/*   1443 */	frecpe	d4, d3
/*   1443 */	fmsub	d3, d3, d4, d0
/*   1443 */	fmul	d4, d1, d4
/*   1443 */	fmadd	d5, d3, d3, d3
/*   1443 */	fmul	d1, d3, d3
/*   1443 */	fmadd	d5, d5, d4, d4
/*   1443 */	fmadd	d1, d1, d1, d3
/*   1443 */	fmadd	d1, d1, d5, d4
/*   1443 */	str	d1, [x4, x15, lsl #3]	//  (*)
	.loc 38 1444 0 is_stmt 1
..LDL730:
/*   1444 */	ldr	x5, [x0, 24]	//  "matrixDiagonal"
	.loc 38 1445 0
..LDL731:
	.loc 38 1444 0 is_stmt 0
..LDL732:
/*   1444 */	ldr	d3, [x4, x9, lsl #3]	//  (*)
	.loc 38 1444 0 is_stmt 1
..LDL733:
/*   1444 */	ldr	x5, [x5, x9, lsl #3]	//  (*)
	.loc 38 1445 0
..LDL734:
	.loc 38 1444 0 is_stmt 0
..LDL735:
/*   1444 */	ldr	d1, [x5]	//  (*)
	.loc 38 1445 0
..LDL736:
/*   1445 */	fmadd	d3, d3, d1, d2
/*   1445 */	frecpe	d2, d1
/*   1445 */	fmsub	d1, d1, d2, d0
/*   1445 */	fmul	d2, d3, d2
/*   1445 */	fmadd	d3, d1, d1, d1
/*   1445 */	fmul	d4, d1, d1
/*   1445 */	fmadd	d3, d3, d2, d2
/*   1445 */	fmadd	d1, d4, d4, d1
/*   1445 */	fmadd	d1, d1, d3, d2
/*   1445 */	str	d1, [x4, x9, lsl #3]	//  (*)
.L1591:					// :term
	.loc 38 1455 0 is_stmt 1
..LDL737:
/*   1455 */	add	w7, w7, 1
/*   1455 */	subs	w14, w14, 1
/*   1455 */	bne	.L1571
.L1593:					// :term
	.loc 38 1456 0
..LDL738:
/*   1456 */	add	w2, w2, w3
/*   1456 */	cmp	w2, w1
/*   1456 */	ble	.L1568
.L1596:
/*   1456 */	add	x19, sp, 32
/*   1456 */	ldr	x0, [x19, -16]
/*   1456 */	bl	__mpc_obar
/*   1456 */	ldr	x0, [x19, -16]
/*   1456 */	bl	__mpc_obar
/*    ??? */	add	sp, sp, 64
	.cfi_def_cfa_offset 64
/*    ??? */	ldp	x19, x20, [sp, 32]	//  (*)
	.cfi_restore 19
	.cfi_restore 20
/*    ??? */	ldp	x21, x22, [sp, 16]	//  (*)
	.cfi_restore 21
	.cfi_restore 22
/*    ??? */	ldr	x23, [sp, 8]	//  (*)
	.cfi_restore 23
/*    ??? */	ldp	x29, x30, [sp, 48]	//  (*)
	.cfi_restore 29
	.cfi_restore 30
/*   1456 */	add	sp, sp, 64
	.cfi_def_cfa_offset 0
/*   1456 */	ret	
..D8.pchi:
	.cfi_endproc
.LFE7:
	.size	_Z18ComputeSYMGS_BLOCKRK19SparseMatrix_STRUCTRK13Vector_STRUCTRS2_R9TraceData._OMP_5, .-_Z18ComputeSYMGS_BLOCKRK19SparseMatrix_STRUCTRK13Vector_STRUCTRS2_R9TraceData._OMP_5
	.ident	"$Compiler: Fujitsu C/C++ Compiler 4.7.0 (Nov 10 2021 09:37:15) ../src/ComputeSYMGS.cpp _Z18ComputeSYMGS_BLOCKRK19SparseMatrix_STRUCTRK13Vector_STRUCTRS2_R9TraceData._OMP_6 $"
	.text
	.align	2
	.type	_Z18ComputeSYMGS_BLOCKRK19SparseMatrix_STRUCTRK13Vector_STRUCTRS2_R9TraceData._OMP_6, %function
_Z18ComputeSYMGS_BLOCKRK19SparseMatrix_STRUCTRK13Vector_STRUCTRS2_R9TraceData._OMP_6:
	.loc 38 1470 0
..LDL739:
.LFB8:
	.cfi_startproc
/*   1456 */	sub	sp, sp, 144
	.cfi_def_cfa_offset 144
/*    ??? */	stp	x29, x30, [sp, 128]	//  (*)
	.cfi_offset 29, -16
	.cfi_offset 30, -8
/*    ??? */	stp	x19, x20, [sp, 112]	//  (*)
	.cfi_offset 19, -32
	.cfi_offset 20, -24
/*    ??? */	stp	x21, x22, [sp, 96]	//  (*)
	.cfi_offset 21, -48
	.cfi_offset 22, -40
/*    ??? */	stp	x23, x24, [sp, 80]	//  (*)
	.cfi_offset 23, -64
	.cfi_offset 24, -56
/*    ??? */	stp	x25, x26, [sp, 64]	//  (*)
	.cfi_offset 25, -80
	.cfi_offset 26, -72
/*    ??? */	stp	d8, d9, [sp, 48]	//  (*)
	.cfi_offset 72, -96
	.cfi_offset 73, -88
/*    ??? */	stp	d10, d11, [sp, 32]	//  (*)
	.cfi_offset 74, -112
	.cfi_offset 75, -104
/*    ??? */	stp	d12, d13, [sp, 16]	//  (*)
	.cfi_offset 76, -128
	.cfi_offset 77, -120
/*    ??? */	stp	d14, d15, [sp]	//  (*)
	.cfi_offset 78, -144
	.cfi_offset 79, -136
/*    ??? */	sub	sp, sp, 48
	.cfi_def_cfa_offset 192
/*   1456 */	str	x1, [sp, 32]
/*   1456 */	str	x2, [sp, 24]
/*   1456 */	str	x3, [sp, 16]
/*   1456 */	str	x4, [sp, 8]
	.loc 38 1470 0 is_stmt 0
..LDL740:
	.loc 38 1470 0 is_stmt 0
..LDL741:
	.loc 38 1472 0 is_stmt 1
..LDL742:
/*   1472 */	ldr	w1, [x0, 4]	//  "firstBlock"
/*   1472 */	ldr	x3, [x0, 32]	//  "A"
/*   1472 */	ldr	w2, [x0]	//  "lastBlock"
/*   1472 */	ldr	w25, [x3, 336]	//  (*)
/*   1472 */	cmp	w1, w2
/*   1472 */	neg	w5, w25
/*   1472 */	ble	.L1644
/*   1472 */	sxtw	x2, w2
/*   1472 */	sxtw	x3, w1
/*   1472 */	add	x1, x2, 1
/*   1472 */	sxtw	x2, w5
/*   1472 */	add	x4, sp, 32
/*   1472 */	sub	x1, x1, x3
/*   1472 */	ldr	x5, [x4]
/*   1472 */	sdiv	x1, x1, x2
/*   1472 */	add	x6, x1, 1
/*   1472 */	sdiv	x1, x6, x5
/*   1472 */	msub	x5, x5, x1, x6
/*   1472 */	cbnz	x5, .L1602
/*   1472 */	ldr	x4, [x4, -8]
/*   1472 */	mul	x4, x4, x2
/*   1472 */	madd	x24, x4, x1, x3
/*   1472 */	b	.L1605
.L1602:
/*   1472 */	ldr	x4, [x4, -8]
/*   1472 */	cmp	x4, x5
/*   1472 */	blt	.L1604
/*   1472 */	madd	x4, x4, x1, x5
/*   1472 */	madd	x24, x4, x2, x3
/*   1472 */	b	.L1605
.L1604:
/*   1472 */	add	x1, x1, 1
/*   1472 */	mul	x4, x4, x2
/*   1472 */	madd	x24, x4, x1, x3
.L1605:
/*   1472 */	mul	x3, x2, x1
/*   1472 */	sub	x2, x3, x2
/*   1472 */	add	x26, x2, x24
/*   1472 */	cbz	x1, .L1644
	.loc 38 1489 0 is_stmt 0
..LDL743:
/*   1489 */	ptrue	p0.d, ALL
	.loc 38 1477 0 is_stmt 1
..LDL744:
	.loc 38 1490 0 is_stmt 0
..LDL745:
/*   1490 */	index	z11.d, 0, -1
	.loc 38 1489 0
..LDL746:
/*   1489 */	mov	x20, 0
	.loc 38 1496 0
..LDL747:
/*   1496 */	fmov	d13, 1.000000e+00
	.loc 38 1490 0
..LDL748:
/*   1490 */	fmov	z12.d, 0.000000e+00
.L1607:					// :entr
	.loc 38 1473 0 is_stmt 1
..LDL749:
/*   1473 */	add	w3, w24, 1
/*   1473 */	ldr	x1, [x0, 32]	//  "A"
/*   1473 */	ldr	w2, [x1, 332]	//  (*)
	.loc 38 1474 0
..LDL750:
/*   1474 */	ldr	w1, [x1, 336]	//  (*)
	.loc 38 1473 0
..LDL751:
/*   1473 */	mul	w3, w2, w3
/*   1473 */	sub	w3, w3, 1
	.loc 38 1474 0
..LDL752:
/*   1474 */	sdiv	w18, w3, w1
	.loc 38 1475 0
..LDL753:
/*   1475 */	msub	w2, w2, w1, w3
/*   1475 */	sdiv	w1, w2, w1
	.loc 38 1477 0
..LDL754:
/*   1477 */	add	w2, w1, 1
/*   1477 */	cmp	w18, w1
/*   1477 */	sub	w2, w18, w2
/*   1477 */	add	w23, w2, 1
/*   1477 */	ble	.L1641
.L1610:					// :entr
	.loc 38 1478 0
..LDL755:
/*   1478 */	ldr	x1, [x0, 32]	//  "A"
	.loc 38 1482 0
..LDL756:
/*   1482 */	add	w3, w18, 1
	.loc 38 1478 0
..LDL757:
/*   1478 */	ldr	w2, [x1, 336]	//  (*)
	.loc 38 1482 0
..LDL758:
/*   1482 */	mul	w3, w3, w2
	.loc 38 1483 0
..LDL759:
/*   1483 */	cmp	w2, 4
	.loc 38 1482 0
..LDL760:
/*   1482 */	sub	w3, w3, 1
	.loc 38 1483 0
..LDL761:
	.loc 38 1484 0 is_stmt 0
..LDL762:
/*   1484 */	sxtw	x16, w3
	.loc 38 1483 0
..LDL763:
/*   1483 */	bne	.L1620
	.loc 38 1484 0 is_stmt 1
..LDL764:
/*   1484 */	ldr	x4, [x0, 16]	//  "rv"
/*   1484 */	sub	x17, x16, 3
	.loc 38 1485 0
..LDL765:
/*   1485 */	sub	x29, x16, 2
	.loc 37 1506 0
..LDL766:
/*   1506 */	ldr	x3, [x1, 256]	//  (*)
	.loc 38 1486 0
..LDL767:
/*   1486 */	sub	x30, x16, 1
	.loc 38 1489 0
..LDL768:
/*   1489 */	sxtw	x2, w18
	.loc 38 1484 0
..LDL769:
/*   1484 */	ldr	d14, [x4, x17, lsl #3]	//  (*)
	.loc 38 1485 0
..LDL770:
/*   1485 */	ldr	d10, [x4, x29, lsl #3]	//  (*)
	.loc 38 1486 0
..LDL771:
/*   1486 */	ldr	d9, [x4, x30, lsl #3]	//  (*)
	.loc 38 1487 0
..LDL772:
/*   1487 */	ldr	d15, [x4, x16, lsl #3]	//  (*)
	.loc 38 1489 0
..LDL773:
/*   1489 */	ldr	w3, [x3, x2, lsl #2]	//  (*)
/*   1489 */	sub	w2, w3, 1
/*   1489 */	cmp	w3, 0
/*   1489 */	csel	w3, w3, wzr, ge
/*   1489 */	cmp	w2, 0
/*   1489 */	blt	.L1619
/*   1490 */	ldp	x1, x4, [x1, 64]	//  (*)
	.loc 38 1490 0 is_stmt 0
..LDL774:
/*   1490 */	sxtw	x22, w2
	.loc 38 1489 0
..LDL775:
/*   1489 */	asr	w2, w3, 2
/*   1489 */	add	w2, w3, w2, lsr #29
/*   1489 */	asr	w19, w2, 3
/*   1489 */	sub	w21, w3, w19, lsl #3
	.loc 38 1490 0
..LDL776:
/*   1490 */	ldr	x12, [x4, x17, lsl #3]	//  (*)
/*   1490 */	ldr	x14, [x1, x17, lsl #3]	//  (*)
	.loc 38 1491 0
..LDL777:
/*   1491 */	ldr	x9, [x4, x29, lsl #3]	//  (*)
/*   1491 */	ldr	x15, [x1, x29, lsl #3]	//  (*)
	.loc 38 1492 0
..LDL778:
/*   1492 */	ldr	x11, [x4, x30, lsl #3]	//  (*)
/*   1492 */	ldr	x10, [x1, x30, lsl #3]	//  (*)
	.loc 38 1493 0
..LDL779:
/*   1493 */	ldr	x13, [x4, x16, lsl #3]	//  (*)
/*   1493 */	ldr	x8, [x1, x16, lsl #3]	//  (*)
	.loc 38 1489 0
..LDL780:
/*   1489 */	cbz	w19, .L1616
	.loc 38 1490 0
..LDL781:
/*   1490 */	ldr	x7, [x0, 8]	//  "xv"
/*   1490 */	mov	w1, w19
/*   1490 */	mov	z2.d, z12.d
/*   1490 */	mov	z1.d, z12.d
/*   1490 */	mov	x2, x22
/*   1490 */	mov	z0.d, z12.d
/*   1490 */	mov	z3.d, z12.d
	.loc 38 1489 0
..LDL782:
/*   1489 */	cmp	w1, 4
/*   1489 */	blt	.L1818
	.loc 38 1490 0
..LDL783:
/*   1490 */	mov	x4, x2
	.loc 38 1489 0
..LDL784:
/*   1489 */	sub	x2, x2, 8
	.loc 38 1490 0
..LDL785:
/*   1490 */	add	x5, x14, x4, lsl #2
/*   1490 */	mov	x3, x2
/*   1490 */	ld1sw	{z20.d}, p0/z, [x5, z11.d, lsl #2]	//  (*)
	.loc 38 1491 0
..LDL786:
/*   1491 */	add	x5, x15, x4, lsl #2
/*   1491 */	ld1sw	{z18.d}, p0/z, [x5, z11.d, lsl #2]	//  (*)
	.loc 38 1492 0
..LDL787:
/*   1492 */	add	x5, x10, x4, lsl #2
/*   1492 */	ld1sw	{z4.d}, p0/z, [x5, z11.d, lsl #2]	//  (*)
	.loc 38 1493 0
..LDL788:
/*   1493 */	add	x5, x8, x4, lsl #2
/*   1493 */	ld1sw	{z21.d}, p0/z, [x5, z11.d, lsl #2]	//  (*)
	.loc 38 1490 0
..LDL789:
/*   1490 */	add	x6, x14, x3, lsl #2
/*   1490 */	add	x5, x12, x4, lsl #3
/*   1490 */	ld1sw	{z16.d}, p0/z, [x6, z11.d, lsl #2]	//  (*)
	.loc 38 1491 0
..LDL790:
/*   1491 */	add	x6, x15, x3, lsl #2
	.loc 38 1490 0
..LDL791:
/*   1490 */	ld1d	{z19.d}, p0/z, [x5, z11.d, lsl #3]	//  (*)
	.loc 38 1491 0
..LDL792:
/*   1491 */	add	x5, x9, x4, lsl #3
/*   1491 */	ld1sw	{z6.d}, p0/z, [x6, z11.d, lsl #2]	//  (*)
	.loc 38 1492 0
..LDL793:
/*   1492 */	add	x6, x10, x3, lsl #2
	.loc 38 1491 0
..LDL794:
/*   1491 */	ld1d	{z17.d}, p0/z, [x5, z11.d, lsl #3]	//  (*)
	.loc 38 1492 0
..LDL795:
/*   1492 */	ld1sw	{z5.d}, p0/z, [x6, z11.d, lsl #2]	//  (*)
/*   1492 */	add	x5, x11, x4, lsl #3
/*   1492 */	ld1d	{z7.d}, p0/z, [x5, z11.d, lsl #3]	//  (*)
	.loc 38 1493 0
..LDL796:
/*   1493 */	add	x4, x13, x4, lsl #3
	.loc 38 1490 0
..LDL797:
/*   1490 */	ld1d	{z20.d}, p0/z, [x7, z20.d, lsl #3]	//  (*)
	.loc 38 1491 0
..LDL798:
/*   1491 */	ld1d	{z18.d}, p0/z, [x7, z18.d, lsl #3]	//  (*)
	.loc 38 1492 0
..LDL799:
/*   1492 */	ld1d	{z4.d}, p0/z, [x7, z4.d, lsl #3]	//  (*)
	.p2align 5
.L1614:					// :entr:term:swpl
	.loc 38 1493 0
..LDL800:
/*   1493 */	add	x5, x8, x3, lsl #2
/*   1493 */	ld1d	{z21.d}, p0/z, [x7, z21.d, lsl #3]	//  (*)
/*   1493 */	ld1d	{z22.d}, p0/z, [x4, z11.d, lsl #3]	//  (*)
/*   1493 */	ld1sw	{z23.d}, p0/z, [x5, z11.d, lsl #2]	//  (*)
	.loc 38 1489 0
..LDL801:
/*   1489 */	sub	x4, x2, 8
	.loc 38 1490 0
..LDL802:
/*   1490 */	add	x5, x14, x4, lsl #2
/*   1490 */	add	x6, x12, x3, lsl #3
/*   1490 */	ld1sw	{z30.d}, p0/z, [x5, z11.d, lsl #2]	//  (*)
	.loc 38 1491 0
..LDL803:
/*   1491 */	add	x5, x15, x4, lsl #2
	.loc 38 1490 0
..LDL804:
/*   1490 */	ld1d	{z26.d}, p0/z, [x7, z16.d, lsl #3]	//  (*)
/*   1490 */	ld1d	{z28.d}, p0/z, [x6, z11.d, lsl #3]	//  (*)
	.loc 38 1491 0
..LDL805:
/*   1491 */	add	x6, x9, x3, lsl #3
/*   1491 */	ld1sw	{z8.d}, p0/z, [x5, z11.d, lsl #2]	//  (*)
/*   1491 */	ld1d	{z31.d}, p0/z, [x7, z6.d, lsl #3]	//  (*)
	.loc 38 1492 0
..LDL806:
/*   1492 */	add	x5, x10, x4, lsl #2
	.loc 38 1491 0
..LDL807:
/*   1491 */	ld1d	{z29.d}, p0/z, [x6, z11.d, lsl #3]	//  (*)
	.loc 38 1492 0
..LDL808:
/*   1492 */	ld1sw	{z27.d}, p0/z, [x5, z11.d, lsl #2]	//  (*)
/*   1492 */	add	x5, x11, x3, lsl #3
	.loc 38 1490 0
..LDL809:
/*   1490 */	fmls	z2.d, p0/m, z19.d, z20.d
	.loc 38 1492 0
..LDL810:
/*   1492 */	ld1d	{z25.d}, p0/z, [x7, z5.d, lsl #3]	//  (*)
	.loc 38 1491 0
..LDL811:
/*   1491 */	fmls	z1.d, p0/m, z17.d, z18.d
	.loc 38 1492 0
..LDL812:
/*   1492 */	ld1d	{z24.d}, p0/z, [x5, z11.d, lsl #3]	//  (*)
	.loc 38 1493 0
..LDL813:
/*   1493 */	add	x5, x13, x3, lsl #3
	.loc 38 1492 0
..LDL814:
/*   1492 */	fmls	z0.d, p0/m, z7.d, z4.d
	.loc 38 1493 0
..LDL815:
/*   1493 */	fmls	z3.d, p0/m, z22.d, z21.d
/*   1493 */	add	x3, x8, x4, lsl #2
/*   1493 */	ld1d	{z22.d}, p0/z, [x7, z23.d, lsl #3]	//  (*)
/*   1493 */	ld1d	{z23.d}, p0/z, [x5, z11.d, lsl #3]	//  (*)
/*   1493 */	ld1sw	{z21.d}, p0/z, [x3, z11.d, lsl #2]	//  (*)
	.loc 38 1489 0
..LDL816:
/*   1489 */	sub	x2, x2, 16
	.loc 38 1490 0
..LDL817:
/*   1490 */	mov	x3, x2
/*   1490 */	add	x6, x14, x3, lsl #2
/*   1490 */	add	x5, x12, x4, lsl #3
/*   1490 */	ld1sw	{z16.d}, p0/z, [x6, z11.d, lsl #2]	//  (*)
	.loc 38 1491 0
..LDL818:
/*   1491 */	add	x6, x15, x3, lsl #2
	.loc 38 1490 0
..LDL819:
/*   1490 */	ld1d	{z20.d}, p0/z, [x7, z30.d, lsl #3]	//  (*)
/*   1490 */	ld1d	{z19.d}, p0/z, [x5, z11.d, lsl #3]	//  (*)
	.loc 38 1491 0
..LDL820:
/*   1491 */	add	x5, x9, x4, lsl #3
/*   1491 */	ld1sw	{z6.d}, p0/z, [x6, z11.d, lsl #2]	//  (*)
/*   1491 */	ld1d	{z18.d}, p0/z, [x7, z8.d, lsl #3]	//  (*)
	.loc 38 1492 0
..LDL821:
/*   1492 */	add	x6, x10, x3, lsl #2
	.loc 38 1491 0
..LDL822:
/*   1491 */	ld1d	{z17.d}, p0/z, [x5, z11.d, lsl #3]	//  (*)
	.loc 38 1492 0
..LDL823:
/*   1492 */	ld1sw	{z5.d}, p0/z, [x6, z11.d, lsl #2]	//  (*)
/*   1492 */	add	x5, x11, x4, lsl #3
	.loc 38 1490 0
..LDL824:
/*   1490 */	fmls	z2.d, p0/m, z28.d, z26.d
	.loc 38 1492 0
..LDL825:
/*   1492 */	ld1d	{z4.d}, p0/z, [x7, z27.d, lsl #3]	//  (*)
	.loc 38 1491 0
..LDL826:
/*   1491 */	fmls	z1.d, p0/m, z29.d, z31.d
	.loc 38 1492 0
..LDL827:
/*   1492 */	ld1d	{z7.d}, p0/z, [x5, z11.d, lsl #3]	//  (*)
	.loc 38 1493 0
..LDL828:
/*   1493 */	add	x4, x13, x4, lsl #3
	.loc 38 1492 0
..LDL829:
/*   1492 */	fmls	z0.d, p0/m, z24.d, z25.d
	.loc 38 1493 0
..LDL830:
/*   1493 */	fmls	z3.d, p0/m, z23.d, z22.d
	.loc 38 1489 0
..LDL831:
/*   1489 */	sub	w1, w1, 2
/*   1489 */	cmp	w1, 4
/*   1489 */	bge	.L1614
	.loc 38 1493 0
..LDL832:
/*   1493 */	ld1d	{z22.d}, p0/z, [x7, z21.d, lsl #3]	//  (*)
	.loc 38 1490 0
..LDL833:
/*   1490 */	movprfx	z21.d, p0/z, z2.d
/*   1490 */	fmls	z21.d, p0/m, z19.d, z20.d
	.loc 38 1489 0
..LDL834:
/*   1489 */	sub	x2, x2, 8
/*   1489 */	sub	w1, w1, 2
	.loc 38 1493 0
..LDL835:
/*   1493 */	ld1d	{z19.d}, p0/z, [x4, z11.d, lsl #3]	//  (*)
	.loc 38 1491 0
..LDL836:
/*   1491 */	fmsb	z18.d, p0/m, z17.d, z1.d
	.loc 38 1490 0
..LDL837:
/*   1490 */	add	x4, x12, x3, lsl #3
	.loc 38 1492 0
..LDL838:
/*   1492 */	movprfx	z17.d, p0/z, z0.d
/*   1492 */	fmls	z17.d, p0/m, z7.d, z4.d
	.loc 38 1490 0
..LDL839:
/*   1490 */	ld1d	{z2.d}, p0/z, [x4, z11.d, lsl #3]	//  (*)
	.loc 38 1491 0
..LDL840:
/*   1491 */	add	x4, x9, x3, lsl #3
	.loc 38 1492 0
..LDL841:
/*   1492 */	ld1d	{z4.d}, p0/z, [x7, z5.d, lsl #3]	//  (*)
	.loc 38 1493 0
..LDL842:
/*   1493 */	add	x5, x8, x3, lsl #2
	.loc 38 1491 0
..LDL843:
/*   1491 */	ld1d	{z1.d}, p0/z, [x4, z11.d, lsl #3]	//  (*)
	.loc 38 1490 0
..LDL844:
/*   1490 */	ld1d	{z7.d}, p0/z, [x7, z16.d, lsl #3]	//  (*)
	.loc 38 1493 0
..LDL845:
/*   1493 */	ld1sw	{z20.d}, p0/z, [x5, z11.d, lsl #2]	//  (*)
	.loc 38 1492 0
..LDL846:
/*   1492 */	add	x4, x11, x3, lsl #3
	.loc 38 1491 0
..LDL847:
/*   1491 */	ld1d	{z6.d}, p0/z, [x7, z6.d, lsl #3]	//  (*)
	.loc 38 1492 0
..LDL848:
/*   1492 */	ld1d	{z0.d}, p0/z, [x4, z11.d, lsl #3]	//  (*)
	.loc 38 1493 0
..LDL849:
/*   1493 */	add	x3, x13, x3, lsl #3
/*   1493 */	ld1d	{z5.d}, p0/z, [x3, z11.d, lsl #3]	//  (*)
/*   1493 */	fmsb	z19.d, p0/m, z22.d, z3.d
	.loc 38 1490 0
..LDL850:
/*   1490 */	fmsb	z2.d, p0/m, z7.d, z21.d
	.loc 38 1493 0
..LDL851:
/*   1493 */	ld1d	{z3.d}, p0/z, [x7, z20.d, lsl #3]	//  (*)
	.loc 38 1491 0
..LDL852:
/*   1491 */	fmsb	z1.d, p0/m, z6.d, z18.d
	.loc 38 1492 0
..LDL853:
/*   1492 */	fmsb	z0.d, p0/m, z4.d, z17.d
	.loc 38 1493 0
..LDL854:
/*   1493 */	fmsb	z3.d, p0/m, z5.d, z19.d
	.loc 38 1489 0
..LDL855:
/*   1489 */	cbz	w1, .L1815
.L1818:
	.p2align 5
.L1821:					// :entr:term:mod:swpl
	.loc 38 1490 0 is_stmt 1
..LDL856:
/*   1490 */	mov	x3, x2
	.loc 38 1489 0 is_stmt 0
..LDL857:
/*   1489 */	sub	x2, x2, 8
	.loc 38 1490 0
..LDL858:
/*   1490 */	add	x4, x14, x3, lsl #2
	.loc 38 1489 0
..LDL859:
/*   1489 */	subs	w1, w1, 1
	.loc 38 1490 0
..LDL860:
/*   1490 */	ld1sw	{z7.d}, p0/z, [x4, z11.d, lsl #2]	//  (*)
	.loc 38 1491 0 is_stmt 1
..LDL861:
/*   1491 */	add	x4, x15, x3, lsl #2
/*   1491 */	ld1sw	{z19.d}, p0/z, [x4, z11.d, lsl #2]	//  (*)
	.loc 38 1492 0
..LDL862:
/*   1492 */	add	x4, x10, x3, lsl #2
/*   1492 */	ld1sw	{z18.d}, p0/z, [x4, z11.d, lsl #2]	//  (*)
	.loc 38 1490 0
..LDL863:
/*   1490 */	add	x4, x12, x3, lsl #3
/*   1490 */	ld1d	{z16.d}, p0/z, [x4, z11.d, lsl #3]	//  (*)
	.loc 38 1491 0
..LDL864:
/*   1491 */	add	x4, x9, x3, lsl #3
	.loc 38 1493 0
..LDL865:
/*   1493 */	add	x5, x8, x3, lsl #2
	.loc 38 1491 0
..LDL866:
/*   1491 */	ld1d	{z5.d}, p0/z, [x4, z11.d, lsl #3]	//  (*)
	.loc 38 1493 0
..LDL867:
/*   1493 */	ld1sw	{z17.d}, p0/z, [x5, z11.d, lsl #2]	//  (*)
	.loc 38 1492 0
..LDL868:
/*   1492 */	add	x4, x11, x3, lsl #3
/*   1492 */	ld1d	{z4.d}, p0/z, [x4, z11.d, lsl #3]	//  (*)
	.loc 38 1493 0
..LDL869:
/*   1493 */	add	x3, x13, x3, lsl #3
/*   1493 */	ld1d	{z6.d}, p0/z, [x3, z11.d, lsl #3]	//  (*)
	.loc 38 1490 0
..LDL870:
/*   1490 */	ld1d	{z7.d}, p0/z, [x7, z7.d, lsl #3]	//  (*)
	.loc 38 1491 0
..LDL871:
/*   1491 */	ld1d	{z19.d}, p0/z, [x7, z19.d, lsl #3]	//  (*)
	.loc 38 1492 0
..LDL872:
/*   1492 */	ld1d	{z18.d}, p0/z, [x7, z18.d, lsl #3]	//  (*)
	.loc 38 1493 0
..LDL873:
/*   1493 */	ld1d	{z17.d}, p0/z, [x7, z17.d, lsl #3]	//  (*)
	.loc 38 1490 0
..LDL874:
/*   1490 */	fmls	z2.d, p0/m, z16.d, z7.d
	.loc 38 1491 0
..LDL875:
/*   1491 */	fmls	z1.d, p0/m, z5.d, z19.d
	.loc 38 1492 0
..LDL876:
/*   1492 */	fmls	z0.d, p0/m, z4.d, z18.d
	.loc 38 1493 0
..LDL877:
/*   1493 */	fmls	z3.d, p0/m, z6.d, z17.d
	.loc 38 1489 0 is_stmt 0
..LDL878:
/*   1489 */	bne	.L1821
.L1815:
	.loc 38 1493 0
..LDL879:
/*   1493 */	movprfx	z6, z3
/*   1493 */	ext	z6.b, z6.b, z3.b, 32
	.loc 38 1492 0
..LDL880:
/*   1492 */	movprfx	z7, z0
/*   1492 */	ext	z7.b, z7.b, z0.b, 32
	.loc 38 1491 0
..LDL881:
/*   1491 */	movprfx	z5, z1
/*   1491 */	ext	z5.b, z5.b, z1.b, 32
	.loc 38 1490 0
..LDL882:
/*   1490 */	movprfx	z4, z2
/*   1490 */	ext	z4.b, z4.b, z2.b, 32
	.loc 38 1493 0
..LDL883:
/*   1493 */	fadd	z6.d, z6.d, z3.d
	.loc 38 1492 0
..LDL884:
/*   1492 */	fadd	z3.d, z7.d, z0.d
	.loc 38 1491 0
..LDL885:
/*   1491 */	fadd	z0.d, z5.d, z1.d
	.loc 38 1490 0
..LDL886:
/*   1490 */	fadd	z5.d, z4.d, z2.d
	.loc 38 1493 0
..LDL887:
/*   1493 */	movprfx	z7, z6
/*   1493 */	ext	z7.b, z7.b, z6.b, 16
	.loc 38 1492 0
..LDL888:
/*   1492 */	movprfx	z2, z3
/*   1492 */	ext	z2.b, z2.b, z3.b, 16
	.loc 38 1491 0
..LDL889:
/*   1491 */	movprfx	z4, z0
/*   1491 */	ext	z4.b, z4.b, z0.b, 16
	.loc 38 1490 0
..LDL890:
/*   1490 */	movprfx	z1, z5
/*   1490 */	ext	z1.b, z1.b, z5.b, 16
	.loc 38 1493 0
..LDL891:
/*   1493 */	fadd	z7.d, z6.d, z7.d
	.loc 38 1492 0
..LDL892:
/*   1492 */	fadd	z2.d, z3.d, z2.d
	.loc 38 1491 0
..LDL893:
/*   1491 */	fadd	z0.d, z0.d, z4.d
	.loc 38 1490 0
..LDL894:
/*   1490 */	fadd	z4.d, z5.d, z1.d
	.loc 38 1493 0
..LDL895:
/*   1493 */	movprfx	z1, z7
/*   1493 */	ext	z1.b, z1.b, z7.b, 8
	.loc 38 1492 0
..LDL896:
/*   1492 */	movprfx	z3, z2
/*   1492 */	ext	z3.b, z3.b, z2.b, 8
	.loc 38 1491 0
..LDL897:
/*   1491 */	movprfx	z6, z0
/*   1491 */	ext	z6.b, z6.b, z0.b, 8
	.loc 38 1490 0
..LDL898:
/*   1490 */	movprfx	z5, z4
/*   1490 */	ext	z5.b, z5.b, z4.b, 8
	.loc 38 1493 0
..LDL899:
/*   1493 */	fadd	z1.d, z7.d, z1.d
	.loc 38 1492 0
..LDL900:
/*   1492 */	fadd	z3.d, z2.d, z3.d
	.loc 38 1491 0
..LDL901:
/*   1491 */	fadd	z2.d, z0.d, z6.d
	.loc 38 1490 0
..LDL902:
/*   1490 */	fadd	z0.d, z4.d, z5.d
	.loc 38 1493 0
..LDL903:
/*   1493 */	fadd	d15, d15, d1
	.loc 38 1492 0
..LDL904:
/*   1492 */	fadd	d9, d9, d3
	.loc 38 1491 0
..LDL905:
/*   1491 */	fadd	d10, d10, d2
	.loc 38 1490 0
..LDL906:
/*   1490 */	fadd	d14, d14, d0
.L1616:
	.loc 38 1489 0 is_stmt 1
..LDL907:
/*   1489 */	sbfiz	x1, x19, 3, 32
/*   1489 */	sub	x1, x20, x1
/*   1489 */	add	x1, x1, x22
/*   1489 */	cbz	w21, .L1619
/*   1489 */	whilelt	p1.d, wzr, w21
	.loc 38 1490 0
..LDL908:
/*   1490 */	ldr	x4, [x0, 8]	//  "xv"
	.loc 38 1491 0
..LDL909:
/*   1491 */	add	x2, x15, x1, lsl #2
/*   1491 */	ld1sw	{z6.d}, p1/z, [x2, z11.d, lsl #2]	//  (*)
	.loc 38 1492 0
..LDL910:
/*   1492 */	add	x2, x10, x1, lsl #2
/*   1492 */	ld1sw	{z5.d}, p1/z, [x2, z11.d, lsl #2]	//  (*)
	.loc 38 1490 0
..LDL911:
/*   1490 */	add	x2, x12, x1, lsl #3
/*   1490 */	add	x3, x14, x1, lsl #2
/*   1490 */	ld1d	{z3.d}, p1/z, [x2, z11.d, lsl #3]	//  (*)
/*   1490 */	ld1sw	{z7.d}, p1/z, [x3, z11.d, lsl #2]	//  (*)
	.loc 38 1491 0
..LDL912:
/*   1491 */	add	x2, x9, x1, lsl #3
	.loc 38 1493 0
..LDL913:
/*   1493 */	add	x3, x8, x1, lsl #2
	.loc 38 1491 0
..LDL914:
/*   1491 */	ld1d	{z2.d}, p1/z, [x2, z11.d, lsl #3]	//  (*)
	.loc 38 1493 0
..LDL915:
/*   1493 */	ld1sw	{z4.d}, p1/z, [x3, z11.d, lsl #2]	//  (*)
	.loc 38 1492 0
..LDL916:
/*   1492 */	add	x2, x11, x1, lsl #3
/*   1492 */	ld1d	{z1.d}, p1/z, [x2, z11.d, lsl #3]	//  (*)
	.loc 38 1493 0
..LDL917:
/*   1493 */	add	x1, x13, x1, lsl #3
/*   1493 */	ld1d	{z0.d}, p1/z, [x1, z11.d, lsl #3]	//  (*)
	.loc 38 1491 0
..LDL918:
/*   1491 */	ld1d	{z6.d}, p1/z, [x4, z6.d, lsl #3]	//  (*)
	.loc 38 1492 0
..LDL919:
/*   1492 */	ld1d	{z5.d}, p1/z, [x4, z5.d, lsl #3]	//  (*)
	.loc 38 1490 0
..LDL920:
/*   1490 */	ld1d	{z7.d}, p1/z, [x4, z7.d, lsl #3]	//  (*)
	.loc 38 1493 0
..LDL921:
/*   1493 */	ld1d	{z4.d}, p1/z, [x4, z4.d, lsl #3]	//  (*)
	.loc 38 1491 0
..LDL922:
/*   1491 */	fmsb	z2.d, p1/m, z6.d, z12.d
	.loc 38 1492 0
..LDL923:
/*   1492 */	fmsb	z1.d, p1/m, z5.d, z12.d
	.loc 38 1490 0
..LDL924:
/*   1490 */	fmsb	z3.d, p1/m, z7.d, z12.d
	.loc 38 1491 0 is_stmt 0
..LDL925:
/*   1491 */	sel	z2.d, p1, z2.d, z12.d
	.loc 38 1493 0 is_stmt 1
..LDL926:
/*   1493 */	fmsb	z0.d, p1/m, z4.d, z12.d
	.loc 38 1492 0 is_stmt 0
..LDL927:
/*   1492 */	sel	z1.d, p1, z1.d, z12.d
	.loc 38 1490 0
..LDL928:
/*   1490 */	sel	z3.d, p1, z3.d, z12.d
	.loc 38 1492 0
..LDL929:
/*   1492 */	movprfx	z6, z1
/*   1492 */	ext	z6.b, z6.b, z1.b, 32
	.loc 38 1493 0
..LDL930:
/*   1493 */	sel	z4.d, p1, z0.d, z12.d
	.loc 38 1491 0
..LDL931:
/*   1491 */	movprfx	z0, z2
/*   1491 */	ext	z0.b, z0.b, z2.b, 32
	.loc 38 1492 0
..LDL932:
/*   1492 */	fadd	z1.d, z1.d, z6.d
	.loc 38 1490 0
..LDL933:
/*   1490 */	movprfx	z7, z3
/*   1490 */	ext	z7.b, z7.b, z3.b, 32
	.loc 38 1493 0
..LDL934:
/*   1493 */	movprfx	z5, z4
/*   1493 */	ext	z5.b, z5.b, z4.b, 32
	.loc 38 1491 0
..LDL935:
/*   1491 */	fadd	z0.d, z2.d, z0.d
	.loc 38 1490 0
..LDL936:
/*   1490 */	fadd	z3.d, z3.d, z7.d
	.loc 38 1493 0
..LDL937:
/*   1493 */	fadd	z6.d, z4.d, z5.d
	.loc 38 1492 0
..LDL938:
/*   1492 */	movprfx	z4, z1
/*   1492 */	ext	z4.b, z4.b, z1.b, 16
	.loc 38 1491 0
..LDL939:
/*   1491 */	movprfx	z5, z0
/*   1491 */	ext	z5.b, z5.b, z0.b, 16
	.loc 38 1492 0
..LDL940:
/*   1492 */	fadd	z1.d, z1.d, z4.d
	.loc 38 1490 0
..LDL941:
/*   1490 */	movprfx	z7, z3
/*   1490 */	ext	z7.b, z7.b, z3.b, 16
	.loc 38 1493 0
..LDL942:
/*   1493 */	movprfx	z2, z6
/*   1493 */	ext	z2.b, z2.b, z6.b, 16
	.loc 38 1491 0
..LDL943:
/*   1491 */	fadd	z0.d, z0.d, z5.d
	.loc 38 1490 0
..LDL944:
/*   1490 */	fadd	z3.d, z3.d, z7.d
	.loc 38 1493 0
..LDL945:
/*   1493 */	fadd	z5.d, z6.d, z2.d
	.loc 38 1492 0
..LDL946:
/*   1492 */	movprfx	z6, z1
/*   1492 */	ext	z6.b, z6.b, z1.b, 8
	.loc 38 1491 0
..LDL947:
/*   1491 */	movprfx	z2, z0
/*   1491 */	ext	z2.b, z2.b, z0.b, 8
	.loc 38 1492 0
..LDL948:
/*   1492 */	fadd	z1.d, z1.d, z6.d
	.loc 38 1490 0
..LDL949:
/*   1490 */	movprfx	z7, z3
/*   1490 */	ext	z7.b, z7.b, z3.b, 8
	.loc 38 1493 0
..LDL950:
/*   1493 */	movprfx	z4, z5
/*   1493 */	ext	z4.b, z4.b, z5.b, 8
	.loc 38 1491 0
..LDL951:
/*   1491 */	fadd	z2.d, z0.d, z2.d
	.loc 38 1490 0
..LDL952:
/*   1490 */	fadd	z3.d, z3.d, z7.d
	.loc 38 1493 0
..LDL953:
/*   1493 */	fadd	z0.d, z5.d, z4.d
	.loc 38 1492 0
..LDL954:
/*   1492 */	fadd	d9, d9, d1
	.loc 38 1491 0
..LDL955:
/*   1491 */	fadd	d10, d10, d2
	.loc 38 1490 0
..LDL956:
/*   1490 */	fadd	d14, d14, d3
	.loc 38 1493 0
..LDL957:
/*   1493 */	fadd	d15, d15, d0
.L1619:
	.loc 38 1496 0 is_stmt 1
..LDL958:
	.loc 38 1495 0 is_stmt 0
..LDL959:
/*   1495 */	ldr	x1, [x0, 8]	//  "xv"
/*   1495 */	ldr	x2, [x0, 24]	//  "matrixDiagonal"
/*   1495 */	ldr	x2, [x2, x17, lsl #3]	//  (*)
/*   1495 */	ldr	d1, [x1, x17, lsl #3]	//  (*)
/*   1495 */	ldr	d0, [x2]	//  (*)
	.loc 38 1496 0
..LDL960:
/*   1496 */	fmadd	d1, d1, d0, d14
/*   1496 */	frecpe	d2, d0
/*   1496 */	fmsub	d0, d0, d2, d13
/*   1496 */	fmul	d1, d1, d2
/*   1496 */	fmadd	d2, d0, d0, d0
/*   1496 */	fmul	d3, d0, d0
/*   1496 */	fmadd	d2, d2, d1, d1
/*   1496 */	fmadd	d0, d3, d3, d0
/*   1496 */	fmadd	d0, d0, d2, d1
/*   1496 */	str	d0, [x1, x17, lsl #3]	//  (*)
	.loc 38 1498 0 is_stmt 1
..LDL961:
/*   1498 */	ldr	x2, [x0, 24]	//  "matrixDiagonal"
	.loc 38 1499 0
..LDL962:
	.loc 38 1498 0 is_stmt 0
..LDL963:
/*   1498 */	ldr	d1, [x1, x29, lsl #3]	//  (*)
	.loc 38 1498 0 is_stmt 1
..LDL964:
/*   1498 */	ldr	x2, [x2, x29, lsl #3]	//  (*)
	.loc 38 1499 0
..LDL965:
	.loc 38 1498 0 is_stmt 0
..LDL966:
/*   1498 */	ldr	d0, [x2]	//  (*)
	.loc 38 1499 0
..LDL967:
/*   1499 */	fmadd	d1, d1, d0, d10
/*   1499 */	frecpe	d2, d0
/*   1499 */	fmsub	d0, d0, d2, d13
/*   1499 */	fmul	d3, d1, d2
/*   1499 */	fmadd	d2, d0, d0, d0
/*   1499 */	fmul	d1, d0, d0
/*   1499 */	fmadd	d2, d2, d3, d3
/*   1499 */	fmadd	d0, d1, d1, d0
/*   1499 */	fmadd	d0, d0, d2, d3
/*   1499 */	str	d0, [x1, x29, lsl #3]	//  (*)
	.loc 38 1501 0 is_stmt 1
..LDL968:
/*   1501 */	ldr	x2, [x0, 24]	//  "matrixDiagonal"
	.loc 38 1502 0
..LDL969:
	.loc 38 1501 0 is_stmt 0
..LDL970:
/*   1501 */	ldr	d1, [x1, x30, lsl #3]	//  (*)
	.loc 38 1501 0 is_stmt 1
..LDL971:
/*   1501 */	ldr	x2, [x2, x30, lsl #3]	//  (*)
	.loc 38 1502 0
..LDL972:
	.loc 38 1501 0 is_stmt 0
..LDL973:
/*   1501 */	ldr	d0, [x2]	//  (*)
	.loc 38 1502 0
..LDL974:
/*   1502 */	fmadd	d2, d1, d0, d9
/*   1502 */	frecpe	d1, d0
/*   1502 */	fmsub	d0, d0, d1, d13
/*   1502 */	fmul	d2, d2, d1
/*   1502 */	fmadd	d1, d0, d0, d0
/*   1502 */	fmul	d3, d0, d0
/*   1502 */	fmadd	d1, d1, d2, d2
/*   1502 */	fmadd	d0, d3, d3, d0
/*   1502 */	fmadd	d0, d0, d1, d2
/*   1502 */	str	d0, [x1, x30, lsl #3]	//  (*)
	.loc 38 1504 0 is_stmt 1
..LDL975:
/*   1504 */	ldr	x2, [x0, 24]	//  "matrixDiagonal"
	.loc 38 1505 0
..LDL976:
	.loc 38 1504 0 is_stmt 0
..LDL977:
/*   1504 */	ldr	d1, [x1, x16, lsl #3]	//  (*)
	.loc 38 1504 0 is_stmt 1
..LDL978:
/*   1504 */	ldr	x2, [x2, x16, lsl #3]	//  (*)
	.loc 38 1505 0
..LDL979:
	.loc 38 1504 0 is_stmt 0
..LDL980:
/*   1504 */	ldr	d0, [x2]	//  (*)
	.loc 38 1505 0
..LDL981:
/*   1505 */	fmadd	d2, d1, d0, d15
/*   1505 */	frecpe	d1, d0
/*   1505 */	fmsub	d0, d0, d1, d13
/*   1505 */	fmul	d1, d2, d1
/*   1505 */	fmadd	d2, d0, d0, d0
/*   1505 */	fmul	d3, d0, d0
/*   1505 */	fmadd	d2, d2, d1, d1
/*   1505 */	fmadd	d0, d3, d3, d0
/*   1505 */	fmadd	d0, d0, d2, d1
/*   1505 */	str	d0, [x1, x16, lsl #3]	//  (*)
	.loc 38 1506 0
..LDL982:
/*   1506 */	b	.L1639
.L1620:
	.loc 38 1506 0 is_stmt 1
..LDL983:
	.loc 38 1510 0 is_stmt 0
..LDL984:
/*   1510 */	add	x4, x1, 256
/*   1510 */	sxtw	x3, w18
	.loc 38 1506 0
..LDL985:
/*   1506 */	cmp	w2, 2
/*   1506 */	beq	.L1630
	.loc 38 1521 0 is_stmt 1
..LDL986:
/*   1521 */	ldr	x5, [x0, 16]	//  "rv"
	.loc 37 1506 0
..LDL987:
/*   1506 */	ldr	x2, [x4]	//  (*)
	.loc 38 1521 0
..LDL988:
/*   1521 */	ldr	d14, [x5, x16, lsl #3]	//  (*)
	.loc 38 1523 0
..LDL989:
/*   1523 */	ldr	w3, [x2, x3, lsl #2]	//  (*)
/*   1523 */	sub	w2, w3, 1
/*   1523 */	cmp	w3, 0
/*   1523 */	csel	w3, w3, wzr, ge
/*   1523 */	cmp	w2, 0
/*   1523 */	blt	.L1629
/*   1524 */	ldp	x1, x4, [x1, 64]	//  (*)
	.loc 38 1524 0 is_stmt 0
..LDL990:
/*   1524 */	sxtw	x17, w2
	.loc 38 1523 0
..LDL991:
/*   1523 */	asr	w2, w3, 2
/*   1523 */	add	w2, w3, w2, lsr #29
/*   1523 */	asr	w29, w2, 3
/*   1523 */	sub	w30, w3, w29, lsl #3
	.loc 38 1524 0
..LDL992:
/*   1524 */	ldr	x14, [x4, x16, lsl #3]	//  (*)
/*   1524 */	ldr	x15, [x1, x16, lsl #3]	//  (*)
	.loc 38 1523 0
..LDL993:
/*   1523 */	cbz	w29, .L1626
/*   1523 */	sub	w4, w29, 8
/*   1523 */	mov	x1, x17
/*   1523 */	mov	z0.d, z12.d
/*   1523 */	cmp	w4, 0
/*   1523 */	blt	.L1657
	.loc 38 1524 0
..LDL994:
/*   1524 */	ldr	x13, [x0, 8]	//  "xv"
/*   1524 */	lsl	x3, x17, 3
/*   1524 */	mov	z16.d, z12.d
/*   1524 */	mov	z17.d, z12.d
/*   1524 */	lsl	x2, x17, 2
/*   1524 */	sub	x5, x3, 192
/*   1524 */	mov	z18.d, z12.d
/*   1524 */	mov	z19.d, z12.d
/*   1524 */	mov	z3.d, z12.d
/*   1524 */	mov	z2.d, z12.d
/*   1524 */	add	x2, x2, x15
/*   1524 */	mov	z7.d, z12.d
/*   1524 */	mov	z6.d, z12.d
/*   1524 */	add	x3, x3, x14
/*   1524 */	add	x5, x5, x14
	.loc 38 1523 0
..LDL995:
/*   1523 */	cmp	w4, 16
/*   1523 */	blt	.L1829
	.loc 38 1524 0
..LDL996:
/*   1524 */	ld1sw	{z24.d}, p0/z, [x2, z11.d, lsl #2]	//  (*)
/*   1524 */	sub	x7, x2, 32
/*   1524 */	sub	x6, x2, 64
	.loc 38 1525 0
..LDL997:
/*   1525 */	mov	z0.d, z6.d
	.loc 38 1524 0
..LDL998:
/*   1524 */	ld1sw	{z29.d}, p0/z, [x7, z11.d, lsl #2]	//  (*)
/*   1524 */	sub	x9, x2, 96
/*   1524 */	sub	x7, x2, 128
	.loc 38 1525 0
..LDL999:
/*   1525 */	mov	z1.d, z7.d
	.loc 38 1524 0
..LDL1000:
/*   1524 */	ld1sw	{z28.d}, p0/z, [x6, z11.d, lsl #2]	//  (*)
/*   1524 */	sub	x8, x2, 160
	.loc 38 1525 0
..LDL1001:
/*   1525 */	mov	x6, x5
	.loc 38 1524 0
..LDL1002:
/*   1524 */	ld1sw	{z27.d}, p0/z, [x9, z11.d, lsl #2]	//  (*)
	.loc 38 1525 0
..LDL1003:
/*   1525 */	mov	z4.d, z19.d
	.loc 38 1524 0
..LDL1004:
/*   1524 */	ld1sw	{z26.d}, p0/z, [x7, z11.d, lsl #2]	//  (*)
	.loc 38 1525 0
..LDL1005:
/*   1525 */	mov	z5.d, z18.d
	.loc 38 1524 0
..LDL1006:
/*   1524 */	ld1sw	{z25.d}, p0/z, [x8, z11.d, lsl #2]	//  (*)
	.loc 38 1525 0
..LDL1007:
/*   1525 */	mov	z22.d, z17.d
/*   1525 */	mov	z23.d, z16.d
	.p2align 5
.L1624:					// :entr:term:body:swpl
	.loc 38 1524 0
..LDL1008:
/*   1524 */	sub	x5, x2, 192
/*   1524 */	ld1sw	{z7.d}, p0/z, [x5, z11.d, lsl #2]	//  (*)
/*   1524 */	sub	x5, x2, 224
/*   1524 */	ld1sw	{z6.d}, p0/z, [x5, z11.d, lsl #2]	//  (*)
/*   1524 */	ld1d	{z10.d}, p0/z, [x13, z24.d, lsl #3]	//  (*)
/*   1524 */	ld1d	{z21.d}, p0/z, [x3, z11.d, lsl #3]	//  (*)
/*   1524 */	ld1d	{z30.d}, p0/z, [x13, z29.d, lsl #3]	//  (*)
/*   1524 */	sub	x5, x3, 64
/*   1524 */	ld1d	{z20.d}, p0/z, [x5, z11.d, lsl #3]	//  (*)
/*   1524 */	ld1d	{z29.d}, p0/z, [x13, z28.d, lsl #3]	//  (*)
/*   1524 */	sub	x5, x3, 128
/*   1524 */	ld1d	{z19.d}, p0/z, [x5, z11.d, lsl #3]	//  (*)
/*   1524 */	ld1d	{z28.d}, p0/z, [x13, z27.d, lsl #3]	//  (*)
/*   1524 */	ld1d	{z18.d}, p0/z, [x6, z11.d, lsl #3]	//  (*)
/*   1524 */	ld1d	{z27.d}, p0/z, [x13, z26.d, lsl #3]	//  (*)
/*   1524 */	sub	x5, x6, 64
/*   1524 */	ld1d	{z17.d}, p0/z, [x5, z11.d, lsl #3]	//  (*)
/*   1524 */	ld1d	{z26.d}, p0/z, [x13, z25.d, lsl #3]	//  (*)
/*   1524 */	sub	x5, x6, 128
/*   1524 */	ld1d	{z16.d}, p0/z, [x5, z11.d, lsl #3]	//  (*)
/*   1524 */	ld1d	{z25.d}, p0/z, [x13, z7.d, lsl #3]	//  (*)
/*   1524 */	sub	x5, x6, 192
/*   1524 */	ld1d	{z7.d}, p0/z, [x5, z11.d, lsl #3]	//  (*)
/*   1524 */	ld1d	{z24.d}, p0/z, [x13, z6.d, lsl #3]	//  (*)
/*   1524 */	sub	x5, x6, 256
/*   1524 */	ld1d	{z6.d}, p0/z, [x5, z11.d, lsl #3]	//  (*)
	.loc 38 1525 0
..LDL1009:
/*   1525 */	sub	x5, x2, 256
	.loc 38 1524 0
..LDL1010:
/*   1524 */	ld1sw	{z8.d}, p0/z, [x5, z11.d, lsl #2]	//  (*)
/*   1524 */	sub	x5, x2, 288
/*   1524 */	ld1sw	{z9.d}, p0/z, [x5, z11.d, lsl #2]	//  (*)
/*   1524 */	sub	x5, x2, 320
/*   1524 */	ld1sw	{z31.d}, p0/z, [x5, z11.d, lsl #2]	//  (*)
/*   1524 */	fmsb	z21.d, p0/m, z10.d, z23.d
/*   1524 */	sub	x5, x2, 352
/*   1524 */	fmsb	z20.d, p0/m, z30.d, z22.d
/*   1524 */	ld1sw	{z30.d}, p0/z, [x5, z11.d, lsl #2]	//  (*)
/*   1524 */	fmsb	z19.d, p0/m, z29.d, z5.d
/*   1524 */	sub	x5, x2, 384
/*   1524 */	fmsb	z18.d, p0/m, z28.d, z4.d
/*   1524 */	ld1sw	{z29.d}, p0/z, [x5, z11.d, lsl #2]	//  (*)
/*   1524 */	fmsb	z17.d, p0/m, z27.d, z3.d
/*   1524 */	sub	x5, x2, 416
/*   1524 */	ld1sw	{z28.d}, p0/z, [x5, z11.d, lsl #2]	//  (*)
/*   1524 */	fmsb	z16.d, p0/m, z26.d, z2.d
	.loc 38 1525 0
..LDL1011:
/*   1525 */	sub	x5, x6, 512
/*   1525 */	sub	x7, x3, 512
	.loc 38 1524 0
..LDL1012:
/*   1524 */	fmsb	z7.d, p0/m, z25.d, z1.d
/*   1524 */	fmsb	z6.d, p0/m, z24.d, z0.d
/*   1524 */	sub	x8, x2, 448
/*   1524 */	ld1sw	{z1.d}, p0/z, [x8, z11.d, lsl #2]	//  (*)
/*   1524 */	sub	x8, x2, 480
/*   1524 */	ld1sw	{z0.d}, p0/z, [x8, z11.d, lsl #2]	//  (*)
/*   1524 */	ld1d	{z23.d}, p0/z, [x13, z8.d, lsl #3]	//  (*)
/*   1524 */	ld1d	{z22.d}, p0/z, [x7, z11.d, lsl #3]	//  (*)
/*   1524 */	ld1d	{z27.d}, p0/z, [x13, z9.d, lsl #3]	//  (*)
/*   1524 */	sub	x7, x3, 576
/*   1524 */	ld1d	{z10.d}, p0/z, [x7, z11.d, lsl #3]	//  (*)
/*   1524 */	ld1d	{z9.d}, p0/z, [x13, z31.d, lsl #3]	//  (*)
/*   1524 */	sub	x7, x3, 640
/*   1524 */	ld1d	{z5.d}, p0/z, [x7, z11.d, lsl #3]	//  (*)
/*   1524 */	ld1d	{z26.d}, p0/z, [x13, z30.d, lsl #3]	//  (*)
/*   1524 */	ld1d	{z4.d}, p0/z, [x5, z11.d, lsl #3]	//  (*)
/*   1524 */	ld1d	{z25.d}, p0/z, [x13, z29.d, lsl #3]	//  (*)
/*   1524 */	sub	x5, x6, 576
/*   1524 */	ld1d	{z3.d}, p0/z, [x5, z11.d, lsl #3]	//  (*)
/*   1524 */	ld1d	{z8.d}, p0/z, [x13, z28.d, lsl #3]	//  (*)
/*   1524 */	sub	x5, x6, 640
/*   1524 */	ld1d	{z2.d}, p0/z, [x5, z11.d, lsl #3]	//  (*)
/*   1524 */	ld1d	{z31.d}, p0/z, [x13, z1.d, lsl #3]	//  (*)
/*   1524 */	sub	x5, x6, 704
/*   1524 */	ld1d	{z1.d}, p0/z, [x5, z11.d, lsl #3]	//  (*)
/*   1524 */	ld1d	{z30.d}, p0/z, [x13, z0.d, lsl #3]	//  (*)
/*   1524 */	sub	x5, x6, 768
/*   1524 */	ld1d	{z0.d}, p0/z, [x5, z11.d, lsl #3]	//  (*)
	.loc 38 1525 0
..LDL1013:
/*   1525 */	sub	x2, x2, 512
	.loc 38 1524 0
..LDL1014:
/*   1524 */	ld1sw	{z24.d}, p0/z, [x2, z11.d, lsl #2]	//  (*)
/*   1524 */	sub	x5, x2, 32
/*   1524 */	ld1sw	{z29.d}, p0/z, [x5, z11.d, lsl #2]	//  (*)
/*   1524 */	sub	x5, x2, 64
/*   1524 */	ld1sw	{z28.d}, p0/z, [x5, z11.d, lsl #2]	//  (*)
/*   1524 */	fmsb	z23.d, p0/m, z22.d, z21.d
/*   1524 */	sub	x5, x2, 96
/*   1524 */	movprfx	z22.d, p0/z, z20.d
/*   1524 */	fmls	z22.d, p0/m, z10.d, z27.d
/*   1524 */	ld1sw	{z27.d}, p0/z, [x5, z11.d, lsl #2]	//  (*)
/*   1524 */	fmsb	z5.d, p0/m, z9.d, z19.d
/*   1524 */	sub	x5, x2, 128
/*   1524 */	fmsb	z4.d, p0/m, z26.d, z18.d
/*   1524 */	ld1sw	{z26.d}, p0/z, [x5, z11.d, lsl #2]	//  (*)
/*   1524 */	fmsb	z3.d, p0/m, z25.d, z17.d
/*   1524 */	sub	x5, x2, 160
	.loc 38 1523 0
..LDL1015:
/*   1523 */	sub	x1, x1, 128
	.loc 38 1524 0
..LDL1016:
/*   1524 */	ld1sw	{z25.d}, p0/z, [x5, z11.d, lsl #2]	//  (*)
/*   1524 */	fmsb	z2.d, p0/m, z8.d, z16.d
	.loc 38 1525 0
..LDL1017:
/*   1525 */	sub	x6, x6, 1024
/*   1525 */	sub	x3, x3, 1024
	.loc 38 1524 0
..LDL1018:
/*   1524 */	fmsb	z1.d, p0/m, z31.d, z7.d
/*   1524 */	fmsb	z0.d, p0/m, z30.d, z6.d
	.loc 38 1525 0
..LDL1019:
/*   1525 */	sub	w4, w4, 16
	.loc 38 1523 0
..LDL1020:
/*   1523 */	cmp	w4, 16
/*   1523 */	bge	.L1624
	.loc 38 1524 0
..LDL1021:
/*   1524 */	sub	x7, x2, 192
/*   1524 */	sub	x5, x2, 224
/*   1524 */	ld1d	{z30.d}, p0/z, [x13, z24.d, lsl #3]	//  (*)
/*   1524 */	sub	x10, x3, 64
/*   1524 */	sub	x11, x3, 128
/*   1524 */	ld1d	{z20.d}, p0/z, [x13, z27.d, lsl #3]	//  (*)
/*   1524 */	ld1sw	{z8.d}, p0/z, [x7, z11.d, lsl #2]	//  (*)
/*   1524 */	sub	x7, x6, 64
/*   1524 */	sub	x9, x6, 128
/*   1524 */	ld1sw	{z31.d}, p0/z, [x5, z11.d, lsl #2]	//  (*)
/*   1524 */	sub	x12, x6, 192
/*   1524 */	sub	x8, x6, 256
/*   1524 */	ld1d	{z24.d}, p0/z, [x13, z29.d, lsl #3]	//  (*)
	.loc 38 1525 0
..LDL1022:
/*   1525 */	sub	x2, x2, 256
/*   1525 */	sub	w4, w4, 8
	.loc 38 1523 0
..LDL1023:
/*   1523 */	sub	x1, x1, 64
	.loc 38 1525 0
..LDL1024:
/*   1525 */	sub	x5, x6, 512
	.loc 38 1524 0
..LDL1025:
/*   1524 */	ld1d	{z21.d}, p0/z, [x13, z28.d, lsl #3]	//  (*)
	.loc 38 1525 0
..LDL1026:
/*   1525 */	cmp	w4, 0
	.loc 38 1524 0
..LDL1027:
/*   1524 */	ld1d	{z27.d}, p0/z, [x13, z26.d, lsl #3]	//  (*)
/*   1524 */	ld1d	{z16.d}, p0/z, [x3, z11.d, lsl #3]	//  (*)
	.loc 38 1525 0
..LDL1028:
/*   1525 */	sub	x3, x3, 512
	.loc 38 1524 0
..LDL1029:
/*   1524 */	ld1d	{z17.d}, p0/z, [x10, z11.d, lsl #3]	//  (*)
/*   1524 */	ld1d	{z18.d}, p0/z, [x11, z11.d, lsl #3]	//  (*)
/*   1524 */	ld1d	{z19.d}, p0/z, [x6, z11.d, lsl #3]	//  (*)
/*   1524 */	ld1d	{z26.d}, p0/z, [x7, z11.d, lsl #3]	//  (*)
/*   1524 */	ld1d	{z25.d}, p0/z, [x13, z25.d, lsl #3]	//  (*)
/*   1524 */	ld1d	{z9.d}, p0/z, [x9, z11.d, lsl #3]	//  (*)
/*   1524 */	ld1d	{z7.d}, p0/z, [x12, z11.d, lsl #3]	//  (*)
/*   1524 */	ld1d	{z6.d}, p0/z, [x8, z11.d, lsl #3]	//  (*)
/*   1524 */	ld1d	{z29.d}, p0/z, [x13, z8.d, lsl #3]	//  (*)
/*   1524 */	ld1d	{z28.d}, p0/z, [x13, z31.d, lsl #3]	//  (*)
/*   1524 */	fmsb	z16.d, p0/m, z30.d, z23.d
/*   1524 */	fmsb	z17.d, p0/m, z24.d, z22.d
/*   1524 */	fmsb	z18.d, p0/m, z21.d, z5.d
/*   1524 */	fmsb	z19.d, p0/m, z20.d, z4.d
/*   1524 */	fmls	z3.d, p0/m, z26.d, z27.d
/*   1524 */	fmls	z2.d, p0/m, z9.d, z25.d
/*   1524 */	fmsb	z7.d, p0/m, z29.d, z1.d
/*   1524 */	fmsb	z6.d, p0/m, z28.d, z0.d
	.loc 38 1525 0
..LDL1030:
/*   1525 */	blt	.L1826
.L1829:
	.p2align 5
.L1832:					// :entr:term:mod:swpl
	.loc 38 1524 0 is_stmt 1
..LDL1031:
/*   1524 */	ld1sw	{z23.d}, p0/z, [x2, z11.d, lsl #2]	//  (*)
/*   1524 */	sub	x7, x2, 32
/*   1524 */	sub	x10, x2, 128
/*   1524 */	sub	x6, x2, 64
/*   1524 */	ld1sw	{z31.d}, p0/z, [x7, z11.d, lsl #2]	//  (*)
/*   1524 */	sub	x12, x2, 192
/*   1524 */	sub	x7, x2, 96
/*   1524 */	sub	x8, x2, 160
/*   1524 */	ld1sw	{z5.d}, p0/z, [x10, z11.d, lsl #2]	//  (*)
/*   1524 */	sub	x11, x3, 64
/*   1524 */	sub	x9, x2, 224
/*   1524 */	ld1sw	{z1.d}, p0/z, [x12, z11.d, lsl #2]	//  (*)
/*   1524 */	ld1sw	{z25.d}, p0/z, [x6, z11.d, lsl #2]	//  (*)
/*   1524 */	sub	x6, x3, 128
/*   1524 */	sub	x10, x5, 192
/*   1524 */	ld1sw	{z21.d}, p0/z, [x7, z11.d, lsl #2]	//  (*)
/*   1524 */	sub	x7, x5, 64
/*   1524 */	sub	x12, x5, 256
/*   1524 */	ld1sw	{z20.d}, p0/z, [x8, z11.d, lsl #2]	//  (*)
/*   1524 */	sub	x8, x5, 128
	.loc 38 1523 0 is_stmt 0
..LDL1032:
/*   1523 */	sub	x1, x1, 64
	.loc 38 1524 0
..LDL1033:
/*   1524 */	ld1sw	{z4.d}, p0/z, [x9, z11.d, lsl #2]	//  (*)
	.loc 38 1525 0
..LDL1034:
/*   1525 */	sub	x2, x2, 256
/*   1525 */	subs	w4, w4, 8
	.loc 38 1524 0
..LDL1035:
/*   1524 */	ld1d	{z24.d}, p0/z, [x3, z11.d, lsl #3]	//  (*)
	.loc 38 1525 0
..LDL1036:
/*   1525 */	sub	x3, x3, 512
	.loc 38 1524 0
..LDL1037:
/*   1524 */	ld1d	{z22.d}, p0/z, [x11, z11.d, lsl #3]	//  (*)
/*   1524 */	ld1d	{z0.d}, p0/z, [x6, z11.d, lsl #3]	//  (*)
/*   1524 */	ld1d	{z26.d}, p0/z, [x5, z11.d, lsl #3]	//  (*)
	.loc 38 1525 0
..LDL1038:
/*   1525 */	sub	x5, x5, 512
	.loc 38 1524 0
..LDL1039:
/*   1524 */	ld1d	{z30.d}, p0/z, [x7, z11.d, lsl #3]	//  (*)
/*   1524 */	ld1d	{z29.d}, p0/z, [x8, z11.d, lsl #3]	//  (*)
/*   1524 */	ld1d	{z27.d}, p0/z, [x10, z11.d, lsl #3]	//  (*)
/*   1524 */	ld1d	{z28.d}, p0/z, [x12, z11.d, lsl #3]	//  (*)
/*   1524 */	ld1d	{z23.d}, p0/z, [x13, z23.d, lsl #3]	//  (*)
/*   1524 */	ld1d	{z8.d}, p0/z, [x13, z31.d, lsl #3]	//  (*)
/*   1524 */	ld1d	{z31.d}, p0/z, [x13, z5.d, lsl #3]	//  (*)
/*   1524 */	ld1d	{z5.d}, p0/z, [x13, z1.d, lsl #3]	//  (*)
/*   1524 */	ld1d	{z25.d}, p0/z, [x13, z25.d, lsl #3]	//  (*)
/*   1524 */	ld1d	{z21.d}, p0/z, [x13, z21.d, lsl #3]	//  (*)
/*   1524 */	ld1d	{z20.d}, p0/z, [x13, z20.d, lsl #3]	//  (*)
/*   1524 */	ld1d	{z1.d}, p0/z, [x13, z4.d, lsl #3]	//  (*)
/*   1524 */	fmls	z16.d, p0/m, z24.d, z23.d
/*   1524 */	fmls	z17.d, p0/m, z22.d, z8.d
/*   1524 */	fmls	z3.d, p0/m, z30.d, z31.d
/*   1524 */	fmls	z7.d, p0/m, z27.d, z5.d
/*   1524 */	fmls	z18.d, p0/m, z0.d, z25.d
/*   1524 */	fmls	z19.d, p0/m, z26.d, z21.d
/*   1524 */	fmls	z2.d, p0/m, z29.d, z20.d
/*   1524 */	fmls	z6.d, p0/m, z28.d, z1.d
	.loc 38 1525 0
..LDL1040:
/*   1525 */	bpl	.L1832
.L1826:
	.loc 38 1524 0
..LDL1041:
/*   1524 */	fadd	z4.d, z6.d, z7.d
/*   1524 */	fadd	z0.d, z2.d, z3.d
/*   1524 */	fadd	z2.d, z19.d, z18.d
/*   1524 */	fadd	z1.d, z16.d, z17.d
/*   1524 */	fadd	z0.d, z0.d, z4.d
/*   1524 */	fadd	z1.d, z1.d, z2.d
/*   1524 */	fadd	z0.d, z1.d, z0.d
.L1657:
	.loc 38 1523 0 is_stmt 1
..LDL1042:
/*   1523 */	adds	w2, w4, 7
/*   1523 */	bmi	.L1625
	.loc 38 1524 0 is_stmt 0
..LDL1043:
/*   1524 */	ldr	x5, [x0, 8]	//  "xv"
	.p2align 5
.L1669:					// :entr:term:mod
	.loc 38 1524 0 is_stmt 1
..LDL1044:
/*   1524 */	index	z1.d, 0, -1
/*   1524 */	mov	x3, x1
	.loc 38 1523 0 is_stmt 0
..LDL1045:
/*   1523 */	sub	x1, x1, 8
	.loc 38 1524 0
..LDL1046:
/*   1524 */	add	x4, x15, x3, lsl #2
	.loc 38 1525 0
..LDL1047:
/*   1525 */	subs	w2, w2, 1
	.loc 38 1524 0
..LDL1048:
/*   1524 */	add	x3, x14, x3, lsl #3
/*   1524 */	ld1sw	{z2.d}, p0/z, [x4, z1.d, lsl #2]	//  (*)
/*   1524 */	ld1d	{z1.d}, p0/z, [x3, z1.d, lsl #3]	//  (*)
/*   1524 */	ld1d	{z2.d}, p0/z, [x5, z2.d, lsl #3]	//  (*)
/*   1524 */	fmls	z0.d, p0/m, z1.d, z2.d
	.loc 38 1523 0
..LDL1049:
/*   1523 */	bpl	.L1669
.L1625:
	.loc 38 1524 0
..LDL1050:
/*   1524 */	movprfx	z1, z0
/*   1524 */	ext	z1.b, z1.b, z0.b, 32
/*   1524 */	fadd	z0.d, z1.d, z0.d
/*   1524 */	movprfx	z1, z0
/*   1524 */	ext	z1.b, z1.b, z0.b, 16
/*   1524 */	fadd	z1.d, z0.d, z1.d
/*   1524 */	movprfx	z0, z1
/*   1524 */	ext	z0.b, z0.b, z1.b, 8
/*   1524 */	fadd	z0.d, z1.d, z0.d
/*   1524 */	fadd	d14, d14, d0
.L1626:
	.loc 38 1523 0 is_stmt 1
..LDL1051:
/*   1523 */	sbfiz	x1, x29, 3, 32
/*   1523 */	sub	x1, x20, x1
/*   1523 */	add	x1, x1, x17
/*   1523 */	cbz	w30, .L1629
/*   1523 */	whilelt	p1.d, wzr, w30
	.loc 38 1524 0
..LDL1052:
/*   1524 */	ldr	x3, [x0, 8]	//  "xv"
/*   1524 */	add	x2, x15, x1, lsl #2
/*   1524 */	add	x1, x14, x1, lsl #3
/*   1524 */	ld1sw	{z1.d}, p1/z, [x2, z11.d, lsl #2]	//  (*)
/*   1524 */	ld1d	{z0.d}, p1/z, [x1, z11.d, lsl #3]	//  (*)
/*   1524 */	ld1d	{z1.d}, p1/z, [x3, z1.d, lsl #3]	//  (*)
/*   1524 */	fmsb	z0.d, p1/m, z1.d, z12.d
/*   1524 */	sel	z0.d, p1, z0.d, z12.d
/*   1524 */	movprfx	z1, z0
/*   1524 */	ext	z1.b, z1.b, z0.b, 32
/*   1524 */	fadd	z1.d, z0.d, z1.d
/*   1524 */	movprfx	z0, z1
/*   1524 */	ext	z0.b, z0.b, z1.b, 16
/*   1524 */	fadd	z1.d, z1.d, z0.d
/*   1524 */	movprfx	z0, z1
/*   1524 */	ext	z0.b, z0.b, z1.b, 8
/*   1524 */	fadd	z0.d, z1.d, z0.d
/*   1524 */	fadd	d14, d14, d0
.L1629:
	.loc 38 1528 0
..LDL1053:
	.loc 38 1527 0 is_stmt 0
..LDL1054:
/*   1527 */	ldr	x1, [x0, 8]	//  "xv"
/*   1527 */	ldr	x2, [x0, 24]	//  "matrixDiagonal"
/*   1527 */	ldr	x2, [x2, x16, lsl #3]	//  (*)
/*   1527 */	ldr	d1, [x1, x16, lsl #3]	//  (*)
/*   1527 */	ldr	d0, [x2]	//  (*)
	.loc 38 1528 0
..LDL1055:
/*   1528 */	fmadd	d2, d1, d0, d14
/*   1528 */	frecpe	d1, d0
/*   1528 */	fmsub	d0, d0, d1, d13
/*   1528 */	fmul	d1, d2, d1
/*   1528 */	fmadd	d3, d0, d0, d0
/*   1528 */	fmul	d2, d0, d0
/*   1528 */	fmadd	d3, d3, d1, d1
/*   1528 */	fmadd	d0, d2, d2, d0
/*   1528 */	fmadd	d0, d0, d3, d1
/*   1528 */	str	d0, [x1, x16, lsl #3]	//  (*)
	.loc 38 1529 0
..LDL1056:
/*   1529 */	b	.L1639
.L1630:
	.loc 38 1507 0 is_stmt 1
..LDL1057:
/*   1507 */	ldr	x2, [x0, 16]	//  "rv"
/*   1507 */	sub	x17, x16, 1
	.loc 37 1506 0
..LDL1058:
/*   1506 */	ldr	x4, [x4]	//  (*)
	.loc 38 1507 0
..LDL1059:
/*   1507 */	ldr	d14, [x2, x17, lsl #3]	//  (*)
	.loc 38 1508 0
..LDL1060:
/*   1508 */	ldr	d15, [x2, x16, lsl #3]	//  (*)
	.loc 38 1510 0
..LDL1061:
/*   1510 */	ldr	w3, [x4, x3, lsl #2]	//  (*)
/*   1510 */	sub	w2, w3, 1
/*   1510 */	cmp	w3, 0
/*   1510 */	csel	w3, w3, wzr, ge
/*   1510 */	cmp	w2, 0
/*   1510 */	blt	.L1638
/*   1511 */	ldp	x1, x4, [x1, 64]	//  (*)
	.loc 38 1511 0 is_stmt 0
..LDL1062:
/*   1511 */	sxtw	x29, w2
	.loc 38 1510 0
..LDL1063:
/*   1510 */	asr	w2, w3, 2
/*   1510 */	add	w2, w3, w2, lsr #29
/*   1510 */	asr	w30, w2, 3
/*   1510 */	sub	w19, w3, w30, lsl #3
	.loc 38 1511 0
..LDL1064:
/*   1511 */	ldr	x14, [x4, x17, lsl #3]	//  (*)
/*   1511 */	ldr	x12, [x1, x17, lsl #3]	//  (*)
	.loc 38 1512 0
..LDL1065:
/*   1512 */	ldr	x15, [x4, x16, lsl #3]	//  (*)
/*   1512 */	ldr	x13, [x1, x16, lsl #3]	//  (*)
	.loc 38 1510 0
..LDL1066:
/*   1510 */	cbz	w30, .L1635
/*   1510 */	sub	w6, w30, 4
/*   1510 */	mov	x1, x29
/*   1510 */	mov	z0.d, z12.d
/*   1510 */	mov	z1.d, z12.d
/*   1510 */	cmp	w6, 0
/*   1510 */	blt	.L1647
	.loc 38 1511 0
..LDL1067:
/*   1511 */	ldr	x11, [x0, 8]	//  "xv"
/*   1511 */	lsl	x3, x29, 2
	.loc 38 1512 0
..LDL1068:
/*   1512 */	mov	z7.d, z12.d
/*   1512 */	mov	z16.d, z12.d
	.loc 38 1511 0
..LDL1069:
/*   1511 */	lsl	x2, x29, 3
	.loc 38 1512 0
..LDL1070:
/*   1512 */	mov	z17.d, z12.d
/*   1512 */	mov	z4.d, z12.d
	.loc 38 1511 0
..LDL1071:
/*   1511 */	add	x5, x3, x12
	.loc 38 1512 0
..LDL1072:
/*   1512 */	mov	z3.d, z12.d
/*   1512 */	mov	z2.d, z12.d
	.loc 38 1511 0
..LDL1073:
/*   1511 */	add	x4, x2, x14
	.loc 38 1512 0
..LDL1074:
/*   1512 */	add	x3, x3, x13
/*   1512 */	mov	z18.d, z12.d
/*   1512 */	mov	z19.d, z12.d
/*   1512 */	add	x2, x2, x15
	.loc 38 1510 0
..LDL1075:
/*   1510 */	cmp	w6, 8
/*   1510 */	blt	.L1840
	.loc 38 1511 0
..LDL1076:
/*   1511 */	ld1sw	{z29.d}, p0/z, [x5, z11.d, lsl #2]	//  (*)
/*   1511 */	sub	x9, x5, 32
	.loc 38 1512 0
..LDL1077:
/*   1512 */	sub	x7, x3, 32
/*   1512 */	ld1sw	{z23.d}, p0/z, [x3, z11.d, lsl #2]	//  (*)
	.loc 38 1511 0
..LDL1078:
/*   1511 */	sub	x10, x5, 64
	.loc 38 1512 0
..LDL1079:
/*   1512 */	sub	x8, x3, 64
	.loc 38 1513 0
..LDL1080:
/*   1513 */	mov	z0.d, z19.d
	.loc 38 1511 0
..LDL1081:
/*   1511 */	ld1sw	{z24.d}, p0/z, [x9, z11.d, lsl #2]	//  (*)
	.loc 38 1513 0
..LDL1082:
/*   1513 */	mov	z1.d, z18.d
	.loc 38 1512 0
..LDL1083:
/*   1512 */	ld1sw	{z25.d}, p0/z, [x7, z11.d, lsl #2]	//  (*)
	.loc 38 1511 0
..LDL1084:
/*   1511 */	ld1sw	{z28.d}, p0/z, [x10, z11.d, lsl #2]	//  (*)
	.loc 38 1513 0
..LDL1085:
/*   1513 */	mov	z5.d, z17.d
	.loc 38 1512 0
..LDL1086:
/*   1512 */	ld1sw	{z27.d}, p0/z, [x8, z11.d, lsl #2]	//  (*)
	.loc 38 1513 0
..LDL1087:
/*   1513 */	mov	z6.d, z16.d
/*   1513 */	mov	z26.d, z7.d
	.p2align 5
.L1633:					// :entr:term:body:swpl
	.loc 38 1511 0
..LDL1088:
/*   1511 */	sub	x7, x5, 96
/*   1511 */	ld1sw	{z16.d}, p0/z, [x7, z11.d, lsl #2]	//  (*)
	.loc 38 1512 0
..LDL1089:
/*   1512 */	sub	x7, x3, 96
/*   1512 */	ld1sw	{z7.d}, p0/z, [x7, z11.d, lsl #2]	//  (*)
	.loc 38 1511 0
..LDL1090:
/*   1511 */	ld1d	{z22.d}, p0/z, [x11, z29.d, lsl #3]	//  (*)
/*   1511 */	ld1d	{z8.d}, p0/z, [x4, z11.d, lsl #3]	//  (*)
	.loc 38 1512 0
..LDL1091:
/*   1512 */	ld1d	{z31.d}, p0/z, [x11, z23.d, lsl #3]	//  (*)
/*   1512 */	ld1d	{z21.d}, p0/z, [x2, z11.d, lsl #3]	//  (*)
	.loc 38 1511 0
..LDL1092:
/*   1511 */	ld1d	{z30.d}, p0/z, [x11, z24.d, lsl #3]	//  (*)
/*   1511 */	sub	x7, x4, 64
/*   1511 */	ld1d	{z20.d}, p0/z, [x7, z11.d, lsl #3]	//  (*)
	.loc 38 1512 0
..LDL1093:
/*   1512 */	ld1d	{z29.d}, p0/z, [x11, z25.d, lsl #3]	//  (*)
/*   1512 */	sub	x7, x2, 64
/*   1512 */	ld1d	{z19.d}, p0/z, [x7, z11.d, lsl #3]	//  (*)
	.loc 38 1511 0
..LDL1094:
/*   1511 */	ld1d	{z28.d}, p0/z, [x11, z28.d, lsl #3]	//  (*)
/*   1511 */	sub	x7, x4, 128
/*   1511 */	ld1d	{z18.d}, p0/z, [x7, z11.d, lsl #3]	//  (*)
	.loc 38 1512 0
..LDL1095:
/*   1512 */	ld1d	{z25.d}, p0/z, [x11, z27.d, lsl #3]	//  (*)
/*   1512 */	sub	x7, x2, 128
/*   1512 */	ld1d	{z17.d}, p0/z, [x7, z11.d, lsl #3]	//  (*)
	.loc 38 1511 0
..LDL1096:
/*   1511 */	ld1d	{z24.d}, p0/z, [x11, z16.d, lsl #3]	//  (*)
/*   1511 */	sub	x7, x4, 192
/*   1511 */	ld1d	{z16.d}, p0/z, [x7, z11.d, lsl #3]	//  (*)
	.loc 38 1512 0
..LDL1097:
/*   1512 */	ld1d	{z23.d}, p0/z, [x11, z7.d, lsl #3]	//  (*)
/*   1512 */	sub	x7, x2, 192
/*   1512 */	ld1d	{z7.d}, p0/z, [x7, z11.d, lsl #3]	//  (*)
	.loc 38 1513 0
..LDL1098:
/*   1513 */	sub	x7, x5, 128
	.loc 38 1511 0
..LDL1099:
/*   1511 */	ld1sw	{z27.d}, p0/z, [x7, z11.d, lsl #2]	//  (*)
	.loc 38 1513 0
..LDL1100:
/*   1513 */	sub	x7, x3, 128
	.loc 38 1512 0
..LDL1101:
/*   1512 */	ld1sw	{z10.d}, p0/z, [x7, z11.d, lsl #2]	//  (*)
	.loc 38 1511 0
..LDL1102:
/*   1511 */	sub	x7, x5, 160
/*   1511 */	ld1sw	{z9.d}, p0/z, [x7, z11.d, lsl #2]	//  (*)
/*   1511 */	fmsb	z22.d, p0/m, z8.d, z26.d
	.loc 38 1512 0
..LDL1103:
/*   1512 */	sub	x7, x3, 160
/*   1512 */	ld1sw	{z8.d}, p0/z, [x7, z11.d, lsl #2]	//  (*)
/*   1512 */	fmsb	z21.d, p0/m, z31.d, z6.d
	.loc 38 1511 0
..LDL1104:
/*   1511 */	fmsb	z20.d, p0/m, z30.d, z5.d
	.loc 38 1512 0
..LDL1105:
/*   1512 */	fmsb	z19.d, p0/m, z29.d, z4.d
	.loc 38 1511 0
..LDL1106:
/*   1511 */	sub	x7, x5, 192
	.loc 38 1512 0
..LDL1107:
/*   1512 */	sub	x8, x3, 192
	.loc 38 1511 0
..LDL1108:
/*   1511 */	ld1sw	{z30.d}, p0/z, [x7, z11.d, lsl #2]	//  (*)
/*   1511 */	fmsb	z18.d, p0/m, z28.d, z3.d
	.loc 38 1513 0
..LDL1109:
/*   1513 */	sub	x7, x2, 256
	.loc 38 1512 0
..LDL1110:
/*   1512 */	ld1sw	{z29.d}, p0/z, [x8, z11.d, lsl #2]	//  (*)
/*   1512 */	fmsb	z17.d, p0/m, z25.d, z2.d
	.loc 38 1513 0
..LDL1111:
/*   1513 */	sub	x8, x4, 256
	.loc 38 1511 0
..LDL1112:
/*   1511 */	fmsb	z16.d, p0/m, z24.d, z1.d
	.loc 38 1512 0
..LDL1113:
/*   1512 */	fmsb	z7.d, p0/m, z23.d, z0.d
	.loc 38 1511 0
..LDL1114:
/*   1511 */	sub	x9, x5, 224
/*   1511 */	ld1sw	{z1.d}, p0/z, [x9, z11.d, lsl #2]	//  (*)
	.loc 38 1512 0
..LDL1115:
/*   1512 */	sub	x9, x3, 224
/*   1512 */	ld1sw	{z0.d}, p0/z, [x9, z11.d, lsl #2]	//  (*)
	.loc 38 1511 0
..LDL1116:
/*   1511 */	ld1d	{z26.d}, p0/z, [x11, z27.d, lsl #3]	//  (*)
/*   1511 */	ld1d	{z25.d}, p0/z, [x8, z11.d, lsl #3]	//  (*)
	.loc 38 1512 0
..LDL1117:
/*   1512 */	ld1d	{z10.d}, p0/z, [x11, z10.d, lsl #3]	//  (*)
/*   1512 */	ld1d	{z6.d}, p0/z, [x7, z11.d, lsl #3]	//  (*)
	.loc 38 1511 0
..LDL1118:
/*   1511 */	ld1d	{z9.d}, p0/z, [x11, z9.d, lsl #3]	//  (*)
/*   1511 */	sub	x7, x4, 320
/*   1511 */	ld1d	{z5.d}, p0/z, [x7, z11.d, lsl #3]	//  (*)
	.loc 38 1512 0
..LDL1119:
/*   1512 */	ld1d	{z28.d}, p0/z, [x11, z8.d, lsl #3]	//  (*)
/*   1512 */	sub	x7, x2, 320
/*   1512 */	ld1d	{z4.d}, p0/z, [x7, z11.d, lsl #3]	//  (*)
	.loc 38 1511 0
..LDL1120:
/*   1511 */	ld1d	{z27.d}, p0/z, [x11, z30.d, lsl #3]	//  (*)
/*   1511 */	sub	x7, x4, 384
/*   1511 */	ld1d	{z3.d}, p0/z, [x7, z11.d, lsl #3]	//  (*)
	.loc 38 1512 0
..LDL1121:
/*   1512 */	ld1d	{z8.d}, p0/z, [x11, z29.d, lsl #3]	//  (*)
/*   1512 */	sub	x7, x2, 384
/*   1512 */	ld1d	{z2.d}, p0/z, [x7, z11.d, lsl #3]	//  (*)
	.loc 38 1511 0
..LDL1122:
/*   1511 */	ld1d	{z31.d}, p0/z, [x11, z1.d, lsl #3]	//  (*)
/*   1511 */	sub	x7, x4, 448
/*   1511 */	ld1d	{z1.d}, p0/z, [x7, z11.d, lsl #3]	//  (*)
	.loc 38 1512 0
..LDL1123:
/*   1512 */	ld1d	{z30.d}, p0/z, [x11, z0.d, lsl #3]	//  (*)
/*   1512 */	sub	x7, x2, 448
/*   1512 */	ld1d	{z0.d}, p0/z, [x7, z11.d, lsl #3]	//  (*)
	.loc 38 1513 0
..LDL1124:
/*   1513 */	sub	x5, x5, 256
	.loc 38 1511 0
..LDL1125:
/*   1511 */	ld1sw	{z29.d}, p0/z, [x5, z11.d, lsl #2]	//  (*)
	.loc 38 1513 0
..LDL1126:
/*   1513 */	sub	x3, x3, 256
	.loc 38 1512 0
..LDL1127:
/*   1512 */	ld1sw	{z23.d}, p0/z, [x3, z11.d, lsl #2]	//  (*)
	.loc 38 1511 0
..LDL1128:
/*   1511 */	sub	x7, x5, 32
/*   1511 */	ld1sw	{z24.d}, p0/z, [x7, z11.d, lsl #2]	//  (*)
/*   1511 */	fmsb	z26.d, p0/m, z25.d, z22.d
	.loc 38 1512 0
..LDL1129:
/*   1512 */	sub	x7, x3, 32
/*   1512 */	ld1sw	{z25.d}, p0/z, [x7, z11.d, lsl #2]	//  (*)
/*   1512 */	fmsb	z6.d, p0/m, z10.d, z21.d
	.loc 38 1511 0
..LDL1130:
/*   1511 */	fmsb	z5.d, p0/m, z9.d, z20.d
	.loc 38 1512 0
..LDL1131:
/*   1512 */	fmsb	z4.d, p0/m, z28.d, z19.d
	.loc 38 1511 0
..LDL1132:
/*   1511 */	sub	x8, x5, 64
	.loc 38 1512 0
..LDL1133:
/*   1512 */	sub	x7, x3, 64
	.loc 38 1511 0
..LDL1134:
/*   1511 */	ld1sw	{z28.d}, p0/z, [x8, z11.d, lsl #2]	//  (*)
/*   1511 */	fmsb	z3.d, p0/m, z27.d, z18.d
	.loc 38 1510 0
..LDL1135:
/*   1510 */	sub	x1, x1, 64
	.loc 38 1513 0
..LDL1136:
/*   1513 */	sub	x2, x2, 512
	.loc 38 1512 0
..LDL1137:
/*   1512 */	ld1sw	{z27.d}, p0/z, [x7, z11.d, lsl #2]	//  (*)
/*   1512 */	fmsb	z2.d, p0/m, z8.d, z17.d
	.loc 38 1513 0
..LDL1138:
/*   1513 */	sub	x4, x4, 512
	.loc 38 1511 0
..LDL1139:
/*   1511 */	fmsb	z1.d, p0/m, z31.d, z16.d
	.loc 38 1512 0
..LDL1140:
/*   1512 */	fmsb	z0.d, p0/m, z30.d, z7.d
	.loc 38 1513 0
..LDL1141:
/*   1513 */	sub	w6, w6, 8
	.loc 38 1510 0
..LDL1142:
/*   1510 */	cmp	w6, 8
/*   1510 */	bge	.L1633
	.loc 38 1511 0
..LDL1143:
/*   1511 */	sub	x8, x5, 96
	.loc 38 1512 0
..LDL1144:
/*   1512 */	sub	x7, x3, 96
/*   1512 */	ld1d	{z21.d}, p0/z, [x11, z23.d, lsl #3]	//  (*)
	.loc 38 1511 0
..LDL1145:
/*   1511 */	ld1sw	{z18.d}, p0/z, [x8, z11.d, lsl #2]	//  (*)
/*   1511 */	sub	x22, x4, 64
	.loc 38 1512 0
..LDL1146:
/*   1512 */	sub	x21, x2, 64
/*   1512 */	ld1sw	{z19.d}, p0/z, [x7, z11.d, lsl #2]	//  (*)
	.loc 38 1511 0
..LDL1147:
/*   1511 */	sub	x10, x4, 128
	.loc 38 1512 0
..LDL1148:
/*   1512 */	sub	x9, x2, 128
	.loc 38 1511 0
..LDL1149:
/*   1511 */	ld1d	{z22.d}, p0/z, [x11, z29.d, lsl #3]	//  (*)
/*   1511 */	sub	x8, x4, 192
	.loc 38 1512 0
..LDL1150:
/*   1512 */	sub	x7, x2, 192
	.loc 38 1513 0
..LDL1151:
/*   1513 */	sub	x5, x5, 128
/*   1513 */	sub	w6, w6, 4
	.loc 38 1511 0
..LDL1152:
/*   1511 */	ld1d	{z20.d}, p0/z, [x11, z24.d, lsl #3]	//  (*)
	.loc 38 1513 0
..LDL1153:
/*   1513 */	sub	x3, x3, 128
	.loc 38 1510 0
..LDL1154:
/*   1510 */	sub	x1, x1, 32
	.loc 38 1512 0
..LDL1155:
/*   1512 */	ld1d	{z23.d}, p0/z, [x11, z25.d, lsl #3]	//  (*)
	.loc 38 1513 0
..LDL1156:
/*   1513 */	cmp	w6, 0
	.loc 38 1512 0
..LDL1157:
/*   1512 */	ld1d	{z30.d}, p0/z, [x11, z27.d, lsl #3]	//  (*)
	.loc 38 1511 0
..LDL1158:
/*   1511 */	ld1d	{z7.d}, p0/z, [x4, z11.d, lsl #3]	//  (*)
	.loc 38 1513 0
..LDL1159:
/*   1513 */	sub	x4, x4, 256
	.loc 38 1512 0
..LDL1160:
/*   1512 */	ld1d	{z16.d}, p0/z, [x2, z11.d, lsl #3]	//  (*)
	.loc 38 1513 0
..LDL1161:
/*   1513 */	sub	x2, x2, 256
	.loc 38 1511 0
..LDL1162:
/*   1511 */	ld1d	{z17.d}, p0/z, [x22, z11.d, lsl #3]	//  (*)
	.loc 38 1512 0
..LDL1163:
/*   1512 */	ld1d	{z25.d}, p0/z, [x21, z11.d, lsl #3]	//  (*)
	.loc 38 1511 0
..LDL1164:
/*   1511 */	ld1d	{z28.d}, p0/z, [x11, z28.d, lsl #3]	//  (*)
/*   1511 */	ld1d	{z24.d}, p0/z, [x10, z11.d, lsl #3]	//  (*)
	.loc 38 1512 0
..LDL1165:
/*   1512 */	ld1d	{z27.d}, p0/z, [x9, z11.d, lsl #3]	//  (*)
	.loc 38 1511 0
..LDL1166:
/*   1511 */	ld1d	{z29.d}, p0/z, [x8, z11.d, lsl #3]	//  (*)
	.loc 38 1512 0
..LDL1167:
/*   1512 */	ld1d	{z31.d}, p0/z, [x7, z11.d, lsl #3]	//  (*)
	.loc 38 1511 0
..LDL1168:
/*   1511 */	ld1d	{z18.d}, p0/z, [x11, z18.d, lsl #3]	//  (*)
	.loc 38 1512 0
..LDL1169:
/*   1512 */	ld1d	{z19.d}, p0/z, [x11, z19.d, lsl #3]	//  (*)
	.loc 38 1511 0
..LDL1170:
/*   1511 */	fmsb	z7.d, p0/m, z22.d, z26.d
	.loc 38 1512 0
..LDL1171:
/*   1512 */	fmsb	z16.d, p0/m, z21.d, z6.d
	.loc 38 1511 0
..LDL1172:
/*   1511 */	fmsb	z17.d, p0/m, z20.d, z5.d
	.loc 38 1512 0
..LDL1173:
/*   1512 */	fmls	z4.d, p0/m, z25.d, z23.d
	.loc 38 1511 0
..LDL1174:
/*   1511 */	fmls	z3.d, p0/m, z24.d, z28.d
	.loc 38 1512 0
..LDL1175:
/*   1512 */	fmls	z2.d, p0/m, z27.d, z30.d
	.loc 38 1511 0
..LDL1176:
/*   1511 */	fmsb	z18.d, p0/m, z29.d, z1.d
	.loc 38 1512 0
..LDL1177:
/*   1512 */	fmsb	z19.d, p0/m, z31.d, z0.d
	.loc 38 1513 0
..LDL1178:
/*   1513 */	blt	.L1837
.L1840:
	.p2align 5
.L1843:					// :entr:term:mod:swpl
	.loc 38 1512 0 is_stmt 1
..LDL1179:
/*   1512 */	sub	x10, x3, 32
	.loc 38 1511 0
..LDL1180:
/*   1511 */	sub	x21, x5, 32
/*   1511 */	ld1sw	{z0.d}, p0/z, [x5, z11.d, lsl #2]	//  (*)
/*   1511 */	sub	x9, x5, 64
	.loc 38 1512 0
..LDL1181:
/*   1512 */	sub	x7, x2, 64
	.loc 38 1511 0
..LDL1182:
/*   1511 */	ld1sw	{z5.d}, p0/z, [x21, z11.d, lsl #2]	//  (*)
/*   1511 */	sub	x8, x4, 64
	.loc 38 1512 0
..LDL1183:
/*   1512 */	ld1sw	{z1.d}, p0/z, [x3, z11.d, lsl #2]	//  (*)
	.loc 38 1510 0 is_stmt 0
..LDL1184:
/*   1510 */	sub	x1, x1, 32
	.loc 38 1511 0 is_stmt 1
..LDL1185:
/*   1511 */	ld1sw	{z24.d}, p0/z, [x9, z11.d, lsl #2]	//  (*)
	.loc 38 1513 0 is_stmt 0
..LDL1186:
/*   1513 */	subs	w6, w6, 4
	.loc 38 1511 0
..LDL1187:
/*   1511 */	ld1d	{z20.d}, p0/z, [x8, z11.d, lsl #3]	//  (*)
/*   1511 */	ld1d	{z6.d}, p0/z, [x11, z0.d, lsl #3]	//  (*)
/*   1511 */	ld1d	{z23.d}, p0/z, [x11, z5.d, lsl #3]	//  (*)
	.loc 38 1512 0 is_stmt 1
..LDL1188:
/*   1512 */	ld1sw	{z5.d}, p0/z, [x10, z11.d, lsl #2]	//  (*)
	.loc 38 1511 0
..LDL1189:
/*   1511 */	ld1d	{z0.d}, p0/z, [x4, z11.d, lsl #3]	//  (*)
	.loc 38 1512 0
..LDL1190:
/*   1512 */	ld1d	{z22.d}, p0/z, [x11, z1.d, lsl #3]	//  (*)
	.loc 38 1511 0
..LDL1191:
/*   1511 */	ld1d	{z24.d}, p0/z, [x11, z24.d, lsl #3]	//  (*)
	.loc 38 1512 0
..LDL1192:
/*   1512 */	ld1d	{z1.d}, p0/z, [x2, z11.d, lsl #3]	//  (*)
	.loc 38 1511 0
..LDL1193:
/*   1511 */	fmls	z17.d, p0/m, z20.d, z23.d
	.loc 38 1512 0
..LDL1194:
/*   1512 */	ld1d	{z21.d}, p0/z, [x11, z5.d, lsl #3]	//  (*)
/*   1512 */	ld1d	{z5.d}, p0/z, [x7, z11.d, lsl #3]	//  (*)
	.loc 38 1511 0
..LDL1195:
/*   1511 */	fmls	z7.d, p0/m, z0.d, z6.d
/*   1511 */	sub	x7, x4, 128
/*   1511 */	ld1d	{z0.d}, p0/z, [x7, z11.d, lsl #3]	//  (*)
	.loc 38 1512 0
..LDL1196:
/*   1512 */	sub	x7, x3, 64
/*   1512 */	fmls	z16.d, p0/m, z1.d, z22.d
/*   1512 */	fmls	z4.d, p0/m, z5.d, z21.d
	.loc 38 1511 0
..LDL1197:
/*   1511 */	fmls	z3.d, p0/m, z0.d, z24.d
	.loc 38 1512 0
..LDL1198:
/*   1512 */	ld1sw	{z0.d}, p0/z, [x7, z11.d, lsl #2]	//  (*)
/*   1512 */	sub	x7, x2, 128
/*   1512 */	ld1d	{z1.d}, p0/z, [x11, z0.d, lsl #3]	//  (*)
/*   1512 */	ld1d	{z0.d}, p0/z, [x7, z11.d, lsl #3]	//  (*)
	.loc 38 1511 0
..LDL1199:
/*   1511 */	sub	x7, x5, 96
	.loc 38 1513 0 is_stmt 0
..LDL1200:
/*   1513 */	sub	x5, x5, 128
	.loc 38 1512 0 is_stmt 1
..LDL1201:
/*   1512 */	fmls	z2.d, p0/m, z0.d, z1.d
	.loc 38 1511 0
..LDL1202:
/*   1511 */	ld1sw	{z0.d}, p0/z, [x7, z11.d, lsl #2]	//  (*)
/*   1511 */	sub	x7, x4, 192
	.loc 38 1513 0 is_stmt 0
..LDL1203:
/*   1513 */	sub	x4, x4, 256
	.loc 38 1511 0
..LDL1204:
/*   1511 */	ld1d	{z1.d}, p0/z, [x7, z11.d, lsl #3]	//  (*)
	.loc 38 1512 0 is_stmt 1
..LDL1205:
/*   1512 */	sub	x7, x3, 96
	.loc 38 1513 0 is_stmt 0
..LDL1206:
/*   1513 */	sub	x3, x3, 128
	.loc 38 1511 0 is_stmt 1
..LDL1207:
/*   1511 */	ld1d	{z5.d}, p0/z, [x11, z0.d, lsl #3]	//  (*)
	.loc 38 1512 0
..LDL1208:
/*   1512 */	ld1sw	{z0.d}, p0/z, [x7, z11.d, lsl #2]	//  (*)
/*   1512 */	sub	x7, x2, 192
	.loc 38 1513 0 is_stmt 0
..LDL1209:
/*   1513 */	sub	x2, x2, 256
	.loc 38 1511 0 is_stmt 1
..LDL1210:
/*   1511 */	fmls	z18.d, p0/m, z1.d, z5.d
	.loc 38 1512 0
..LDL1211:
/*   1512 */	ld1d	{z1.d}, p0/z, [x11, z0.d, lsl #3]	//  (*)
/*   1512 */	ld1d	{z0.d}, p0/z, [x7, z11.d, lsl #3]	//  (*)
/*   1512 */	fmls	z19.d, p0/m, z0.d, z1.d
	.loc 38 1513 0 is_stmt 0
..LDL1212:
/*   1513 */	bpl	.L1843
.L1837:
	.loc 38 1512 0
..LDL1213:
/*   1512 */	fadd	z5.d, z19.d, z2.d
/*   1512 */	fadd	z1.d, z16.d, z4.d
	.loc 38 1511 0
..LDL1214:
/*   1511 */	fadd	z2.d, z18.d, z3.d
/*   1511 */	fadd	z0.d, z7.d, z17.d
	.loc 38 1512 0
..LDL1215:
/*   1512 */	fadd	z1.d, z1.d, z5.d
	.loc 38 1511 0
..LDL1216:
/*   1511 */	fadd	z0.d, z0.d, z2.d
.L1647:
	.loc 38 1510 0 is_stmt 1
..LDL1217:
/*   1510 */	adds	w2, w6, 3
/*   1510 */	bmi	.L1634
	.loc 38 1511 0 is_stmt 0
..LDL1218:
/*   1511 */	ldr	x7, [x0, 8]	//  "xv"
	.p2align 5
.L1655:					// :entr:term:mod
	.loc 38 1511 0 is_stmt 1
..LDL1219:
/*   1511 */	index	z4.d, 0, -1
/*   1511 */	mov	x3, x1
	.loc 38 1510 0 is_stmt 0
..LDL1220:
/*   1510 */	sub	x1, x1, 8
	.loc 38 1511 0
..LDL1221:
/*   1511 */	add	x6, x12, x3, lsl #2
	.loc 38 1513 0
..LDL1222:
/*   1513 */	subs	w2, w2, 1
	.loc 38 1512 0 is_stmt 1
..LDL1223:
/*   1512 */	add	x5, x13, x3, lsl #2
	.loc 38 1511 0
..LDL1224:
/*   1511 */	add	x4, x14, x3, lsl #3
	.loc 38 1512 0
..LDL1225:
/*   1512 */	add	x3, x15, x3, lsl #3
	.loc 38 1511 0
..LDL1226:
/*   1511 */	ld1sw	{z5.d}, p0/z, [x6, z4.d, lsl #2]	//  (*)
	.loc 38 1512 0
..LDL1227:
/*   1512 */	ld1sw	{z2.d}, p0/z, [x5, z4.d, lsl #2]	//  (*)
	.loc 38 1511 0
..LDL1228:
/*   1511 */	ld1d	{z3.d}, p0/z, [x4, z4.d, lsl #3]	//  (*)
	.loc 38 1512 0
..LDL1229:
/*   1512 */	ld1d	{z4.d}, p0/z, [x3, z4.d, lsl #3]	//  (*)
	.loc 38 1511 0
..LDL1230:
/*   1511 */	ld1d	{z5.d}, p0/z, [x7, z5.d, lsl #3]	//  (*)
	.loc 38 1512 0
..LDL1231:
/*   1512 */	ld1d	{z2.d}, p0/z, [x7, z2.d, lsl #3]	//  (*)
	.loc 38 1511 0
..LDL1232:
/*   1511 */	fmls	z0.d, p0/m, z3.d, z5.d
	.loc 38 1512 0
..LDL1233:
/*   1512 */	fmls	z1.d, p0/m, z4.d, z2.d
	.loc 38 1510 0 is_stmt 0
..LDL1234:
/*   1510 */	bpl	.L1655
.L1634:
	.loc 38 1512 0
..LDL1235:
/*   1512 */	movprfx	z3, z1
/*   1512 */	ext	z3.b, z3.b, z1.b, 32
	.loc 38 1511 0
..LDL1236:
/*   1511 */	movprfx	z2, z0
/*   1511 */	ext	z2.b, z2.b, z0.b, 32
	.loc 38 1512 0
..LDL1237:
/*   1512 */	fadd	z1.d, z3.d, z1.d
	.loc 38 1511 0
..LDL1238:
/*   1511 */	fadd	z3.d, z2.d, z0.d
	.loc 38 1512 0
..LDL1239:
/*   1512 */	movprfx	z0, z1
/*   1512 */	ext	z0.b, z0.b, z1.b, 16
	.loc 38 1511 0
..LDL1240:
/*   1511 */	movprfx	z2, z3
/*   1511 */	ext	z2.b, z2.b, z3.b, 16
	.loc 38 1512 0
..LDL1241:
/*   1512 */	fadd	z0.d, z1.d, z0.d
	.loc 38 1511 0
..LDL1242:
/*   1511 */	fadd	z2.d, z3.d, z2.d
	.loc 38 1512 0
..LDL1243:
/*   1512 */	movprfx	z3, z0
/*   1512 */	ext	z3.b, z3.b, z0.b, 8
	.loc 38 1511 0
..LDL1244:
/*   1511 */	movprfx	z1, z2
/*   1511 */	ext	z1.b, z1.b, z2.b, 8
	.loc 38 1512 0
..LDL1245:
/*   1512 */	fadd	z0.d, z0.d, z3.d
	.loc 38 1511 0
..LDL1246:
/*   1511 */	fadd	z1.d, z2.d, z1.d
	.loc 38 1512 0
..LDL1247:
/*   1512 */	fadd	d15, d15, d0
	.loc 38 1511 0
..LDL1248:
/*   1511 */	fadd	d14, d14, d1
.L1635:
	.loc 38 1510 0 is_stmt 1
..LDL1249:
/*   1510 */	sbfiz	x1, x30, 3, 32
/*   1510 */	sub	x1, x20, x1
/*   1510 */	add	x1, x1, x29
/*   1510 */	cbz	w19, .L1638
/*   1510 */	whilelt	p1.d, wzr, w19
	.loc 38 1511 0
..LDL1250:
/*   1511 */	ldr	x4, [x0, 8]	//  "xv"
/*   1511 */	add	x2, x12, x1, lsl #2
	.loc 38 1512 0
..LDL1251:
/*   1512 */	add	x3, x13, x1, lsl #2
	.loc 38 1511 0
..LDL1252:
/*   1511 */	ld1sw	{z3.d}, p1/z, [x2, z11.d, lsl #2]	//  (*)
/*   1511 */	add	x2, x14, x1, lsl #3
	.loc 38 1512 0
..LDL1253:
/*   1512 */	ld1sw	{z2.d}, p1/z, [x3, z11.d, lsl #2]	//  (*)
	.loc 38 1511 0
..LDL1254:
/*   1511 */	ld1d	{z1.d}, p1/z, [x2, z11.d, lsl #3]	//  (*)
	.loc 38 1512 0
..LDL1255:
/*   1512 */	add	x1, x15, x1, lsl #3
/*   1512 */	ld1d	{z0.d}, p1/z, [x1, z11.d, lsl #3]	//  (*)
	.loc 38 1511 0
..LDL1256:
/*   1511 */	ld1d	{z3.d}, p1/z, [x4, z3.d, lsl #3]	//  (*)
	.loc 38 1512 0
..LDL1257:
/*   1512 */	ld1d	{z2.d}, p1/z, [x4, z2.d, lsl #3]	//  (*)
	.loc 38 1511 0
..LDL1258:
/*   1511 */	fmsb	z1.d, p1/m, z3.d, z12.d
	.loc 38 1512 0
..LDL1259:
/*   1512 */	fmsb	z0.d, p1/m, z2.d, z12.d
	.loc 38 1511 0 is_stmt 0
..LDL1260:
/*   1511 */	sel	z2.d, p1, z1.d, z12.d
	.loc 38 1512 0
..LDL1261:
/*   1512 */	sel	z3.d, p1, z0.d, z12.d
	.loc 38 1511 0
..LDL1262:
/*   1511 */	movprfx	z0, z2
/*   1511 */	ext	z0.b, z0.b, z2.b, 32
	.loc 38 1512 0
..LDL1263:
/*   1512 */	movprfx	z1, z3
/*   1512 */	ext	z1.b, z1.b, z3.b, 32
	.loc 38 1511 0
..LDL1264:
/*   1511 */	fadd	z0.d, z2.d, z0.d
	.loc 38 1512 0
..LDL1265:
/*   1512 */	fadd	z3.d, z3.d, z1.d
	.loc 38 1511 0
..LDL1266:
/*   1511 */	movprfx	z1, z0
/*   1511 */	ext	z1.b, z1.b, z0.b, 16
	.loc 38 1512 0
..LDL1267:
/*   1512 */	movprfx	z2, z3
/*   1512 */	ext	z2.b, z2.b, z3.b, 16
	.loc 38 1511 0
..LDL1268:
/*   1511 */	fadd	z1.d, z0.d, z1.d
	.loc 38 1512 0
..LDL1269:
/*   1512 */	fadd	z2.d, z3.d, z2.d
	.loc 38 1511 0
..LDL1270:
/*   1511 */	movprfx	z3, z1
/*   1511 */	ext	z3.b, z3.b, z1.b, 8
	.loc 38 1512 0
..LDL1271:
/*   1512 */	movprfx	z0, z2
/*   1512 */	ext	z0.b, z0.b, z2.b, 8
	.loc 38 1511 0
..LDL1272:
/*   1511 */	fadd	z1.d, z1.d, z3.d
	.loc 38 1512 0
..LDL1273:
/*   1512 */	fadd	z0.d, z2.d, z0.d
	.loc 38 1511 0
..LDL1274:
/*   1511 */	fadd	d14, d14, d1
	.loc 38 1512 0
..LDL1275:
/*   1512 */	fadd	d15, d15, d0
.L1638:
	.loc 38 1516 0 is_stmt 1
..LDL1276:
	.loc 38 1515 0 is_stmt 0
..LDL1277:
/*   1515 */	ldr	x1, [x0, 8]	//  "xv"
/*   1515 */	ldr	x2, [x0, 24]	//  "matrixDiagonal"
/*   1515 */	ldr	x2, [x2, x17, lsl #3]	//  (*)
/*   1515 */	ldr	d1, [x1, x17, lsl #3]	//  (*)
/*   1515 */	ldr	d0, [x2]	//  (*)
	.loc 38 1516 0
..LDL1278:
/*   1516 */	fmadd	d2, d1, d0, d14
/*   1516 */	frecpe	d1, d0
/*   1516 */	fmsub	d0, d0, d1, d13
/*   1516 */	fmul	d2, d2, d1
/*   1516 */	fmadd	d3, d0, d0, d0
/*   1516 */	fmul	d1, d0, d0
/*   1516 */	fmadd	d3, d3, d2, d2
/*   1516 */	fmadd	d0, d1, d1, d0
/*   1516 */	fmadd	d0, d0, d3, d2
/*   1516 */	str	d0, [x1, x17, lsl #3]	//  (*)
	.loc 38 1518 0 is_stmt 1
..LDL1279:
/*   1518 */	ldr	x2, [x0, 24]	//  "matrixDiagonal"
	.loc 38 1519 0
..LDL1280:
	.loc 38 1518 0 is_stmt 0
..LDL1281:
/*   1518 */	ldr	d1, [x1, x16, lsl #3]	//  (*)
	.loc 38 1518 0 is_stmt 1
..LDL1282:
/*   1518 */	ldr	x2, [x2, x16, lsl #3]	//  (*)
	.loc 38 1519 0
..LDL1283:
	.loc 38 1518 0 is_stmt 0
..LDL1284:
/*   1518 */	ldr	d0, [x2]	//  (*)
	.loc 38 1519 0
..LDL1285:
/*   1519 */	fmadd	d2, d1, d0, d15
/*   1519 */	frecpe	d1, d0
/*   1519 */	fmsub	d0, d0, d1, d13
/*   1519 */	fmul	d1, d2, d1
/*   1519 */	fmadd	d3, d0, d0, d0
/*   1519 */	fmul	d2, d0, d0
/*   1519 */	fmadd	d3, d3, d1, d1
/*   1519 */	fmadd	d0, d2, d2, d0
/*   1519 */	fmadd	d0, d0, d3, d1
/*   1519 */	str	d0, [x1, x16, lsl #3]	//  (*)
.L1639:					// :term
	.loc 38 1530 0 is_stmt 1
..LDL1286:
/*   1530 */	sub	w18, w18, 1
/*   1530 */	subs	w23, w23, 1
/*   1530 */	bne	.L1610
.L1641:					// :term
	.loc 38 1531 0
..LDL1287:
/*   1531 */	sub	w24, w24, w25
/*   1531 */	cmp	w24, w26
/*   1531 */	bge	.L1607
.L1644:
/*   1531 */	add	x19, sp, 32
/*   1531 */	ldr	x0, [x19, -16]
/*   1531 */	bl	__mpc_obar
/*   1531 */	ldr	x0, [x19, -16]
/*   1531 */	bl	__mpc_obar
/*    ??? */	add	sp, sp, 48
	.cfi_def_cfa_offset 144
/*    ??? */	ldp	x19, x20, [sp, 112]	//  (*)
	.cfi_restore 19
	.cfi_restore 20
/*    ??? */	ldp	x21, x22, [sp, 96]	//  (*)
	.cfi_restore 21
	.cfi_restore 22
/*    ??? */	ldp	x23, x24, [sp, 80]	//  (*)
	.cfi_restore 23
	.cfi_restore 24
/*    ??? */	ldp	x25, x26, [sp, 64]	//  (*)
	.cfi_restore 25
	.cfi_restore 26
/*    ??? */	ldp	d8, d9, [sp, 48]	//  (*)
	.cfi_restore 72
	.cfi_restore 73
/*    ??? */	ldp	d10, d11, [sp, 32]	//  (*)
	.cfi_restore 74
	.cfi_restore 75
/*    ??? */	ldp	d12, d13, [sp, 16]	//  (*)
	.cfi_restore 76
	.cfi_restore 77
/*    ??? */	ldp	d14, d15, [sp]	//  (*)
	.cfi_restore 78
	.cfi_restore 79
/*    ??? */	ldp	x29, x30, [sp, 128]	//  (*)
	.cfi_restore 29
	.cfi_restore 30
/*   1531 */	add	sp, sp, 144
	.cfi_def_cfa_offset 0
/*   1531 */	ret	
..D9.pchi:
	.cfi_endproc
.LFE8:
	.size	_Z18ComputeSYMGS_BLOCKRK19SparseMatrix_STRUCTRK13Vector_STRUCTRS2_R9TraceData._OMP_6, .-_Z18ComputeSYMGS_BLOCKRK19SparseMatrix_STRUCTRK13Vector_STRUCTRS2_R9TraceData._OMP_6
	.ident	"$Compiler: Fujitsu C/C++ Compiler 4.7.0 (Nov 10 2021 09:37:15) ../src/ComputeSYMGS.cpp _Z12ComputeSYMGSRK19SparseMatrix_STRUCTRK13Vector_STRUCTRS2_R9TraceData $"
	.text
	.align	2
	.global	_Z12ComputeSYMGSRK19SparseMatrix_STRUCTRK13Vector_STRUCTRS2_R9TraceData
	.type	_Z12ComputeSYMGSRK19SparseMatrix_STRUCTRK13Vector_STRUCTRS2_R9TraceData, %function
_Z12ComputeSYMGSRK19SparseMatrix_STRUCTRK13Vector_STRUCTRS2_R9TraceData:
	.loc 38 1566 0
..LDL1288:
.LFB9:
	.cfi_startproc
/*   1535 */	sub	sp, sp, 64
	.cfi_def_cfa_offset 64
/*    ??? */	str	x30, [sp, 48]	//  (*)
	.cfi_offset 30, -16
	.loc 38 1569 0
..LDL1289:
/*   1569 */	ldrb	w4, [x0, 328]	//  (*)
/*   1569 */	cbnz	w4, .L620
	.loc 38 1583 0
..LDL1290:
/*   1583 */	bl	_Z18ComputeSYMGS_BLOCKRK19SparseMatrix_STRUCTRK13Vector_STRUCTRS2_R9TraceData
/*   1583 */	b	.L622
.L620:
	.loc 38 1575 0
..LDL1291:
/*   1575 */	bl	_Z16ComputeSYMGS_TDGRK19SparseMatrix_STRUCTRK13Vector_STRUCTRS2_R9TraceData
.L622:					// :epi:term
	.loc 38 1585 0
..LDL1292:
/*    ??? */	ldr	x30, [sp, 48]	//  (*)
	.cfi_restore 30
/*   1585 */	add	sp, sp, 64
	.cfi_def_cfa_offset 0
/*   1585 */	ret	
..D10.pchi:
	.cfi_endproc
.LFE9:
	.size	_Z12ComputeSYMGSRK19SparseMatrix_STRUCTRK13Vector_STRUCTRS2_R9TraceData, .-_Z12ComputeSYMGSRK19SparseMatrix_STRUCTRK13Vector_STRUCTRS2_R9TraceData
	.ident	"$Compiler: Fujitsu C/C++ Compiler 4.7.0 (Nov 10 2021 09:37:15) ../src/ComputeSYMGS.cpp __sti___16_ComputeSYMGS_cpp_49bfd29d $"
	.text
	.align	2
	.type	__sti___16_ComputeSYMGS_cpp_49bfd29d, %function
__sti___16_ComputeSYMGS_cpp_49bfd29d:
	.loc 38 1586 0
..LDL1293:
.LFB10:
	.cfi_startproc
/*   1586 */	ret	
..D11.pchi:
	.cfi_endproc
.LFE10:
	.size	__sti___16_ComputeSYMGS_cpp_49bfd29d, .-__sti___16_ComputeSYMGS_cpp_49bfd29d
	.section	.init_array,"aw"
	.align	3
	.xword		__sti___16_ComputeSYMGS_cpp_49bfd29d
	.file 39 "../src/InstrumentationData.hpp"
	.file 40 "/usr/include/bits/stdint-uintn.h"
	.file 41 "/opt/FJSVstclanga/cp-1.0.21.01/bin/../include/libc++/v371/utility"
	.file 42 "/opt/FJSVstclanga/cp-1.0.21.01/bin/../include/libc++/v371/limits"
	.file 43 "/usr/include/stdint.h"
	.file 44 "/usr/include/alloca.h"
	.file 45 "/usr/include/bits/types/locale_t.h"
	.file 46 "/usr/include/bits/types/__locale_t.h"
	.file 47 "/usr/include/bits/floatn-common.h"
	.file 48 "/usr/include/bits/floatn.h"
	.file 49 "/usr/include/sys/select.h"
	.file 50 "/usr/include/bits/types/struct_timeval.h"
	.file 51 "/usr/include/bits/types/struct_timespec.h"
	.file 52 "/usr/include/bits/types/__sigset_t.h"
	.file 53 "/usr/include/bits/stdint-intn.h"
	.file 54 "/usr/include/bits/types/__FILE.h"
	.file 55 "/opt/FJSVstclanga/cp-1.0.21.01/bin/../include/stdarg.h"
	.file 56 "/usr/include/assert.h"
	.file 57 "/usr/include/bits/mathcalls-helper-functions.h"
	.file 58 "/usr/include/bits/mathcalls.h"
	.file 59 "/usr/include/bits/mathcalls-narrow.h"
	.file 60 "../src/ComputeSYMGS_ref.hpp"
	.file 61 "/usr/include/sys/types.h"
	.file 62 "/usr/include/bits/types/clock_t.h"
	.file 63 "/usr/include/bits/types/clockid_t.h"
	.file 64 "/usr/include/bits/types/time_t.h"
	.file 65 "/usr/include/bits/types/timer_t.h"
	.file 66 "/usr/include/bits/types/sigset_t.h"
	.file 67 "/usr/include/bits/pthreadtypes-arch.h"
	.file 68 "/usr/include/bits/thread-shared-types.h"
	.file 69 "/usr/include/bits/pthreadtypes.h"
	.file 70 "/usr/include/bits/types/FILE.h"
	.pushsection	.text
..text.e:
	.popsection
	.section	.rodata
	.align	3
.LR.1:
	.ascii "x.localLength\040>=\040A.localNumberOfColumns\000"
	.type	.LR.1, %object
	.size	.LR.1,.-.LR.1
	.section	.rodata
	.align	3
.LR.2:
	.ascii "../src/ComputeSYMGS.cpp\000"
	.type	.LR.2, %object
	.size	.LR.2,.-.LR.2
	.section	.rodata
	.align	3
.LR.3:
	.ascii "x.localLength\040==\040A.localNumberOfColumns\000"
	.type	.LR.3, %object
	.size	.LR.3,.-.LR.3
	.section	.rodata
	.align	3
.LR.4:
	.byte	105
	.byte	110
	.byte	116
	.byte	32
	.byte	67
	.byte	111
	.byte	109
	.byte	112
	.byte	117
	.byte	116
	.byte	101
	.byte	83
	.byte	89
	.byte	77
	.byte	71
	.byte	83
	.byte	95
	.byte	66
	.byte	76
	.byte	79
	.byte	67
	.byte	75
	.byte	40
	.byte	99
	.byte	111
	.byte	110
	.byte	115
	.byte	116
	.byte	32
	.byte	83
	.byte	112
	.byte	97
	.byte	114
	.byte	115
	.byte	101
	.byte	77
	.byte	97
	.byte	116
	.byte	114
	.byte	105
	.byte	120
	.byte	95
	.byte	83
	.byte	84
	.byte	82
	.byte	85
	.byte	67
	.byte	84
	.byte	32
	.byte	38
	.byte	44
	.byte	32
	.byte	99
	.byte	111
	.byte	110
	.byte	115
	.byte	116
	.byte	32
	.byte	86
	.byte	101
	.byte	99
	.byte	116
	.byte	111
	.byte	114
	.byte	95
	.byte	83
	.byte	84
	.byte	82
	.byte	85
	.byte	67
	.byte	84
	.byte	32
	.byte	38
	.byte	44
	.byte	32
	.byte	86
	.byte	101
	.byte	99
	.byte	116
	.byte	111
	.byte	114
	.byte	95
	.byte	83
	.byte	84
	.byte	82
	.byte	85
	.byte	67
	.byte	84
	.byte	32
	.byte	38
	.byte	44
	.byte	32
	.byte	84
	.byte	114
	.byte	97
	.byte	99
	.byte	101
	.byte	68
	.byte	97
	.byte	116
	.byte	97
	.byte	32
	.byte	38
	.byte	41
	.zero	1
	.type	.LR.4, %object
	.size	.LR.4,.-.LR.4
	.section	.rodata
	.align	3
.LR.5:
	.byte	105
	.byte	110
	.byte	116
	.byte	32
	.byte	67
	.byte	111
	.byte	109
	.byte	112
	.byte	117
	.byte	116
	.byte	101
	.byte	83
	.byte	89
	.byte	77
	.byte	71
	.byte	83
	.byte	95
	.byte	84
	.byte	68
	.byte	71
	.byte	40
	.byte	99
	.byte	111
	.byte	110
	.byte	115
	.byte	116
	.byte	32
	.byte	83
	.byte	112
	.byte	97
	.byte	114
	.byte	115
	.byte	101
	.byte	77
	.byte	97
	.byte	116
	.byte	114
	.byte	105
	.byte	120
	.byte	95
	.byte	83
	.byte	84
	.byte	82
	.byte	85
	.byte	67
	.byte	84
	.byte	32
	.byte	38
	.byte	44
	.byte	32
	.byte	99
	.byte	111
	.byte	110
	.byte	115
	.byte	116
	.byte	32
	.byte	86
	.byte	101
	.byte	99
	.byte	116
	.byte	111
	.byte	114
	.byte	95
	.byte	83
	.byte	84
	.byte	82
	.byte	85
	.byte	67
	.byte	84
	.byte	32
	.byte	38
	.byte	44
	.byte	32
	.byte	86
	.byte	101
	.byte	99
	.byte	116
	.byte	111
	.byte	114
	.byte	95
	.byte	83
	.byte	84
	.byte	82
	.byte	85
	.byte	67
	.byte	84
	.byte	32
	.byte	38
	.byte	44
	.byte	32
	.byte	84
	.byte	114
	.byte	97
	.byte	99
	.byte	101
	.byte	68
	.byte	97
	.byte	116
	.byte	97
	.byte	32
	.byte	38
	.byte	41
	.zero	1
	.type	.LR.5, %object
	.size	.LR.5,.-.LR.5
	.section	.rodata
	.align	3
.LR.6:
	.byte	105
	.byte	110
	.byte	116
	.byte	32
	.byte	67
	.byte	111
	.byte	109
	.byte	112
	.byte	117
	.byte	116
	.byte	101
	.byte	70
	.byte	117
	.byte	115
	.byte	101
	.byte	100
	.byte	83
	.byte	89
	.byte	77
	.byte	71
	.byte	83
	.byte	95
	.byte	83
	.byte	80
	.byte	77
	.byte	86
	.byte	40
	.byte	99
	.byte	111
	.byte	110
	.byte	115
	.byte	116
	.byte	32
	.byte	83
	.byte	112
	.byte	97
	.byte	114
	.byte	115
	.byte	101
	.byte	77
	.byte	97
	.byte	116
	.byte	114
	.byte	105
	.byte	120
	.byte	95
	.byte	83
	.byte	84
	.byte	82
	.byte	85
	.byte	67
	.byte	84
	.byte	32
	.byte	38
	.byte	44
	.byte	32
	.byte	99
	.byte	111
	.byte	110
	.byte	115
	.byte	116
	.byte	32
	.byte	86
	.byte	101
	.byte	99
	.byte	116
	.byte	111
	.byte	114
	.byte	95
	.byte	83
	.byte	84
	.byte	82
	.byte	85
	.byte	67
	.byte	84
	.byte	32
	.byte	38
	.byte	44
	.byte	32
	.byte	86
	.byte	101
	.byte	99
	.byte	116
	.byte	111
	.byte	114
	.byte	95
	.byte	83
	.byte	84
	.byte	82
	.byte	85
	.byte	67
	.byte	84
	.byte	32
	.byte	38
	.byte	44
	.byte	32
	.byte	86
	.byte	101
	.byte	99
	.byte	116
	.byte	111
	.byte	114
	.byte	95
	.byte	83
	.byte	84
	.byte	82
	.byte	85
	.byte	67
	.byte	84
	.byte	32
	.byte	38
	.byte	41
	.zero	1
	.type	.LR.6, %object
	.size	.LR.6,.-.LR.6
	.section	.note.GNU-stack,"",%progbits
	.section	.fj.compile_info, "e"
	.ascii	"C++::trad-libc++"
